MPLAB ASM30 Listing:  ../src/ff-pic24-30-33.s 			page 1


   1              	;**********************************************************************
   2              	;                                                                     *
   3              	;    Filename:      ff-pic24-30-33.s                                  *
   4              	;    Date:          18.04.2014                                        *
   5              	;    File Version:  5.0                                               *
   6              	;    Copyright:     Mikael Nordman                                    *
   7              	;    Author:        Mikael Nordman                                    *
   8              	;                                                                     * 
   9              	;**********************************************************************
  10              	; FlashForth is a standalone Forth system for microcontrollers that
  11              	; can flash their own flash memory.
  12              	;
  13              	; Copyright (C) 2014  Mikael Nordman
  14              	;
  15              	; This program is free software: you can redistribute it and/or modify
  16              	; it under the terms of the GNU General Public License version 3 as 
  17              	; published by the Free Software Foundation.
  18              	;
  19              	; This program is distributed in the hope that it will be useful,
  20              	; but WITHOUT ANY WARRANTY; without even the implied warranty of
  21              	; MERCHANTABILITY or FITNESS FOR A PARTICULAR PURPOSE.  See the
  22              	; GNU General Public License for more details.
  23              	;
  24              	; You should have received a copy of the GNU General Public License
  25              	; along with this program.  If not, see <http://www.gnu.org/licenses/>.
  26              	;
  27              	; Modified versions of FlashForth must be clearly marked as such, 
  28              	; in the name of this file, and in the identification
  29              	; displayed when FlashForth starts.
  30              	;**********************************************************************
  31              	.include "ff30.inc"
   1              	;**********************************************************************
   2              	;                                                                     *
   3              	;    Filename:      ff30.inc                                          *
   4              	;    Date:          14.11.2010                                        *
   5              	;    File Version:  4.7                                               *
   6              	;    Copyright:     Mikael Nordman                                    *
   7              	;    Author:        Mikael Nordman                                    *
   8              	;                                                                     * 
   9              	;**********************************************************************
  10              	; FlashForth is a standalone Forth system for microcontrollers that
  11              	; can flash their own flash memory.
  12              	;
  13              	; Copyright (C) 2010  Mikael Nordman
  14              	;
  15              	; This program is free software: you can redistribute it and/or modify
  16              	; it under the terms of the GNU General Public License version 3 as 
  17              	; published by the Free Software Foundation.
  18              	;
  19              	; This program is distributed in the hope that it will be useful,
  20              	; but WITHOUT ANY WARRANTY; without even the implied warranty of
  21              	; MERCHANTABILITY or FITNESS FOR A PARTICULAR PURPOSE.  See the
  22              	; GNU General Public License for more details.
  23              	;
  24              	; You should have received a copy of the GNU General Public License
  25              	; along with this program.  If not, see <http://www.gnu.org/licenses/>.
  26              	;
MPLAB ASM30 Listing:  ../src/ff-pic24-30-33.s 			page 2


  27              	; Modified versions of FlashForth must be clearly marked as such, 
  28              	; in the name of this file, and in the identification
  29              	; displayed when FlashForth starts.
  30              	;**********************************************************************
  31              	.ifdecl    __dsPIC33F  
  32              	  .include "p33Fxxxx.inc"  
   1              	.ifdef __33FJ06GS001
   2              	.include "p33FJ06GS001.inc"
   3              	.equ VALID_ID,1
   4              	.endif
   5              	
   6              	.ifdef __33FJ06GS101
   7              	.include "p33FJ06GS101.inc"
   8              	.equ VALID_ID,1
   9              	.endif
  10              	
  11              	.ifdef __33FJ06GS101A
  12              	.include "p33FJ06GS101A.inc"
  13              	.equ VALID_ID,1
  14              	.endif
  15              	
  16              	.ifdef __33FJ06GS102
  17              	.include "p33FJ06GS102.inc"
  18              	.equ VALID_ID,1
  19              	.endif
  20              	
  21              	.ifdef __33FJ06GS102A
  22              	.include "p33FJ06GS102A.inc"
  23              	.equ VALID_ID,1
  24              	.endif
  25              	
  26              	.ifdef __33FJ06GS202
  27              	.include "p33FJ06GS202.inc"
  28              	.equ VALID_ID,1
  29              	.endif
  30              	
  31              	.ifdef __33FJ06GS202A
  32              	.include "p33FJ06GS202A.inc"
  33              	.equ VALID_ID,1
  34              	.endif
  35              	
  36              	.ifdef __33FJ09GS302
  37              	.include "p33FJ09GS302.inc"
  38              	.equ VALID_ID,1
  39              	.endif
  40              	
  41              	.ifdef __33FJ128GP202
  42              	.include "p33FJ128GP202.inc"
  43              	.equ VALID_ID,1
  44              	.endif
  45              	
  46              	.ifdef __33FJ128GP204
  47              	.include "p33FJ128GP204.inc"
  48              	.equ VALID_ID,1
  49              	.endif
  50              	
  51              	.ifdef __33FJ128GP206
MPLAB ASM30 Listing:  ../src/ff-pic24-30-33.s 			page 3


  52              	.include "p33FJ128GP206.inc"
  53              	.equ VALID_ID,1
  54              	.endif
  55              	
  56              	.ifdef __33FJ128GP206A
  57              	.include "p33FJ128GP206A.inc"
  58              	.equ VALID_ID,1
  59              	.endif
  60              	
  61              	.ifdef __33FJ128GP306
  62              	.include "p33FJ128GP306.inc"
  63              	.equ VALID_ID,1
  64              	.endif
  65              	
  66              	.ifdef __33FJ128GP306A
  67              	.include "p33FJ128GP306A.inc"
  68              	.equ VALID_ID,1
  69              	.endif
  70              	
  71              	.ifdef __33FJ128GP310
  72              	.include "p33FJ128GP310.inc"
  73              	.equ VALID_ID,1
  74              	.endif
  75              	
  76              	.ifdef __33FJ128GP310A
  77              	.include "p33FJ128GP310A.inc"
  78              	.equ VALID_ID,1
  79              	.endif
  80              	
  81              	.ifdef __33FJ128GP706
  82              	.include "p33FJ128GP706.inc"
  83              	.equ VALID_ID,1
  84              	.endif
  85              	
  86              	.ifdef __33FJ128GP706A
  87              	.include "p33FJ128GP706A.inc"
  88              	.equ VALID_ID,1
  89              	.endif
  90              	
  91              	.ifdef __33FJ128GP708
  92              	.include "p33FJ128GP708.inc"
  93              	.equ VALID_ID,1
  94              	.endif
  95              	
  96              	.ifdef __33FJ128GP708A
  97              	.include "p33FJ128GP708A.inc"
  98              	.equ VALID_ID,1
  99              	.endif
 100              	
 101              	.ifdef __33FJ128GP710
 102              	.include "p33FJ128GP710.inc"
 103              	.equ VALID_ID,1
 104              	.endif
 105              	
 106              	.ifdef __33FJ128GP710A
 107              	.include "p33FJ128GP710A.inc"
 108              	.equ VALID_ID,1
MPLAB ASM30 Listing:  ../src/ff-pic24-30-33.s 			page 4


 109              	.endif
 110              	
 111              	.ifdef __33FJ128GP802
 112              	.include "p33FJ128GP802.inc"
   1              	;==========================================================================
   2              	;  PIC33FJ128GP802 Standard Assembly Include File
   3              	; 
   4              	;  (c) Copyright 2012 Microchip Technology, All rights reserved
   5              	;==========================================================================
   6              	
 5082              	.LIST
 113              	.equ VALID_ID,1
 114              	.endif
 115              	
 116              	.ifdef __33FJ128GP804
 117              	.include "p33FJ128GP804.inc"
 118              	.equ VALID_ID,1
 119              	.endif
 120              	
 121              	.ifdef __33FJ128MC202
 122              	.include "p33FJ128MC202.inc"
 123              	.equ VALID_ID,1
 124              	.endif
 125              	
 126              	.ifdef __33FJ128MC204
 127              	.include "p33FJ128MC204.inc"
 128              	.equ VALID_ID,1
 129              	.endif
 130              	
 131              	.ifdef __33FJ128MC506
 132              	.include "p33FJ128MC506.inc"
 133              	.equ VALID_ID,1
 134              	.endif
 135              	
 136              	.ifdef __33FJ128MC506A
 137              	.include "p33FJ128MC506A.inc"
 138              	.equ VALID_ID,1
 139              	.endif
 140              	
 141              	.ifdef __33FJ128MC510
 142              	.include "p33FJ128MC510.inc"
 143              	.equ VALID_ID,1
 144              	.endif
 145              	
 146              	.ifdef __33FJ128MC510A
 147              	.include "p33FJ128MC510A.inc"
 148              	.equ VALID_ID,1
 149              	.endif
 150              	
 151              	.ifdef __33FJ128MC706
 152              	.include "p33FJ128MC706.inc"
 153              	.equ VALID_ID,1
 154              	.endif
 155              	
 156              	.ifdef __33FJ128MC706A
 157              	.include "p33FJ128MC706A.inc"
 158              	.equ VALID_ID,1
MPLAB ASM30 Listing:  ../src/ff-pic24-30-33.s 			page 5


 159              	.endif
 160              	
 161              	.ifdef __33FJ128MC708
 162              	.include "p33FJ128MC708.inc"
 163              	.equ VALID_ID,1
 164              	.endif
 165              	
 166              	.ifdef __33FJ128MC708A
 167              	.include "p33FJ128MC708A.inc"
 168              	.equ VALID_ID,1
 169              	.endif
 170              	
 171              	.ifdef __33FJ128MC710
 172              	.include "p33FJ128MC710.inc"
 173              	.equ VALID_ID,1
 174              	.endif
 175              	
 176              	.ifdef __33FJ128MC710A
 177              	.include "p33FJ128MC710A.inc"
 178              	.equ VALID_ID,1
 179              	.endif
 180              	
 181              	.ifdef __33FJ128MC802
 182              	.include "p33FJ128MC802.inc"
 183              	.equ VALID_ID,1
 184              	.endif
 185              	
 186              	.ifdef __33FJ128MC804
 187              	.include "p33FJ128MC804.inc"
 188              	.equ VALID_ID,1
 189              	.endif
 190              	
 191              	.ifdef __33FJ12GP201
 192              	.include "p33FJ12GP201.inc"
 193              	.equ VALID_ID,1
 194              	.endif
 195              	
 196              	.ifdef __33FJ12GP202
 197              	.include "p33FJ12GP202.inc"
 198              	.equ VALID_ID,1
 199              	.endif
 200              	
 201              	.ifdef __33FJ12MC201
 202              	.include "p33FJ12MC201.inc"
 203              	.equ VALID_ID,1
 204              	.endif
 205              	
 206              	.ifdef __33FJ12MC202
 207              	.include "p33FJ12MC202.inc"
 208              	.equ VALID_ID,1
 209              	.endif
 210              	
 211              	.ifdef __33FJ16GP101
 212              	.include "p33FJ16GP101.inc"
 213              	.equ VALID_ID,1
 214              	.endif
 215              	
MPLAB ASM30 Listing:  ../src/ff-pic24-30-33.s 			page 6


 216              	.ifdef __33FJ16GP102
 217              	.include "p33FJ16GP102.inc"
 218              	.equ VALID_ID,1
 219              	.endif
 220              	
 221              	.ifdef __33FJ16GP304
 222              	.include "p33FJ16GP304.inc"
 223              	.equ VALID_ID,1
 224              	.endif
 225              	
 226              	.ifdef __33FJ16GS402
 227              	.include "p33FJ16GS402.inc"
 228              	.equ VALID_ID,1
 229              	.endif
 230              	
 231              	.ifdef __33FJ16GS404
 232              	.include "p33FJ16GS404.inc"
 233              	.equ VALID_ID,1
 234              	.endif
 235              	
 236              	.ifdef __33FJ16GS502
 237              	.include "p33FJ16GS502.inc"
 238              	.equ VALID_ID,1
 239              	.endif
 240              	
 241              	.ifdef __33FJ16GS504
 242              	.include "p33FJ16GS504.inc"
 243              	.equ VALID_ID,1
 244              	.endif
 245              	
 246              	.ifdef __33FJ16MC101
 247              	.include "p33FJ16MC101.inc"
 248              	.equ VALID_ID,1
 249              	.endif
 250              	
 251              	.ifdef __33FJ16MC102
 252              	.include "p33FJ16MC102.inc"
 253              	.equ VALID_ID,1
 254              	.endif
 255              	
 256              	.ifdef __33FJ16MC304
 257              	.include "p33FJ16MC304.inc"
 258              	.equ VALID_ID,1
 259              	.endif
 260              	
 261              	.ifdef __33FJ256GP506
 262              	.include "p33FJ256GP506.inc"
 263              	.equ VALID_ID,1
 264              	.endif
 265              	
 266              	.ifdef __33FJ256GP506A
 267              	.include "p33FJ256GP506A.inc"
 268              	.equ VALID_ID,1
 269              	.endif
 270              	
 271              	.ifdef __33FJ256GP510
 272              	.include "p33FJ256GP510.inc"
MPLAB ASM30 Listing:  ../src/ff-pic24-30-33.s 			page 7


 273              	.equ VALID_ID,1
 274              	.endif
 275              	
 276              	.ifdef __33FJ256GP510A
 277              	.include "p33FJ256GP510A.inc"
 278              	.equ VALID_ID,1
 279              	.endif
 280              	
 281              	.ifdef __33FJ256GP710
 282              	.include "p33FJ256GP710.inc"
 283              	.equ VALID_ID,1
 284              	.endif
 285              	
 286              	.ifdef __33FJ256GP710A
 287              	.include "p33FJ256GP710A.inc"
 288              	.equ VALID_ID,1
 289              	.endif
 290              	
 291              	.ifdef __33FJ256MC510
 292              	.include "p33FJ256MC510.inc"
 293              	.equ VALID_ID,1
 294              	.endif
 295              	
 296              	.ifdef __33FJ256MC510A
 297              	.include "p33FJ256MC510A.inc"
 298              	.equ VALID_ID,1
 299              	.endif
 300              	
 301              	.ifdef __33FJ256MC710
 302              	.include "p33FJ256MC710.inc"
 303              	.equ VALID_ID,1
 304              	.endif
 305              	
 306              	.ifdef __33FJ256MC710A
 307              	.include "p33FJ256MC710A.inc"
 308              	.equ VALID_ID,1
 309              	.endif
 310              	
 311              	.ifdef __33FJ32GP101
 312              	.include "p33FJ32GP101.inc"
 313              	.equ VALID_ID,1
 314              	.endif
 315              	
 316              	.ifdef __33FJ32GP102
 317              	.include "p33FJ32GP102.inc"
 318              	.equ VALID_ID,1
 319              	.endif
 320              	
 321              	.ifdef __33FJ32GP104
 322              	.include "p33FJ32GP104.inc"
 323              	.equ VALID_ID,1
 324              	.endif
 325              	
 326              	.ifdef __33FJ32GP202
 327              	.include "p33FJ32GP202.inc"
 328              	.equ VALID_ID,1
 329              	.endif
MPLAB ASM30 Listing:  ../src/ff-pic24-30-33.s 			page 8


 330              	
 331              	.ifdef __33FJ32GP204
 332              	.include "p33FJ32GP204.inc"
 333              	.equ VALID_ID,1
 334              	.endif
 335              	
 336              	.ifdef __33FJ32GP302
 337              	.include "p33FJ32GP302.inc"
 338              	.equ VALID_ID,1
 339              	.endif
 340              	
 341              	.ifdef __33FJ32GP304
 342              	.include "p33FJ32GP304.inc"
 343              	.equ VALID_ID,1
 344              	.endif
 345              	
 346              	.ifdef __33FJ32GS406
 347              	.include "p33FJ32GS406.inc"
 348              	.equ VALID_ID,1
 349              	.endif
 350              	
 351              	.ifdef __33FJ32GS606
 352              	.include "p33FJ32GS606.inc"
 353              	.equ VALID_ID,1
 354              	.endif
 355              	
 356              	.ifdef __33FJ32GS608
 357              	.include "p33FJ32GS608.inc"
 358              	.equ VALID_ID,1
 359              	.endif
 360              	
 361              	.ifdef __33FJ32GS610
 362              	.include "p33FJ32GS610.inc"
 363              	.equ VALID_ID,1
 364              	.endif
 365              	
 366              	.ifdef __33FJ32MC101
 367              	.include "p33FJ32MC101.inc"
 368              	.equ VALID_ID,1
 369              	.endif
 370              	
 371              	.ifdef __33FJ32MC102
 372              	.include "p33FJ32MC102.inc"
 373              	.equ VALID_ID,1
 374              	.endif
 375              	
 376              	.ifdef __33FJ32MC104
 377              	.include "p33FJ32MC104.inc"
 378              	.equ VALID_ID,1
 379              	.endif
 380              	
 381              	.ifdef __33FJ32MC202
 382              	.include "p33FJ32MC202.inc"
 383              	.equ VALID_ID,1
 384              	.endif
 385              	
 386              	.ifdef __33FJ32MC204
MPLAB ASM30 Listing:  ../src/ff-pic24-30-33.s 			page 9


 387              	.include "p33FJ32MC204.inc"
 388              	.equ VALID_ID,1
 389              	.endif
 390              	
 391              	.ifdef __33FJ32MC302
 392              	.include "p33FJ32MC302.inc"
 393              	.equ VALID_ID,1
 394              	.endif
 395              	
 396              	.ifdef __33FJ32MC304
 397              	.include "p33FJ32MC304.inc"
 398              	.equ VALID_ID,1
 399              	.endif
 400              	
 401              	.ifdef __33FJ64GP202
 402              	.include "p33FJ64GP202.inc"
 403              	.equ VALID_ID,1
 404              	.endif
 405              	
 406              	.ifdef __33FJ64GP204
 407              	.include "p33FJ64GP204.inc"
 408              	.equ VALID_ID,1
 409              	.endif
 410              	
 411              	.ifdef __33FJ64GP206
 412              	.include "p33FJ64GP206.inc"
 413              	.equ VALID_ID,1
 414              	.endif
 415              	
 416              	.ifdef __33FJ64GP206A
 417              	.include "p33FJ64GP206A.inc"
 418              	.equ VALID_ID,1
 419              	.endif
 420              	
 421              	.ifdef __33FJ64GP306
 422              	.include "p33FJ64GP306.inc"
 423              	.equ VALID_ID,1
 424              	.endif
 425              	
 426              	.ifdef __33FJ64GP306A
 427              	.include "p33FJ64GP306A.inc"
 428              	.equ VALID_ID,1
 429              	.endif
 430              	
 431              	.ifdef __33FJ64GP310
 432              	.include "p33FJ64GP310.inc"
 433              	.equ VALID_ID,1
 434              	.endif
 435              	
 436              	.ifdef __33FJ64GP310A
 437              	.include "p33FJ64GP310A.inc"
 438              	.equ VALID_ID,1
 439              	.endif
 440              	
 441              	.ifdef __33FJ64GP706
 442              	.include "p33FJ64GP706.inc"
 443              	.equ VALID_ID,1
MPLAB ASM30 Listing:  ../src/ff-pic24-30-33.s 			page 10


 444              	.endif
 445              	
 446              	.ifdef __33FJ64GP706A
 447              	.include "p33FJ64GP706A.inc"
 448              	.equ VALID_ID,1
 449              	.endif
 450              	
 451              	.ifdef __33FJ64GP708
 452              	.include "p33FJ64GP708.inc"
 453              	.equ VALID_ID,1
 454              	.endif
 455              	
 456              	.ifdef __33FJ64GP708A
 457              	.include "p33FJ64GP708A.inc"
 458              	.equ VALID_ID,1
 459              	.endif
 460              	
 461              	.ifdef __33FJ64GP710
 462              	.include "p33FJ64GP710.inc"
 463              	.equ VALID_ID,1
 464              	.endif
 465              	
 466              	.ifdef __33FJ64GP710A
 467              	.include "p33FJ64GP710A.inc"
 468              	.equ VALID_ID,1
 469              	.endif
 470              	
 471              	.ifdef __33FJ64GP802
 472              	.include "p33FJ64GP802.inc"
 473              	.equ VALID_ID,1
 474              	.endif
 475              	
 476              	.ifdef __33FJ64GP804
 477              	.include "p33FJ64GP804.inc"
 478              	.equ VALID_ID,1
 479              	.endif
 480              	
 481              	.ifdef __33FJ64GS406
 482              	.include "p33FJ64GS406.inc"
 483              	.equ VALID_ID,1
 484              	.endif
 485              	
 486              	.ifdef __33FJ64GS606
 487              	.include "p33FJ64GS606.inc"
 488              	.equ VALID_ID,1
 489              	.endif
 490              	
 491              	.ifdef __33FJ64GS608
 492              	.include "p33FJ64GS608.inc"
 493              	.equ VALID_ID,1
 494              	.endif
 495              	
 496              	.ifdef __33FJ64GS610
 497              	.include "p33FJ64GS610.inc"
 498              	.equ VALID_ID,1
 499              	.endif
 500              	
MPLAB ASM30 Listing:  ../src/ff-pic24-30-33.s 			page 11


 501              	.ifdef __33FJ64MC202
 502              	.include "p33FJ64MC202.inc"
 503              	.equ VALID_ID,1
 504              	.endif
 505              	
 506              	.ifdef __33FJ64MC204
 507              	.include "p33FJ64MC204.inc"
 508              	.equ VALID_ID,1
 509              	.endif
 510              	
 511              	.ifdef __33FJ64MC506
 512              	.include "p33FJ64MC506.inc"
 513              	.equ VALID_ID,1
 514              	.endif
 515              	
 516              	.ifdef __33FJ64MC506A
 517              	.include "p33FJ64MC506A.inc"
 518              	.equ VALID_ID,1
 519              	.endif
 520              	
 521              	.ifdef __33FJ64MC508
 522              	.include "p33FJ64MC508.inc"
 523              	.equ VALID_ID,1
 524              	.endif
 525              	
 526              	.ifdef __33FJ64MC508A
 527              	.include "p33FJ64MC508A.inc"
 528              	.equ VALID_ID,1
 529              	.endif
 530              	
 531              	.ifdef __33FJ64MC510
 532              	.include "p33FJ64MC510.inc"
 533              	.equ VALID_ID,1
 534              	.endif
 535              	
 536              	.ifdef __33FJ64MC510A
 537              	.include "p33FJ64MC510A.inc"
 538              	.equ VALID_ID,1
 539              	.endif
 540              	
 541              	.ifdef __33FJ64MC706
 542              	.include "p33FJ64MC706.inc"
 543              	.equ VALID_ID,1
 544              	.endif
 545              	
 546              	.ifdef __33FJ64MC706A
 547              	.include "p33FJ64MC706A.inc"
 548              	.equ VALID_ID,1
 549              	.endif
 550              	
 551              	.ifdef __33FJ64MC710
 552              	.include "p33FJ64MC710.inc"
 553              	.equ VALID_ID,1
 554              	.endif
 555              	
 556              	.ifdef __33FJ64MC710A
 557              	.include "p33FJ64MC710A.inc"
MPLAB ASM30 Listing:  ../src/ff-pic24-30-33.s 			page 12


 558              	.equ VALID_ID,1
 559              	.endif
 560              	
 561              	.ifdef __33FJ64MC802
 562              	.include "p33FJ64MC802.inc"
 563              	.equ VALID_ID,1
 564              	.endif
 565              	
 566              	.ifdef __33FJ64MC804
 567              	.include "p33FJ64MC804.inc"
 568              	.equ VALID_ID,1
 569              	.endif
 570              	
 571              	.ifndef VALID_ID
 572              	.error "processor ID not specified in generic include file"
 573              	.endif
  33              	  .include "p33_config.inc"
   1              	;;; FlashForth device configuration for the dsPIC33
   2              	;;; PITO chanegs for my board
   3              	
   4              	;;; Device memory sizes. Set according to your device.
   5              	;;; You can increase the addressable flash range be decreasing the addressable ram.
   6              	;;; Below is the setting for max amount of ram for dsPIC33FJ128GP802
   7              	.equ FLASH_SIZE,     0x15800 ; Flash size in bytes without the high byte
   8              	                             ; See program memory size in the device datasheet.
   9              	.equ RAM_SIZE,       0x4000  ; Ram size in bytes
  10              	
  11              	.ifndecl IOL1WAY_OFF
  12              	.equ IOL1WAY_OFF, 0xffff
  13              	.endif
  14              	
  15              	;config __FOSCSEL, IESO_ON & FNOSC_FRC
  16              	config __FOSCSEL, IESO_ON & FNOSC_FRCPLL
  16              	> .pushsection __FOSCSEL.sec,code
  16              	> 
  16              	> .global __FOSCSEL
  16              	> __FOSCSEL:.pword IESO_ON&FNOSC_FRCPLL
  16 000000  F9 FF 00 	> .pword IESO_ON&FNOSC_FRCPLL
  16              	> .popsection
  16              	> 
  17              	;config __FOSCSEL, IESO_ON & FNOSC_PRI
  18              	;config __FOSC, FCKSM_CSECMD & IOL1WAY_OFF & OSCIOFNC_OFF & POSCMD_HS
  19              	config __FOSC, FCKSM_CSECMD & IOL1WAY_OFF & OSCIOFNC_OFF & POSCMD_NONE
  19              	> .pushsection __FOSC.sec,code
  19              	> 
  19              	> .global __FOSC
  19              	> __FOSC:.pword FCKSM_CSECMD&IOL1WAY_OFF&OSCIOFNC_OFF&POSCMD_NONE
  19 000000  5F FF 00 	> .pword FCKSM_CSECMD&IOL1WAY_OFF&OSCIOFNC_OFF&POSCMD_NONE
  19              	> .popsection
  19              	> 
  20              	;config FWDT,
  21              	;config FPOR,
  22              	
  23              	;.equ PLL_DIV, 43   ; 43=Fcy=39.613.750 22=Fcy=20.267.500, 30=Fcy is 27637 KHz
  24              	.equ PLL_DIV, 43              ; Fcy is 27637 KHz (FRC_PLL)
  25              	.equ PLL_FBD, PLL_DIV-2
  26              	.equ PLL_POST, 2              ; Do not change
MPLAB ASM30 Listing:  ../src/ff-pic24-30-33.s 			page 13


  27              	.equ PLL_PRE, 2               ; Do not change
  28              	.equ FREQ_FIN, 7370000        ; PLL input frequency.
  29              	.equ FREQ_OSC, ( FREQ_FIN*PLL_DIV/PLL_PRE/PLL_POST )  ; PLL output frequency. Used with FRCPLL
  30              	
  31              	;.equ  FREQ_OSC, 7370000        ; Used with FNOSC_FRC POSCMD_NONE
  32              	;.equ  FREQ_OSC, 16000000       ; Used with FNOSC_PRI POSCMD_HS/XT and external XTAL
  33              	
  34              	;;; UART1 configuration
  35              	.equ BAUDRATE1, 115200 				      ; Serial baudrate UART1. OPERATOR UART -> mandatory
  36              	.equ FC1_TYPE, 1                          ; 1 = XON/XOFF, 2=CTS/RTS
  37              	.equ AUTOBAUD1, 0                         ; 0 = to use fixed baudrate
  38              	                                          ; 1 = Autobaud, First char after reset must be 'U' (0x55)
  39              	
  40              	;;; UART2 configuration
  41              	;.equ BAUDRATE2, 38400 				      ; Serial baudrate UART2, comment if not used
  42              	.equ FC2_TYPE, 1                          ; 1 = XON/XOFF, 2=CTS/RTS
  43              	.equ AUTOBAUD2, 0                         ; 0 = to use fixed baudrate
  44              	                                          ; 1 = Autobaud, First char after reset must be 'U' (0x55)
  45              	
  46              	; Map UART1 pins OM1ZZ board
  47              	.ifdecl RPINR18
  48              	.equ U1RXPIN, 0xb          ; was 0xf
  49              	.equ RPINR18VAL, 0x000b    ; (U1RXPIN)was 0xf
  50              	.equ U1TXPIN, 0xa          ; was 0xe
  51              	;.equ U1RTSPORT, LATB
  52              	;.equ U1RTSTRIS, TRISB
  53              	;.equ U1RTSPIN, 0xc
  54              	.endif
  55              	
  56              	; Map UART2 pins
  57              	.ifdecl BAUDRATE2
  58              	.ifdecl RPINR19
  59              	.equ U2RXPIN, 0x1          ; 
  60              	.equ RPINR19VAL, 0x0001    ; (U2RXPIN)
  61              	.equ U2TXPIN, 0x2
  62              	.equ U2RTSPORT, LATB
  63              	.equ U2RTSTRIS, TRISB
  64              	.equ U2RTSPIN, 0x3
  65              	.endif
  66              	.endif
  67              	
  68              	; Default number base
  69              	.equ BASE_DEFAULT, 10      ; 16 = hexadecimal, 10 = decimal
  70              	
  71              	; Set to 1 for power save when CPU is idle
  72              	.equ IDLE_MODE, 1
  73              	
  74              	; Set to 1 for CPU load measurement
  75              	.equ CPU_LOAD, 1
  76              	
  77              	; CPU load indicator led definitions
  78              	.equ CPU_LOAD_LED, 0       ; set to 0 to disable
  79              	.equ CPU_LOAD_TRIS, TRISB
  80              	.equ CPU_LOAD_PORT, PORTB
  81              	.equ CPU_LOAD_BIT, 8
  82              	.equ CPU_LOAD_LED_POLARITY, 0   ; 0 = low on port turns on led, 1 = high on port turns on led 
  83              	
MPLAB ASM30 Listing:  ../src/ff-pic24-30-33.s 			page 14


  84              	; Define the startup delay for turnkey words. Milliseconds
  85              	.equ TURNKEY_DELAY, 2000  ; milliseconds
  86              	
  87              	; UART buffer sizes
  88              	.equ TX1_BUF_SIZE, 64  ; Use 0 for unbuffered TX.
  89              	.equ RX1_BUF_SIZE, 128  ; ##PITO was 16
  90              	.equ RX1_OFF_FILL, 32   ; Fill level for XOFF
  91              	
  92              	.equ TX2_BUF_SIZE, 16  ; Use 0 for unbuffered TX.
  93              	.equ RX2_BUF_SIZE, 32
  94              	.equ RX2_OFF_FILL, 8   ; Fill level for XOFF
  95              	
  96              	;;; USER AREA sizes for the OPERATOR task
  97              	.equ RETURN_STACK_SIZE, 96           ; 48 cells return stack
  98              	.equ PARAMETER_STACK_SIZE, 96        ; 48 cells parameter stack
  99              	.equ TIB_SIZE, 128                    ; 74 chars tib size
 100              	.equ HOLD_SIZE, 10                   ; 10 chars hold area
 101              	
 102              	;;; Storage space for OPERATOR uservariables 2 and upwards
 103              	;;; EXAMPLE: 8 user myUserVar  -> define UADDSIZE 8
 104              	.equ UADDSIZE, 0
 105              	
 106              	; Set to 1 for extra debug info after an exception reset
 107              	.equ DEBUG_INFO, 0
 108              	
 109              	; Set to 1 to see when FF writes to flash and eeprom
 110              	; 'F' is printed before each flash write.
 111              	; 'E' is printed before each eeprom write
 112              	.equ DEBUG_FLASH, 0
 113              	
 114              	; Include the example for calling a C function. C4+,  C4add.c
 115              	.equ C_EXAMPLE, 1
 116              	
 117              	; Set to 1 to allow control-o to reset FlashForth
 118              	.equ CTRL_O_WARM_RESET, 1
 119              	
 120              	;;; Memory mapping prefixes
 121              	.equ PFLASH,         0x800+RAM_SIZE
 122              	.equ HI_TEMP,        PFLASH+FLASH_SIZE
 123              	.if HI_TEMP > 0xffff
 124              	.equ FLASH_HI,       (0xffff)
 125              	.else
 126              	.equ FLASH_HI,       (HI_TEMP-1)
 127              	.endif
 128              	
 129              	;;; Flash memory commands. Do not modify.
 130              	.equ FLASH_ERASE,    0x4042  ; Memory page erase
 131              	.equ FLASH_WRITE,    0x4001  ; Memory row write
 132              	.equ FLASH_WRITE_SINGLE, 0x4003;Memory word program
 133              	.equ PAIVT,          0x0100
 134              	.equ IBUFSIZEL,      0x0400
 135              	.equ IBUFSIZEH,      0x0200
 136              	.equ IBUFLEN1,       0x0040   ; Inner write loop
 137              	.equ IBUFLEN2,       0x0008   ; Outer write loop
 138              	.equ IBUFMASK,       0xfc00
 139              	
 140              	
MPLAB ASM30 Listing:  ../src/ff-pic24-30-33.s 			page 15


 141              	.equ FCY, (FREQ_OSC/2)
 142              	.equ MS_PR_VAL, ((FCY/1000)-1)			      ; Timer value for 1 ms ticks
 143              	.equ BAUD_DIV1, (FCY/4/BAUDRATE1)-1		  ; UART1 divisor
 144              	.ifdecl BAUDRATE2
 145              	.equ BAUD_DIV2, (FCY/4/BAUDRATE2)-1		  ; UART2 divisor
 146              	.endif
 147              	.equ write_delay, 20                      ; Flash write delay
 148              	
  34              	.endif  
  35              	 
  36              	.ifdecl    __PIC24H  
  37              	  .include "p24Hxxxx.inc"  
  38              	  .include "p24hj_config.inc"
  39              	.endif  
  40              	 
  41              	.ifdecl    __PIC24FK  
  42              	  .include "p24Fxxxx.inc"
  43              	  .include "p24f16ka_config.inc"
  44              	.endif  
  45              	 
  46              	.ifdecl    __PIC24FJ
  47              	  .include "p24Fxxxx.inc"  
  48              	  .include "p24fj_config.inc"
  49              	.endif  
  50              	
  51              	.ifdecl    __PIC24F
  52              	  .include "p24Fxxxx.inc"  
  53              	  .include "p24f_config.inc"
  54              	.endif  
  55              	
  56              	.ifdecl    __dsPIC30F  
  57              	  .include "p30Fxxxx.inc"  
  58              	  .include "p30f_config.inc"
  59              	.endif
  60              	
  32              	
  33              	; Macro for inline literals 
  34              	.macro mlit lval
  35              	        mov     #\lval, w0
  36              	        mov     w0, [++w14]
  37              	.endm
  38              	;..............................................................................
  39              	;Global Declarations:
  40              	;..............................................................................
  41              	.global __reset
  42              	.global __T1Interrupt
  43              	.global __U1TXInterrupt
  44              	.global __U1RXInterrupt
  45              	.global __U2TXInterrupt
  46              	.global __U2RXInterrupt
  47              	.global __OscillatorFail
  48              	.global __AddressError
  49              	.global __StackError
  50              	.global __MathError
  51              	.ifdecl INTTREG
  52              	.global __DefaultInterrupt
  53              	.endif
MPLAB ASM30 Listing:  ../src/ff-pic24-30-33.s 			page 16


  54              	;..............................................................................
  55              	;Program Specific Constants (literals used in code)
  56              	;..............................................................................
  57              	.equ NFA, 0x80      ; Name field mask
  58              	.equ IMMED, 0x40    ; Immediate mask
  59              	.equ INLINE, 0x20   ; Inline mask
  60              	.equ COMPILE, 0x10  ; Compile only mask
  61              	.equ NFL, 0x0f      ; Name field length mask
  62              	
  63              	; flags
  64              	.equ BUSYIDLE_MASK, 0xc000
  65              	.equ fBUSY,   15  ; 0=IDLE, 1=BUSY
  66              	.equ fIDLE,   14  ; 0=IDLE, 1=BUSY
  67              	.equ edirty,  12  ; eeprom status dirty
  68              	.equ fFC2,    11  ; Flow control for UART2
  69              	.equ ixoff2,  10  ; XON/XOFF flag for UART2
  70              	.equ fLOCK,   9   ; Disable writes to flash and eeprom
  71              	.equ tailcall,8   ; Disable tailcall optimisation
  72              	.equ noclear, 6   ; dont clear optimisation flags 
  73              	.equ idup,    5   ; Use dupzeroequal instead of zeroequal
  74              	.equ izeroeq, 4   ; Use bnz instead of bz if zeroequal
  75              	.equ istream, 3
  76              	.equ fFC1,    2   ; 0=FC, 1 = noFC for UART1
  77              	.equ ixoff1,  1   ; XON/XOFF flag for UART1
  78              	.equ idirty,  0
  79              	
  80              	
  81              	;;; For Flow Control
  82              	.equ XON,   0x11
  83              	.equ XOFF,  0x13
  84              	
  85              	
  86              	.equ IVECSIZE, 64
  87              	
  88              	;;; USER AREA sizes for the OPERATOR task
  89              	
  90              	;;; User variables and area
  91              	.equ us0,          - 32         ; Start of parameter stack
  92              	.equ ur0,          - 30         ; Start of return stack
  93              	.equ uemit,        - 28         ; User EMIT vector
  94              	.equ ukey,         - 26         ; User KEY vector
  95              	.equ ukeyq,        - 24         ; User KEY? vector
  96              	.equ ulink,        - 22         ; Task link
  97              	.equ ubase,        - 20         ; Number Base
  98              	.equ utib,         - 18         ; TIB address
  99              	.equ utask,        - 16         ; Task area pointer
 100              	.equ uflg,         - 14         ; ACCEPT. true = CR has been received
 101              	.equ ustatus,      - 13         ; IDLE / BUSY
 102              	.equ ursave,       - 12         ; Saved return stack pointer
 103              	.equ ussave,       - 10         ; Saved parameter stack pointer
 104              	.equ upsave,       - 8          ; Saved P pointer
 105              	.equ usource,      - 6          ; Two cells
 106              	.equ utoin,        - 2          ; Input stream
 107              	.equ uhp,            0          ; Hold pointer
 108              	.equ urbuf,        ustart-us0 + UADDSIZE + 2        ; return stack
 109              	.equ usbuf,        urbuf + RETURN_STACK_SIZE        ; Parameter stack
 110              	.equ usbuf0,       usbuf - 2
MPLAB ASM30 Listing:  ../src/ff-pic24-30-33.s 			page 17


 111              	.equ utibbuf,      usbuf + PARAMETER_STACK_SIZE ; Terminal Input buffer
 112              	
 113              	;;;  Initial USER area pointer (operator)
 114              	.equ u0,           ustart-us0
 115              	.equ uareasize,    -us0+RETURN_STACK_SIZE+PARAMETER_STACK_SIZE+TIB_SIZE+HOLD_SIZE+UADDSIZE+2
 116              	
 117              	;;; Start of free ram
 118              	.equ dpdata,       ustart+uareasize
 119              	
 120              	;;; Variables in EEPROM
 121              	.ifdef PEEPROM
 122              	.equ eeprom,       PEEPROM
 123              	.equ dp_start,     eeprom + 0x0000 ; TURNKEY
 124              	.equ dp_ram,       eeprom + 0x0002 ; FLASH dictionary pointer
 125              	.equ dp_eeprom,    eeprom + 0x0004 ; EEPROM dictionary pointer
 126              	.equ dp_flash,     eeprom + 0x0006 ; RAM dictionary pointer
 127              	.equ latest,       eeprom + 0x0008 ; Pointer to latest dictionary word
 128              	.equ dpeeprom,     eeprom + 0x000a
 129              	.else
 130              	
 131              	.endif
 132              	;****************************************************
 133              	.bss
 134 0000 00 00 00 00 	ibufl:      .space IBUFSIZEL
 134      00 00 00 00 
 134      00 00 00 00 
 134      00 00 00 00 
 134      00 00 00 00 
 134      00 00 00 00 
 134      00 00 00 00 
 134      00 00 00 00 
 134      00 00 00 00 
 135 0400 00 00 00 00 	ibufh:      .space IBUFSIZEH
 135      00 00 00 00 
 135      00 00 00 00 
 135      00 00 00 00 
 135      00 00 00 00 
 135      00 00 00 00 
 135      00 00 00 00 
 135      00 00 00 00 
 135      00 00 00 00 
 136                 	
 137 0600 00 00       	intcon1dbg:  .space 2
 138                 	
 139                 	.if TX1_BUF_SIZE > 0
 140                 	txqueue1:
 141 0602 00 00       	tbuf_len1:   .space 2
 142 0604 00 00       	tbuf_wr1:    .space 2
 143 0606 00 00       	tbuf_rd1:    .space 2
 144 0608 00 00       	tbuf_lv1:    .space 2
 145 060a 00 00 00 00 	tbuf1:       .space TX1_BUF_SIZE
 145      00 00 00 00 
 145      00 00 00 00 
 145      00 00 00 00 
 145      00 00 00 00 
 145      00 00 00 00 
 145      00 00 00 00 
MPLAB ASM30 Listing:  ../src/ff-pic24-30-33.s 			page 18


 145      00 00 00 00 
 145      00 00 00 00 
 146                 	.endif
 147                 	
 148                 	rxqueue1:
 149 064a 00 00       	rbuf_len1:   .space 2
 150 064c 00 00       	rbuf_wr1:    .space 2
 151 064e 00 00       	rbuf_rd1:    .space 2
 152 0650 00 00       	rbuf_lv1:    .space 2
 153 0652 00 00 00 00 	rbuf1:       .space RX1_BUF_SIZE
 153      00 00 00 00 
 153      00 00 00 00 
 153      00 00 00 00 
 153      00 00 00 00 
 153      00 00 00 00 
 153      00 00 00 00 
 153      00 00 00 00 
 153      00 00 00 00 
 154                 	
 155                 	.ifdecl BAUDRATE2
 156                 	.ifdecl _U2RXREG
 157                 	.if TX2_BUF_SIZE > 0
 158                 	txqueue2:
 159                 	tbuf_len2:   .space 2
 160                 	tbuf_wr2:    .space 2
 161                 	tbuf_rd2:    .space 2
 162                 	tbuf_lv2:    .space 2
 163                 	tbuf2:       .space TX2_BUF_SIZE
 164                 	.endif
 165                 	rxqueue2:
 166                 	rbuf_len2:   .space 2
 167                 	rbuf_wr2:    .space 2
 168                 	rbuf_rd2:    .space 2
 169                 	rbuf_lv2:    .space 2
 170                 	rbuf2:       .space RX2_BUF_SIZE
 171                 	.endif
 172                 	.endif
 173                 	
 174 06d2 00 00       	temp:       .space 2
 175 06d4 00 00       	ibase:      .space 2
 176 06d6 00 00       	iaddr:      .space 2
 177 06d8 00 00       	iflags:     .space 2
 178 06da 00 00       	status:     .space 2        ; 0 = allow CPU idle 
 179 06dc 00 00       	load:       .space 2
 180 06de 00 00 00 00 	load_acc:   .space 4
 181                 	
 182 06e2 00 00       	ms_count:   .space 2
 183                 	
 184 06e4 00 00       	dpSTART:    .space 2
 185                 	.ifdef PEEPROM
 186                 	dpRAM:      .space 2
 187                 	dpEEPROM:   .space 2
 188                 	dpFLASH:    .space 2 ; DP's and LATEST in RAM
 189                 	dpLATEST:   .space 2
 190                 	dpSAVE:     .space 10
 191                 	.equ MARKER_LENGTH, 5
 192                 	.else
MPLAB ASM30 Listing:  ../src/ff-pic24-30-33.s 			page 19


 193 06e6 00 00       	dpRAM:      .space 2
 194 06e8 00 00       	dpLATEST:   .space 2
 195 06ea 00 00       	dpFLASH:    .space 2 ; DP's and LATEST in RAM
 196 06ec 00 00 00 00 	dpSAVE:     .space 8
 196      00 00 00 00 
 197                 	.equ MARKER_LENGTH, 4
 198                 	.endif
 199                 	
 200                 	.ifdecl INTTREG
 201 06f4 00 00 00 00 	IVECTAB:    .space IVECSIZE*2 ; space for 64 interrupt vectors
 201      00 00 00 00 
 201      00 00 00 00 
 201      00 00 00 00 
 201      00 00 00 00 
 201      00 00 00 00 
 201      00 00 00 00 
 201      00 00 00 00 
 201      00 00 00 00 
 202                 	.endif
 203                 	
 204 0774 00 00       	cse:        .space 2 ; Current data section 0=flash, 1=eeprom, 2=ram
 205 0776 00 00       	prompt:     .space 2
 206 0778 00 00       	state:      .space 2 ; Compilation state
 207 077a 00 00       	upcurr:     .space 2 ; Current USER area pointer
 208 077c 00 00 00 00 	ustart:     .space uareasize ; The operator user area
 208      00 00 00 00 
 208      00 00 00 00 
 208      00 00 00 00 
 208      00 00 00 00 
 208      00 00 00 00 
 208      00 00 00 00 
 208      00 00 00 00 
 208      00 00 00 00 
 209                 	
 210                 	; Start of code !
 211                 	.text
 212              	;;; *************************************
 213              	;;; COLD dictionary data
 214              	COLDLIT:
 215 000000  00 00 00 	STARTV: .word      0
 216              	.ifdef PEEPROM
 217              	DPD:    .word      dpdata
 218              	DPE:    .word      dpeeprom
 219              	DPC:    .word      handle(KERNEL_END)+PFLASH
 220              	LW:     .word      handle(lastword)+PFLASH
 221              	.equ coldlitsize, 5
 222              	.else
 223 000002  00 00 00 	DPD:    .word      dpdata
 224 000004  00 48 00 	LW:     .word      handle(lastword)+PFLASH
 225 000006  00 48 00 	DPC:    .word      handle(KERNEL_END)+PFLASH
 226              	.equ coldlitsize, 4
 227              	.endif
 228              	;;; *************************************************
 229              	;;; WARM user area data
 230              	.equ warmlitsize, 14
 231              	WARMLIT:
 232 000008  00 00 00 	        .word      0x0000                ; CSE RAM
MPLAB ASM30 Listing:  ../src/ff-pic24-30-33.s 			page 20


 233 00000a  00 48 00 	        .word      handle(DOTSTATUS)+PFLASH
 234 00000c  00 00 00 	        .word      0x0000                ; STATE
 235 00000e  00 00 00 	        .word      u0                    ; UP
 236 000010  00 00 00 	        .word      usbuf0                ; S0, First user variable
 237 000012  00 00 00 	        .word      urbuf                 ; R0
 238 000014  00 48 00 	        .word      handle(TX1)+PFLASH
 239 000016  00 48 00 	        .word      handle(RX1)+PFLASH
 240 000018  00 48 00 	        .word      handle(RX1Q)+PFLASH
 241 00001a  00 00 00 	        .word      u0                    ; ULINK
 242 00001c  0A 00 00 	        .word      BASE_DEFAULT          ; BASE
 243 00001e  00 00 00 	        .word      utibbuf               ; TIB
 244 000020  00 48 00 	        .word      handle(OPERATOR_AREA)+PFLASH ; TASK
 245 000022  00 00 00 	        .word      0x0000
 246              	;;; *************************************************
 247              	__OscillatorFail:
 248              	;        clr     intcon1dbg
 249              	;        reset
 250              	__AddressError:
 251              	__StackError:
 252              	__MathError:
 253 000024  00 00 80 	        mov     INTCON1, W0
 254 000026  00 00 88 	        mov     W0, intcon1dbg
 255 000028  00 00 FE 	        reset
 256              	
 257              	__T1Interrupt:
 258              	; No nested interrupts, T1 interrupt must the first interrupt to be enabled
 259 00002a  01 E0 A8 	        bset    INTCON1, #NSTDIS
 260 00002c  00 60 A9 	        bclr    IFS0, #T1IF
 261 00002e  E2 26 EC 	        inc     ms_count
 262              	
 263              	.if IDLE_MODE == 1
 264              	.if CPU_LOAD == 1        
 265 000030  00 A0 FE 	        push.s
 266 000032  00 00 80 	        mov     TMR3, W0
 267 000034  00 20 EF 	        clr     TMR3
 268              	        
 269 000036  DE 26 B4 	        add     load_acc
 270 000038  00 00 EB 	        clr     W0
 271 00003a  E0 A6 B4 	        addc    load_acc+2
 272              	        
 273 00003c  E2 46 E2 	        cp0.b   ms_count
 274 00003e  00 00 3A 	        bra     nz, RETFIE_T1_0
 275              	        
 276 000040  02 18 23 	        mov     #FCY/3126, W2
 277 000042  11 00 80 	        mov     load_acc+2, W1
 278 000044  00 00 80 	        mov     load_acc, W0
 279 000046  DE 26 EF 	        clr     load_acc
 280 000048  E0 26 EF 	        clr     load_acc+2
 281 00004a  11 00 09 	        repeat  #17
 282 00004c  42 88 D8 	        div.ud  W0, W2
 283 00004e  00 00 88 	        mov     W0, load
 284              	RETFIE_T1_0:
 285 000050  00 80 FE 	        pop.s
 286              	.endif
 287              	.endif
 288 000052  00 40 06 	        retfie
 289              	
MPLAB ASM30 Listing:  ../src/ff-pic24-30-33.s 			page 21


 290              	__U1RXInterrupt:
 291 000054  00 A0 FE 	        push.s
 292              	.ifdef PEEPROM
 293              	        push    TBLPAG
 294              	.endif
 295 000056  0E 87 E8 	        inc2    W14, W14
 296              	__U1RXInterrupt0:
 297 000058  01 60 A9 	        bclr    IFS0, #U1RXIF
 298 00005a  D8 66 A8 	        bset    iflags, #istream      ; Indicate UART activity.
 299 00005c  4A 86 BF 	        mov     rbuf_len1, WREG
 300 00005e  50 06 B5 	        sub     rbuf_lv1, WREG        ; level - len
 301 000060  00 00 3B 	        bra     nn, U1RX_ERR1         ; Queue full ?
 302 000062  00 20 A9 	        bclr    U1STA, #OERR
 303 000064  00 00 80 	        mov     U1RXREG, W0
 304              	.if (CTRL_O_WARM_RESET == 1)
 305 000066  6F 00 E1 	        cp      W0, #15
 306 000068  00 00 32 	        bra     z, RESET_FF_1
 307              	.endif
 308              	
 309              	.if FC1_TYPE == 1
 310 00006a  D8 46 AF 	        btsc    iflags, #fFC1
 311 00006c  00 00 37 	        bra     U1_SKIP_FC_1
 312 00006e  73 00 E1 	        cp      W0, #XOFF
 313 000070  00 00 32 	        bra     z, __U1RXInterrupt3
 314              	.endif
 315              	U1_SKIP_FC_1:
 316 000072  00 2F 78 	        mov     W0, [++W14]
 317              	        mlit    handle(U1RXQUEUE_DATA)+PFLASH
 317 000074  00 80 24 	> mov #handle(U1RXQUEUE_DATA)+PFLASH,w0
 317 000076  00 2F 78 	> mov w0,[++w14]
 318 000078  00 00 07 	        rcall   CQUEUE_TO
 319              	        
 320 00007a  D8 46 AF 	        btsc    iflags, #fFC1
 321 00007c  00 00 37 	        bra     U1_SKIP_FC_2
 322 00007e  00 02 20 	        mov     #RX1_OFF_FILL, W0
 323 000080  50 06 E3 	        cp      rbuf_lv1            ; rbuf_lvl - #RX1_OFF_FILL
 324 000082  00 00 33 	        bra     n, __U1RXInterrupt3
 325              	.if FC1_TYPE == 1
 326              	__U1RXInterrupt2:
 327 000084  D8 26 AF 	        btsc    iflags, #ixoff1
 328 000086  00 00 37 	        bra     U1_SKIP_FC_2
 329 000088  30 01 20 	        mov     #XOFF, W0
 330 00008a  00 00 88 	        mov     W0, U1TXREG
 331 00008c  D8 26 A8 	        bset    iflags, #ixoff1
 332              	.else
 333              	.if  FC1_TYPE == 2
 334              	        bset    U1RTSPORT, #U1RTSPIN
 335              	.endif
 336              	.endif
 337              	U1_SKIP_FC_2:
 338              	
 339              	__U1RXInterrupt3:
 340 00008e  00 00 AF 	        btsc    U1STA, #URXDA
 341 000090  00 00 37 	        bra     __U1RXInterrupt0
 342              	__U1RXTXIRQ_END:
 343 000092  62 07 57 	        sub     W14, #2, W14
 344              	.ifdef PEEPROM
MPLAB ASM30 Listing:  ../src/ff-pic24-30-33.s 			page 22


 345              	        pop     TBLPAG
 346              	.endif
 347              	ALT_INT_EXIT:
 348 000094  00 80 FE 	        pop.s
 349 000096  00 40 06 	        retfie
 350              	
 351              	U1RX_ERR1:
 352 000098  01 00 AE 	        btss    U1STA, #TRMT
 353 00009a  00 00 37 	        bra     U1RX_ERR1
 354 00009c  00 00 80 	        mov     U1RXREG, W0
 355 00009e  C0 07 20 	        mov     #'|', W0
 356 0000a0  00 00 88 	        mov     W0, U1TXREG
 357 0000a2  00 00 37 	        bra     __U1RXInterrupt3
 358              	
 359              	.if TX1_BUF_SIZE > 0
 360              	__U1TXInterrupt:
 361 0000a4  00 A0 FE 	        push.s
 362              	.ifdef PEEPROM
 363              	        push    TBLPAG
 364              	.endif
 365 0000a6  62 07 47 	        add     W14, #2, W14
 366 0000a8  01 80 A9 	        bclr    IFS0, #U1TXIF
 367              	__U1TXInterrupt0:
 368 0000aa  01 20 AF 	        btsc    U1STA, #UTXBF
 369 0000ac  00 00 37 	        bra     __U1RXTXIRQ_END
 370 0000ae  08 06 E2 	        cp0     tbuf_lv1
 371 0000b0  00 00 32 	        bra     z, __U1RXTXIRQ_END
 372              	        mlit    handle(U1TXQUEUE_DATA)+PFLASH
 372 0000b2  00 80 24 	> mov #handle(U1TXQUEUE_DATA)+PFLASH,w0
 372 0000b4  00 2F 78 	> mov w0,[++w14]
 373 0000b6  00 00 07 	        rcall   CQUEUE_FROM
 374 0000b8  2E 00 78 	        mov     [W14--], W0
 375 0000ba  00 00 88 	        mov     W0, U1TXREG
 376 0000bc  00 00 37 	        bra     __U1RXTXIRQ_END
 377              	.endif
 378              	
 379              	.ifdecl BAUDRATE2
 380              	.ifdecl _U2RXREG
 381              	__U2RXInterrupt:
 382              	        push.s
 383              	.ifdef PEEPROM
 384              	        push    TBLPAG
 385              	.endif
 386              	        inc2    W14, W14
 387              	__U2RXInterrupt0:
 388              	        bclr    IFS1, #U2RXIF
 389              	        bset    iflags, #istream      ; Indicate UART activity.
 390              	        mov     rbuf_len2, WREG
 391              	        sub     rbuf_lv2, WREG        ; level - len
 392              	        bra     nn, U2RX_ERR1         ; Queue full ?
 393              	        bclr    U2STA, #OERR
 394              	        mov     U2RXREG, W0
 395              	
 396              	.if (CTRL_O_WARM_RESET == 1)
 397              	        cp      W0, #15
 398              	        bra     z, RESET_FF_1
 399              	.endif
MPLAB ASM30 Listing:  ../src/ff-pic24-30-33.s 			page 23


 400              	
 401              	.if FC2_TYPE == 1
 402              	        btsc    iflags, #fFC2
 403              	        bra     U2_SKIP_FC_1
 404              	        cp      W0, #XOFF
 405              	        bra     z, __U2RXInterrupt3
 406              	.endif
 407              	U2_SKIP_FC_1:
 408              	        mov     W0, [++W14]
 409              	        mlit    handle(U2RXQUEUE_DATA)+PFLASH
 410              	        rcall   CQUEUE_TO
 411              	        
 412              	        btsc    iflags, #fFC2
 413              	        bra     U2_SKIP_FC_2
 414              	        mov     #RX2_OFF_FILL, W0
 415              	        cp      rbuf_lv2
 416              	        bra     n, __U2RXInterrupt3
 417              	.if FC2_TYPE == 1
 418              	__U2RXInterrupt2:
 419              	        btsc    iflags, #ixoff2
 420              	        bra     U2_SKIP_FC_2
 421              	        mov     #XOFF, W0
 422              	        mov     W0, U2TXREG
 423              	        bset    iflags, #ixoff2
 424              	.else
 425              	.if  FC2_TYPE == 2
 426              	        bset    U2RTSPORT, #U2RTSPIN
 427              	.endif
 428              	.endif
 429              	U2_SKIP_FC_2:
 430              	__U2RXInterrupt3:
 431              	        btsc    U2STA, #URXDA
 432              	        bra     __U2RXInterrupt0
 433              	__U2RXTXIRQ_END:
 434              	        bra     __U1RXTXIRQ_END
 435              	
 436              	U2RX_ERR1:
 437              	        btss    U2STA, #TRMT
 438              	        bra     U2RX_ERR1
 439              	        mov     U2RXREG, W0
 440              	        mov     #'|', W0
 441              	        mov     W0, U2TXREG
 442              	        bra     __U2RXInterrupt3
 443              	
 444              	.if TX2_BUF_SIZE > 0
 445              	__U2TXInterrupt:
 446              	        push.s
 447              	.ifdef PEEPROM
 448              	        push    TBLPAG
 449              	.endif
 450              	        add     W14, #2, W14
 451              	        bclr    IFS1, #U2TXIF
 452              	__U2TXInterrupt0:
 453              	        btsc    U2STA, #UTXBF
 454              	        bra     __U1RXTXIRQ_END
 455              	        cp0     tbuf_lv2
 456              	        bra     z, __U1RXTXIRQ_END
MPLAB ASM30 Listing:  ../src/ff-pic24-30-33.s 			page 24


 457              	        mlit    handle(U2TXQUEUE_DATA)+PFLASH
 458              	        rcall   CQUEUE_FROM
 459              	        mov     [W14--], W0
 460              	        mov     W0, U2TXREG
 461              	        bra     __U1RXTXIRQ_END
 462              	.endif
 463              	.endif
 464              	.endif
 465              	;*******************************************************************
 466              	.ifdecl INTTREG
 467              	__DefaultInterrupt:
 468 0000be  01 E0 AE 	        btss    INTCON2, #ALTIVT
 469 0000c0  00 00 37 	        bra     __AddressError
 470 0000c2  00 A0 FE 	        push.s                   ; Handle interrupt via lookup table
 471 0000c4  00 00 80 	        mov     INTTREG, W0
 472 0000c6  80 00 D0 	        sl      W0, W1
 473 0000c8  F1 0F B2 	        and     #0xff, W1
 474 0000ca  00 00 20 	        mov     #IVECTAB, W0
 475 0000cc  01 01 40 	        add     W0, W1, W2
 476 0000ce  12 00 78 	        mov     [W2], W0
 477 0000d0  00 40 01 	        goto    W0
 478              	.else
 479              	__DefaultInterrupt:
 480              	        bra     __AddressError
 481              	.endif
 482              	
 483              	
 484              	; *******************************************************************
 485              	; ibufmask = 0xffc0 or 0xfc00
 486              	; ibuflen  = 0x0040 or 0x0400 
 487              	iupdatebuf:
 488              	;if (ibase != (iaddr&0xffc0)) // ibufmask = 0xffc0 or fc00 
 489              	;   if (idirty)
 490              	;       writebuffer_to_imem
 491              	;   endif
 492              	;   fillbuffer_from_imem
 493              	;   ibase = iaddr&0xffc0
 494              	;endif
 495 0000d2  00 00 80 	        mov     iaddr, W0
 496 0000d4  01 C0 2F 	        mov     #IBUFMASK, W1
 497 0000d6  01 00 60 	        and     W0, W1, W0
 498 0000d8  D4 06 E3 	        cp      ibase
 499 0000da  00 00 3A 	        bra     nz, iupdatebuf0
 500 0000dc  00 00 06 	        return
 501              	
 502              	iupdatebuf0:
 503 0000de  00 00 07 	        rcall   IFLUSH
 504 0000e0  00 00 80 	        mov     iaddr, W0
 505 0000e2  01 C0 2F 	        mov     #IBUFMASK, W1
 506 0000e4  01 00 60 	        and     W0, W1, W0
 507 0000e6  00 00 88 	        mov     W0, ibase
 508              	fill_buffer_from_imem:
 509 0000e8  00 00 EB 	        clr     W0
 510 0000ea  00 00 07 	        rcall   wbti_init
 511              	fill_buffer_from_imem1:
 512 0000ec  03 04 20 	        mov.w   #IBUFLEN1, W3
 513              	fill_buffer_from_imem2:
MPLAB ASM30 Listing:  ../src/ff-pic24-30-33.s 			page 25


 514 0000ee  92 D8 BA 	        tblrdh.b [W2], [W1++]
 515 0000f0  32 18 BA 	        tblrdl   [W2++], [W0++]
 516 0000f2  83 01 E9 	        dec      W3, W3
 517 0000f4  00 00 3A 	        bra      nz, fill_buffer_from_imem2
 518 0000f6  04 02 E9 	        dec      W4, W4
 519 0000f8  00 00 3A 	        bra      nz, fill_buffer_from_imem1
 520 0000fa  00 00 06 	        return
 521              	
 522              	wait_silence:
 523 0000fc  00 00 07 	        rcall   LOCKED
 524              	.if FC1_TYPE == 1
 525 0000fe  01 20 AF 	        btsc    U1STA, #UTXBF
 526 000100  00 00 37 	        bra     wait_silence
 527 000102  32 01 20 	        mov     #XOFF, W2
 528 000104  02 00 88 	        mov     W2, U1TXREG
 529 000106  D8 26 A8 	        bset    iflags, #ixoff1
 530              	.else
 531              	.if FC1_TYPE == 2
 532              	        bset    U1RTSPORT, #U1RTSPIN
 533              	.endif
 534              	.endif
 535              	.if FC1_TYPE == 1
 536              	wbtil:
 537 000108  D8 66 A9 	        bclr    iflags, #istream
 538              	        ; The delay here should be 10 character times long
 539              	        ; times = Fcy/baud*40
 540 00010a  62 D6 20 	        mov     #(FCY/BAUDRATE1*10), W2     ;  This loop takes about 5 milliseconds @ 27 Mips
 541              	wbtil2: 
 542 00010c  D8 66 AF 	        btsc    iflags, #istream    ; Check for UART  activity.
 543 00010e  00 00 37 	        bra     wbtil               ; 5 cycles per round
 544 000110  02 01 E9 	        dec     W2, W2              ;
 545 000112  00 00 3A 	        bra     nz, wbtil2          ;
 546              	.endif
 547 000114  00 00 06 	        return
 548              	;***********************************************************
 549              	wbti_init:
 550 000116  00 00 88 	        mov.w   W0, NVMCON
 551 000118  00 00 20 	        mov.w   #ibufl, W0 ; Low word flash buffer in ram
 552 00011a  01 00 20 	        mov.w   #ibufh, W1 ; High byte buffer
 553 00011c  02 00 80 	        mov.w   ibase, W2
 554 00011e  84 00 20 	        mov.w   #IBUFLEN2, W4
 555              	.ifdef PEEPROM
 556              	        clr     TBLPAG
 557              	.endif
 558 000120  02 09 BB 	        tblwtl  W2, [W2]          ; Set page address
 559 000122  00 00 06 	        return
 560              	
 561              	write_buffer_to_imem:
 562              	;; Loop here until there are no more characters has been received for a while
 563              	;; from the UART.
 564              	;; The assumption is that the serial line is silent then.
 565 000124  00 00 07 	        rcall   wait_silence
 566              	.if DEBUG_FLASH == 1
 567              	        mov     #'F', W2
 568              	        mov     W2, U1TXREG
 569              	.endif
 570 000126  20 04 24 	        mov.w   #FLASH_ERASE, W0  ; #30F 0x4041,  24F 0x4058
MPLAB ASM30 Listing:  ../src/ff-pic24-30-33.s 			page 26


 571 000128  00 00 07 	        rcall   wbti_init
 572 00012a  00 00 07 	        rcall   EWENABLE0         ; Now the flash row has been erased.
 573              	
 574 00012c  10 00 24 	        mov.w   #FLASH_WRITE, W0  ;  30F 0x4001,  24F 0x4004
 575 00012e  00 00 07 	        rcall   wbti_init
 576              	wbtil3:
 577 000130  03 04 20 	        mov.w   #IBUFLEN1, W3
 578              	wbtil4:
 579 000132  31 C9 BB 	        tblwth.b  [W1++], [W2]
 580 000134  30 19 BB 	        tblwtl.w  [W0++], [W2++]
 581 000136  83 01 E9 	        dec     W3, W3
 582 000138  00 00 3A 	        bra     nz, wbtil4
 583 00013a  00 00 07 	        rcall   EWENABLE0   ; Now the flash row has been written.
 584 00013c  04 02 E9 	        dec     W4, W4
 585 00013e  00 00 3A 	        bra     nz, wbtil3  ; write more rows for big flashblocks
 586              	
 587 000140  00 00 EB 	        clr     W0
 588 000142  00 00 07 	        rcall   wbti_init
 589              	wbtil5:
 590 000144  03 04 20 	        mov.w   #IBUFLEN1, W3
 591              	wbtil6:
 592 000146  92 C2 BA 	        tblrdh.b  [W2], W5
 593 000148  31 2C E1 	        cp.b      W5, [W1++]
 594 00014a  00 00 3A 	        bra       nz, verify_imem_2
 595 00014c  B2 02 BA 	        tblrdl    [W2++], W5
 596 00014e  30 28 E1 	        cp        W5, [W0++]
 597 000150  00 00 3A 	        bra       nz, verify_imem_2
 598 000152  83 01 E9 	        dec       W3, W3
 599 000154  00 00 3A 	        bra       nz, wbtil6
 600 000156  04 02 E9 	        dec       W4, W4
 601 000158  00 00 3A 	        bra       nz, wbtil5
 602 00015a  D8 06 A9 	        bclr      iflags, #idirty
 603 00015c  D4 A6 EF 	        setm      ibase       ; Now the flash row has been verified
 604 00015e  00 00 06 	        return
 605              	
 606              	verify_imem_2:
 607 000160  00 00 FE 	        reset
 608              	
 609              	; LITERAL  x --           append numeric literal as inline code
 610 000162  00 00 00 	        .pword   0
 611              	LITERAL_L:
 612 000164  C7       	        .byte   NFA|IMMED|7
 613            6C 00 	        .ascii "literal"
 613 000166  69 74 00 
 613         65 72 00 
 613         61 6C 00 
 614              	        .align 2
 615              	LITERAL:
 616 00016c  2E 00 78 	        mov     [W14--], W0
 617 00016e  80 00 78 	        mov     W0, W1
 618 000170  44 00 DD 	        sl      W0, #4, W0
 619 000172  CC 08 DE 	        lsr     W1, #12, W1
 620 000174  01 02 B3 	        ior     #0x20, W1             ; mov  #literal , W0
 621 000176  00 2F 78 	        mov     W0, [++W14]           ; Lower 16 bit of the instruction
 622 000178  01 2F 78 	        mov     W1, [++W14]           ; High 8 bit of the instruction
 623 00017a  00 00 07 	        rcall   AS_COMMA              ; Special instruction to append
 624              	                                      ; assembly code
MPLAB ASM30 Listing:  ../src/ff-pic24-30-33.s 			page 27


 625              	; wBhh hddd dggg ssss 0010 1111 0000 0000
 626 00017c  00 F0 22 	        mov     #0x2f00, W0
 627              	; 0111 1www     0111 1000
 628 00017e  81 07 20 	        mov     #0x0078, W1       ; mov W0, [++W14]
 629 000180  00 2F 78 	        mov     W0, [++W14]
 630 000182  01 2F 78 	        mov     W1, [++W14]
 631 000184  00 00 07 	        rcall   AS_COMMA
 632 000186  00 00 06 	        return
 633              	
 634 000188  00 48 00 	        .pword   paddr(LITERAL_L)+PFLASH
 635              	TO_A_L:
 636 00018a  A2       	        .byte   NFA|INLINE|2
 637            3E 00 	        .ascii  ">a"
 637 00018c  61 
 638            00 00 	        .align 2
 639 00018e  AE 05 78 	        mov     [W14--], W11
 640 000190  00 00 06 	        return
 641              	
 642 000192  00 48 00 	        .pword   paddr(TO_A_L)+PFLASH
 643              	A_FROM_L:
 644 000194  A2       	        .byte   NFA|INLINE|2
 645            61 00 	        .ascii  "a>"
 645 000196  3E 
 646            00 00 	        .align 2
 647 000198  0B 2F 78 	        mov     W11, [++W14]
 648 00019a  00 00 06 	        return
 649              	
 650 00019c  00 48 00 	        .pword   paddr(A_FROM_L)+PFLASH
 651              	IDLE_L:
 652 00019e  84       	        .byte   NFA|4
 653            69 00 	        .ascii  "idle"
 653 0001a0  64 6C 00 
 653         65 
 654            00 00 	        .align 2
 655              	IDLE_:
 656 0001a4  D9 C6 A9 	        bclr     iflags, #fIDLE
 657 0001a6  00 00 06 	        return
 658              	        
 659 0001a8  00 48 00 	        .pword   paddr(IDLE_L)+PFLASH
 660              	BUSY_L:
 661 0001aa  84       	        .byte   NFA|4
 662            62 00 	        .ascii  "busy"
 662 0001ac  75 73 00 
 662         79 
 663            00 00 	        .align 2
 664              	BUSY_:
 665 0001b0  D9 C6 A8 	        bset     iflags, #fIDLE
 666 0001b2  00 00 06 	        return
 667              	        
 668 0001b4  00 48 00 	        .pword   paddr(BUSY_L)+PFLASH
 669              	LOAD_L:
 670 0001b6  84       	        .byte   NFA|4
 671            6C 00 	        .ascii  "load"
 671 0001b8  6F 61 00 
 671         64 
 672            00 00 	        .align 2
 673              	LOAD_:
MPLAB ASM30 Listing:  ../src/ff-pic24-30-33.s 			page 28


 674 0001bc  DC 86 BF 	        mov     load, WREG
 675 0001be  00 2F 78 	        mov     W0, [++W14]
 676 0001c0  00 00 06 	        return
 677              	        
 678              	;;;;;;;;;;;;;;;;;;;;;;;;;;;;;;;;;;;;;;;;;;;;;;;;;;;;;;;;;;;;;;;;;;;;;;;;;;;;;
 679 0001c2  00 48 00 	        .pword   paddr(LOAD_L)+PFLASH
 680              	COLD_L:
 681 0001c4  85       	        .byte   NFA|5
 682            65 00 	        .ascii  "empty"
 682 0001c6  6D 70 00 
 682         74 79 00 
 683              	        .align 2
 684              	COLD:
 685              	.ifdef PEEPROM
 686              	        mlit    handle(COLDLIT)+PFLASH
 687              	        mlit    dp_start
 688              	        mlit    coldlitsize
 689              	        rcall   WMOVE
 690              	        clr     intcon1dbg
 691              	.else
 692 0001ca  00 00 07 	        rcall   DP_COLD
 693 0001cc  00 00 07 	        rcall   DP_TO_RAM
 694              	.endif
 695 0001ce  00 00 06 	        return
 696              	;        bra     RESET_FF
 697              	
 698 0001d0  00 48 00 	        .pword   paddr(COLD_L)+PFLASH
 699              	WARM_L:
 700 0001d2  84       	        .byte   NFA|4
 701            77 00 	        .ascii  "warm"
 701 0001d4  61 72 00 
 701         6D 
 702            00 00 	        .align 2
 703              	WARM_:
 704 0001d8  00 00 07 	        rcall   IFLUSH
 705 0001da  00 00 07 	        rcall   DP_TO_EEPROM
 706              	RESET_FF:
 707              	        mlit    10
 707 0001dc  A0 00 20 	> mov #10,w0
 707 0001de  00 2F 78 	> mov w0,[++w14]
 708 0001e0  00 00 07 	        rcall   MS
 709              	RESET_FF_1:
 710 0001e2  00 00 FE 	        reset
 711              	
 712              	__reset:
 713              	WARM:
 714              	.ifdecl CLKDIV
 715 0001e4  00 20 EF 	        clr     CLKDIV   ; Use full FRC frequency
 716              	                         ; PLL PRE/POST scalers are 2.
 717              	.endif
 718 0001e6  0F 00 20 	        MOV     #urbuf, W15    ;Initalize RP
 719 0001e8  00 A0 EF 	        setm    SPLIM
 720              	        
 721 0001ea  00 00 EB 	        CLR     W0
 722 0001ec  00 07 78 	        MOV     W0, W14
 723 0001ee  0C 00 09 	        REPEAT  #12
 724 0001f0  00 2F 78 	        MOV     W0, [++W14]
MPLAB ASM30 Listing:  ../src/ff-pic24-30-33.s 			page 29


 725              	
 726 0001f2  00 00 EB 	        clr     W0              ; Fill operator return and parameter stacks with 0x00
 727 0001f4  2E 00 20 	        mov     #intcon1dbg+2, W14  ; Dont overwrite INTCONDBG
 728 0001f6  01 80 24 	        mov     #PFLASH, W1
 729              	FILL_RAM:
 730 0001f8  00 1F 78 	        mov.w   W0, [W14++]
 731 0001fa  01 70 E1 	        cp      W14, W1
 732 0001fc  00 00 3A 	        bra     nz, FILL_RAM
 733 0001fe  0E 00 20 	        mov     #usbuf0, W14
 734 000200  D4 A6 EF 	        setm    ibase
 735 000202  D8 26 EF 	        clr     iflags
 736              	.ifdecl INTTREG
 737 000204  00 00 20 	        mov     #IVECTAB, W0
 738 000206  01 04 20 	        mov     #IVECSIZE, W1
 739 000208  02 00 20 	        mov     #handle(__DefaultInterrupt), W2
 740              	WARM_FILL_IVEC:
 741 00020a  02 18 78 	        mov     W2, [W0++]
 742 00020c  81 00 E9 	        dec     W1, W1
 743 00020e  00 00 3A 	        bra     nz, WARM_FILL_IVEC
 744              	.endif
 745              	
 746 000210  00 A0 EF 	        setm    PMD1
 747 000212  00 A0 EF 	        setm    PMD2
 748              	.ifdecl PMD3
 749 000214  00 A0 EF 	        setm    PMD3
 750              	.endif
 751              	
 752              	WARM_0:
 753              	; Init the serial TX buffer
 754              	.if TX1_BUF_SIZE > 0
 755 000216  00 00 07 	        rcall   U1TXQUEUE
 756 000218  00 00 07 	        rcall   CQUEUEZ
 757              	.endif
 758              	; Init the serial RX buffer
 759 00021a  00 00 07 	        rcall   U1RXQUEUE
 760 00021c  00 00 07 	        rcall   CQUEUEZ
 761              	        
 762              	.ifdecl BAUDRATE2
 763              	.ifdecl _U2RXREG
 764              	; Init the serial TX buffer
 765              	.if TX2_BUF_SIZE > 0
 766              	        rcall   U2TXQUEUE
 767              	        rcall   CQUEUEZ
 768              	.endif
 769              	; Init the serial RX buffer
 770              	        rcall   U2RXQUEUE
 771              	        rcall   CQUEUEZ
 772              	.endif
 773              	.endif
 774              	
 775              	.ifndecl __dsPIC30F
 776 00021e  00 00 80 	        mov     OSCCON, W0
 777 000220  C8 80 DE 	        asr     W0, #8, W1
 778 000222  71 00 B2 	        and     #7, W1
 779 000224  61 80 50 	        sub     W1, #1, W0
 780 000226  00 00 32 	        bra     z, PLL_IN_USE
 781 000228  63 80 50 	        sub     W1, #3, W0
MPLAB ASM30 Listing:  ../src/ff-pic24-30-33.s 			page 30


 782 00022a  00 00 32 	        bra     z, PLL_IN_USE
 783 00022c  00 00 37 	        bra     PLL_NOT_IN_USE
 784              	
 785              	PLL_IN_USE:
 786              	.ifdecl PLLFBD
 787 00022e  90 02 20 	        mov     #PLL_FBD, W0
 788 000230  00 00 88 	        mov     W0, PLLFBD
 789              	.endif
 790              	WAITFORLOCK:
 791 000232  00 A0 AE 	        btss    OSCCON, #LOCK
 792 000234  00 00 37 	        bra     WAITFORLOCK
 793              	PLL_NOT_IN_USE:
 794              	.endif
 795              	
 796              	; Configure MS timer1
 797 000236  01 60 A9 	        bclr    PMD1, #T1MD
 798 000238  C0 AB 29 	        mov     #MS_PR_VAL, W0
 799 00023a  00 00 88 	        mov     W0, PR1
 800 00023c  00 00 28 	        mov     #0x8000, W0
 801 00023e  00 00 88 	        mov     W0, T1CON
 802              	
 803              	.if IDLE_MODE == 1
 804              	.if CPU_LOAD == 1
 805              	; Configure CPU load counter timer3
 806 000240  01 A0 A9 	        bclr    PMD1, #T3MD
 807 000242  00 01 2A 	        mov     #0xA010, W0    ; Stop timer3 in idle mode, prescaler = 8
 808 000244  00 00 88 	        mov     W0, T3CON
 809              	.endif
 810              	.endif
 811              	
 812              	; Enable T1 interrupt
 813 000246  00 60 A8 	        bset    IEC0, #T1IE
 814              	
 815              	;;;; Initialise the UART 1
 816              	.if FC1_TYPE == 2
 817              	        bclr    U1RTSTRIS, #U1RTSPIN
 818              	        bclr    U1RTSPORT, #U1RTSPIN
 819              	.endif
 820              	.ifdecl RPINR18
 821 000248  00 A0 EF 	        setm    AD1PCFGL
 822 00024a  00 00 20 	        mov     #OSCCONL, W0
 823 00024c  61 C4 B3 	        mov.b   #0x46, W1
 824 00024e  72 C5 B3 	        mov.b   #0x57, W2
 825 000250  01 48 78 	        mov.b   W1, [W0]
 826 000252  02 48 78 	        mov.b   W2, [W0]
 827 000254  00 C0 A9 	        bclr.b  OSCCONL, #IOLOCK
 828              	        
 829 000256  B0 00 20 	        mov     #RPINR18VAL, W0
 830 000258  00 00 88 	        mov     W0, RPINR18
 831 00025a  30 C0 B3 	        mov.b   #0x0003, W0         ; U1TX
 832 00025c  0A E0 B7 	        mov.b   WREG, RPOR0+U1TXPIN
 833              	.endif
 834              	
 835 00025e  00 A0 A9 	        bclr    PMD1, #U1MD
 836              	
 837              	.ifdecl USE_ALTERNATE_UART_PINS
 838              	.if  (USE_ALTERNATE_UART_PINS == 1)
MPLAB ASM30 Listing:  ../src/ff-pic24-30-33.s 			page 31


 839              	        bset    U1MODE, #ALTIO
 840              	.endif
 841              	.endif
 842              	.ifdecl UTXISEL1
 843 000260  01 E0 A8 	        bset    U1STA, #UTXISEL1
 844              	.else
 845              	        bset    U1STA, #UTXISEL
 846              	.endif
 847              	
 848 000262  01 E0 A8 	        bset    U1MODE, #UARTEN
 849              	.ifdecl BRGH
 850 000264  00 60 A8 	        bset    U1MODE, #BRGH
 851              	.endif
 852 000266  40 05 20 	        mov     #BAUD_DIV1, W0
 853 000268  00 00 88 	        mov     W0, U1BRG
 854 00026a  01 40 A8 	        bset    U1STA, #UTXEN
 855              	
 856              	.ifdecl AUTOBAUD1
 857              	.if (AUTOBAUD1 == 1)
 858              	        bset    U1MODE, #ABAUD
 859              	WARM_ABAUD1:
 860              	        btsc    U1MODE, #ABAUD
 861              	        bra     WARM_ABAUD1
 862              	        bclr    IFS0, #U1RXIF
 863              	.endif
 864              	.endif
 865 00026c  01 60 A8 	        bset    IEC0, #U1RXIE
 866              	.if TX1_BUF_SIZE > 0
 867 00026e  01 80 A8 	        bset    IEC0, #U1TXIE
 868              	.endif
 869              	;;; Initialise UART2
 870              	.ifdecl BAUDRATE2
 871              	.ifdecl _U2RXREG
 872              	.if FC2_TYPE == 2
 873              	        bclr    U2RTSTRIS, #U2RTSPIN
 874              	        bclr    U2RTSPORT, #U2RTSPIN
 875              	.endif
 876              	.ifdecl RPINR19
 877              	        mov     #RPINR19VAL, W0
 878              	        mov     W0, RPINR19
 879              	        mov.b   #0x0005, W0         ; U2TX
 880              	        mov.b   WREG, RPOR0+U2TXPIN
 881              	.endif
 882              	       bclr    PMD1, #U2MD
 883              	.ifdecl UTXISEL1
 884              	        bset    U2STA, #UTXISEL1
 885              	.else
 886              	        bset    U2STA, #UTXISEL
 887              	.endif
 888              	        bset    U2MODE, #UARTEN
 889              	
 890              	.ifdecl BRGH
 891              	        bset    U2MODE, #BRGH
 892              	.endif
 893              	        mov     #BAUD_DIV2, W0
 894              	        mov     W0, U2BRG
 895              	        bset    U2STA, #UTXEN
MPLAB ASM30 Listing:  ../src/ff-pic24-30-33.s 			page 32


 896              	
 897              	.ifdecl AUTOBAUD2
 898              	.if (AUTOBAUD2 == 1)
 899              	        bset    U2MODE, #ABAUD
 900              	WARM_ABAUD2:
 901              	        btsc    U2MODE, #ABAUD
 902              	        bra     WARM_ABAUD2
 903              	        bclr    IFS1, #U2RXIF
 904              	.endif
 905              	.endif
 906              	        bset    IEC1, #U2RXIE
 907              	.if TX2_BUF_SIZE > 0
 908              	        bset    IEC1, #U2TXIE
 909              	.endif
 910              	.endif
 911              	.endif
 912              	
 913              	; Init the warm literals
 914              	        mlit    handle(WARMLIT)+PFLASH
 914 000270  00 80 24 	> mov #handle(WARMLIT)+PFLASH,w0
 914 000272  00 2F 78 	> mov w0,[++w14]
 915              	        mlit    cse
 915 000274  00 00 20 	> mov #cse,w0
 915 000276  00 2F 78 	> mov w0,[++w14]
 916              	        mlit    warmlitsize
 916 000278  E0 00 20 	> mov #warmlitsize,w0
 916 00027a  00 2F 78 	> mov w0,[++w14]
 917 00027c  00 00 07 	        rcall   WMOVE
 918              	
 919              	; Check if cold start is needed
 920              	.ifdef PEEPROM
 921              	        mlit    dp_start
 922              	.else
 923 00027e  00 00 07 	        rcall   FTURNKEY_A
 924              	.endif
 925 000280  00 00 07 	        rcall   FETCH
 926 000282  2E 00 78 	        mov     [W14--], W0
 927 000284  F1 FF 2F 	        mov     #0xffff, W1
 928 000286  01 00 E1 	        cp      W0, W1
 929 000288  00 00 32 	        bra     z, COLD
 930 00028a  00 00 07 	        rcall   DP_TO_RAM
 931              	
 932              					; Wait 10 ms for UARTs to reset 
 933              	        mlit    10
 933 00028c  A0 00 20 	> mov #10,w0
 933 00028e  00 2F 78 	> mov w0,[++w14]
 934 000290  00 00 07 	        rcall   MS
 935              	
 936              	; Display INTCON1 and RCON restart reason
 937 000292  00 46 AF 	        btsc    intcon1dbg, #STKERR
 938 000294  00 00 07 	        rcall   DOEMIT
 939 000296  4F 00 00 	        .word   'O'          ; NOP when executed
 940              	RQ_DIV0:
 941 000298  00 86 AF 	        btsc    intcon1dbg, #MATHERR
 942 00029a  00 00 07 	        rcall   DOEMIT
 943 00029c  4D 00 00 	        .word   'M'
 944              	RQ_ADDR:
MPLAB ASM30 Listing:  ../src/ff-pic24-30-33.s 			page 33


 945 00029e  00 66 AF 	        btsc    intcon1dbg, #ADDRERR
 946 0002a0  00 00 07 	        rcall   DOEMIT
 947 0002a2  41 00 00 	        .word   'A'
 948              	RQ_BOR:
 949 0002a4  00 20 AF 	        btsc    RCON, #BOR
 950 0002a6  00 00 07 	        rcall   DOEMIT
 951 0002a8  42 00 00 	        .word   'B'
 952              	RQ_POR:
 953 0002aa  00 00 AF 	        btsc    RCON, #POR
 954 0002ac  00 00 07 	        rcall   DOEMIT
 955 0002ae  50 00 00 	        .word   'P'
 956              	RQ_TO:
 957 0002b0  00 80 AF 	        btsc    RCON, #WDTO
 958 0002b2  00 00 07 	        rcall   DOEMIT
 959 0002b4  57 00 00 	        .word   'W'
 960              	RQ_RI:
 961 0002b6  00 C0 AF 	        btsc    RCON, #SWR
 962 0002b8  00 00 07 	        rcall   DOEMIT
 963 0002ba  53 00 00 	        .word   'S'
 964              	RQ_EXTR:
 965 0002bc  00 E0 AF 	        btsc    RCON, #EXTR
 966 0002be  00 00 07 	        rcall   DOEMIT
 967 0002c0  45 00 00 	        .word   'E'
 968              	RQ_END:
 969              	
 970 0002c2  00 26 EF 	        clr     intcon1dbg
 971 0002c4  00 20 EF 	        clr     RCON
 972              	
 973              	WARM1:
 974 0002c6  00 00 07 	        rcall   XSQUOTE
 975 0002c8  17       	        .byte   23
 976            20 00 	        .ascii  " FlashForth PIC33 5.0\r\n"
 976 0002ca  46 6C 00 
 976         61 73 00 
 976         68 46 00 
 976         6F 72 00 
 976         74 68 00 
 976         20 50 00 
 976         49 43 00 
 976         33 33 00 
 977              	        .align 2
 978 0002e0  00 00 07 	        rcall   TYPE
 979              	        mlit    XON
 979 0002e2  10 01 20 	> mov #XON,w0
 979 0002e4  00 2F 78 	> mov w0,[++w14]
 980 0002e6  00 00 07 	        rcall   EMIT
 981              	; TURNKEY
 982 0002e8  00 00 07 	        rcall   TURNKEY
 983 0002ea  2E 00 E0 	        cp0     [W14--]
 984 0002ec  00 00 32 	        bra     z, STARTQ2
 985              	
 986 0002ee  00 00 07 	        rcall   XSQUOTE
 987 0002f0  03       	        .byte   3
 988            45 00 	        .ascii  "ESC"
 988 0002f2  53 43 00 
 989              	        .align 2
 990 0002f4  00 00 07 	        rcall   TYPE
MPLAB ASM30 Listing:  ../src/ff-pic24-30-33.s 			page 34


 991              	        mlit    0x0800
 991 0002f6  00 80 20 	> mov #0x0800,w0
 991 0002f8  00 2F 78 	> mov w0,[++w14]
 992 0002fa  00 00 07 	        rcall   MS
 993 0002fc  00 00 07 	        rcall   KEYQ
 994 0002fe  2E 00 E0 	        cp0     [W14--]
 995 000300  00 00 32 	        bra     z, STARTQ1
 996 000302  00 00 07 	        rcall   KEY
 997              	        mlit    0x1b
 997 000304  B0 01 20 	> mov #0x1b,w0
 997 000306  00 2F 78 	> mov w0,[++w14]
 998 000308  00 00 07 	        rcall   NOTEQUAL
 999 00030a  1E 00 E0 	        cp0     [W14]
 1000 00030c  00 00 32 	        bra     z, STARTQ2
 1001              	STARTQ1:
 1002 00030e  00 00 07 	        rcall   TURNKEY
 1003 000310  00 00 07 	        rcall   EXECUTE
 1004              	STARTQ2:
 1005 000312  00 00 37 	        bra     ABORT
 1006              	
 1007              	
 1008 000314  00 48 00 	        .pword   paddr(WARM_L)+PFLASH
 1009              	TURNKEY_L:
 1010 000316  87       	        .byte   NFA|7
 1011            74 00 	        .ascii  "turnkey"
 1011 000318  75 72 00 
 1011         6E 6B 00 
 1011         65 79 00 
 1012              	        .align 2
 1013              	TURNKEY:
 1014 00031e  00 00 07 	        rcall   VALUE_DOES
 1015 000320  00 00 00 	        .word   dpSTART
 1016              	
 1017              	; PAUSE  20 cycles, 5us@16MHz dsPIC30F 2.5 us for 33F and 24F
 1018 000322  00 48 00 	        .pword   paddr(TURNKEY_L)+PFLASH
 1019              	PAUSE_L:
 1020 000324  85       	        .byte   NFA|5
 1021            70 00 	        .ascii  "pause"
 1021 000326  61 75 00 
 1021         73 65 00 
 1022              	        .align 2
 1023              	PAUSE:
 1024 00032a  00 60 FE 	        clrwdt
 1025              	.if IDLE_MODE == 1
 1026 00032c  00 00 2C 	        mov     #BUSYIDLE_MASK, W0
 1027 00032e  D8 06 B6 	        and     iflags, WREG
 1028 000330  00 00 3A 	        bra     nz, PAUSE_BUSY
 1029              	.if 0
 1030              	        btsc    iflags, #fIDLE
 1031              	        bra     PAUSE_BUSY
 1032              	        btsc    iflags, #fBUSY
 1033              	        bra     PAUSE_BUSY
 1034              	.endif
 1035 000332  00 00 20 	        mov     #u0, W0        ; IDLE only in operator task.
 1036 000334  7A 07 E3 	        cp      upcurr
 1037 000336  00 00 3A 	        bra     nz, PAUSE_BUSY
 1038              	.if CPU_LOAD_LED == 1
MPLAB ASM30 Listing:  ../src/ff-pic24-30-33.s 			page 35


 1039              	        bclr    CPU_LOAD_TRIS, #CPU_LOAD_BIT
 1040              	.if CPU_LOAD_LED_POLARITY == 0
 1041              	        bset    CPU_LOAD_PORT, #CPU_LOAD_BIT
 1042              	.else
 1043              	        bclr    CPU_LOAD_PORT, #CPU_LOAD_BIT
 1044              	.endif
 1045              	.endif
 1046 000338  01 40 FE 	        pwrsav  #1             ; Go to IDLE mode to save power.
 1047              	PAUSE_BUSY:
 1048              	.if CPU_LOAD_LED == 1
 1049              	.if CPU_LOAD_LED_POLARITY == 0
 1050              	        bclr    CPU_LOAD_PORT, #CPU_LOAD_BIT
 1051              	.else
 1052              	        bset    CPU_LOAD_PORT, #CPU_LOAD_BIT
 1053              	.endif
 1054              	.endif
 1055              	.endif
 1056              	PAUSE2:
 1057 00033a  00 00 80 	        mov     upcurr, W0
 1058 00033c  3E B8 9F 	        mov     W14, [W0+ussave]    ; Save SP W14
 1059 00033e  2F B8 9F 	        mov     W15, [W0+ursave]    ; Save RP W15
 1060 000340  4D B8 9F 	        mov     W13, [W0+upsave]    ; Save P pointer
 1061 000342  50 B0 97 	        mov     [W0+ulink], W0      ; Set UP
 1062              	
 1063 000344  07 00 FC 	        disi    #7
 1064 000346  00 A0 EF 	        setm    SPLIM               ; Disable Return Stack overflow protection
 1065 000348  00 00 88 	        mov     W0, upcurr
 1066 00034a  C0 BE 97 	        mov     [W0+upsave], W13    ; Restore P pointer
 1067 00034c  A0 BF 97 	        mov     [W0+ursave], W15    ; Restore RP
 1068 00034e  80 B0 97 	        mov     [W0+us0], W1        ; Set SPLIM
 1069 000350  01 00 88 	        mov     W1, SPLIM
 1070 000352  30 BF 97 	        mov     [W0+ussave], W14    ; Restore SP W14
 1071 000354  00 00 06 	        return
 1072              	
 1073 000356  00 48 00 	        .pword   paddr(PAUSE_L)+PFLASH
 1074              	CWD_L:
 1075 000358  A3       	        .byte   NFA|INLINE|3
 1076            63 00 	        .ascii  "cwd"
 1076 00035a  77 64 00 
 1077              	        .align 2
 1078              	CWD:
 1079 00035c  00 60 FE 	        clrwdt
 1080 00035e  00 00 06 	        return
 1081              	
 1082              	; INT!  ( xt intnumber -- ) intnumber 8..
 1083              	; Store interrupt vector in alternate interrupt vector table
 1084              	; Stored directly in Flash on the 30F series     intnumber 0..61 
 1085              	; Stored in ram revector table in 24,33 series   intnumber 0..83
 1086              	
 1087 000360  00 48 00 	        .pword   paddr(CWD_L)+PFLASH
 1088              	INTERRUPT_STORE_L:
 1089 000362  84       	        .byte   NFA|4
 1090            69 00 	        .ascii  "int!"
 1090 000364  6E 74 00 
 1090         21 
 1091            00 00 	        .align 2
 1092              	INTERRUPT_STORE:
MPLAB ASM30 Listing:  ../src/ff-pic24-30-33.s 			page 36


 1093              	.ifdecl INTTREG
 1094 000368  00 00 20 	        mov     #IVECTAB, W0
 1095 00036a  AE 00 78 	        mov     [W14--], W1
 1096 00036c  81 00 D0 	        sl      W1, W1
 1097 00036e  01 00 40 	        add     W0, W1, W0
 1098 000370  01 80 24 	        mov     #PFLASH, W1
 1099 000372  2E 01 78 	        mov     [W14--], W2
 1100 000374  81 00 51 	        sub     W2, W1, W1
 1101 000376  01 08 78 	        mov     W1, [W0]
 1102 000378  00 00 06 	        return
 1103              	.else
 1104              	        mov     #0x3f, W0
 1105              	        mov     [W14--], W1
 1106              	        and     W1, W0, W1
 1107              	        sl      W1, W1
 1108              	        mov     #PAIVT+PFLASH+4, W0
 1109              	        add     W1, W0, W0
 1110              	        mov     #PFLASH, W1
 1111              	        mov     [W14], W2
 1112              	        sub     W2, W1, [W14]
 1113              	        clr     W3             ; hibyte
 1114              	        rcall   ISTORE_RAW
 1115              	        rcall   IFLUSH
 1116              	        return
 1117              	.endif
 1118              	
 1119              	; IVT  ( -- )  Use the normal interrupt vector table
 1120 00037a  00 48 00 	        .pword   paddr(INTERRUPT_STORE_L)+PFLASH
 1121              	IVT_L:
 1122 00037c  A3       	        .byte   NFA|INLINE|3
 1123            69 00 	        .ascii  "ivt"
 1123 00037e  76 74 00 
 1124              	        .align  2
 1125              	IVT:
 1126 000380  01 E0 A9 	        bclr    INTCON2, #ALTIVT
 1127 000382  00 00 06 	        return
 1128              	
 1129              	; AIVT ( -- ) Use the alternate interrupt vector table
 1130 000384  00 48 00 	        .pword   paddr(IVT_L)+PFLASH
 1131              	AIVT_L:
 1132 000386  A4       	        .byte   NFA|INLINE|4
 1133            61 00 	        .ascii  "aivt"
 1133 000388  69 76 00 
 1133         74 
 1134            00 00 	        .align  2
 1135              	AIVT:
 1136 00038c  01 E0 A8 	        bset    INTCON2, #ALTIVT
 1137 00038e  00 00 06 	        return
 1138              	
 1139              	; [i ( -- ) enter the interrupt context
 1140 000390  00 48 00 	        .pword   paddr(AIVT_L)+PFLASH
 1141              	BRACKETI_L:
 1142 000392  B2       	        .byte   NFA|INLINE|COMPILE|2
 1143            5B 00 	        .ascii  "[i"
 1143 000394  69 
 1144            00 00 	        .align  2
 1145              	BRACKETI:
MPLAB ASM30 Listing:  ../src/ff-pic24-30-33.s 			page 37


 1146              	.ifndecl INTTREG
 1147              	        push.s          ; W0...W3
 1148              	.endif
 1149              	.ifdef PEEPROM
 1150              	        push    TBLPAG  ; Used by eeprom access
 1151              	.endif
 1152 000396  8D 1F 78 	        push    W13     ; Preg        
 1153 000398  00 00 F8 	        push    RCOUNT  ; used by repeat
 1154 00039a  62 07 47 	        add     W14, #2, W14
 1155 00039c  00 00 06 	        return
 1156              	
 1157              	; i] ( -- ) exit the interrupt context
 1158 00039e  00 48 00 	        .pword   paddr(BRACKETI_L)+PFLASH
 1159              	IBRACKET_L:
 1160 0003a0  B2       	        .byte   NFA|INLINE|COMPILE|2
 1161            69 00 	        .ascii  "i]"
 1161 0003a2  5D 
 1162            00 00 	        .align  2
 1163              	IBRACKET:
 1164 0003a4  62 07 57 	        sub     W14, #2, W14
 1165 0003a6  00 00 F9 	        pop     RCOUNT  ; used by repeat
 1166 0003a8  CF 06 78 	        pop     W13     ; Preg
 1167              	.ifdef PEEPROM
 1168              	        pop     TBLPAG  ; Used by eeprom access
 1169              	.endif
 1170              	.ifndecl INTTREG
 1171              	        pop.s           ; W0...W3
 1172              	.endif
 1173 0003aa  00 00 06 	        return
 1174              	
 1175              	
 1176              	; di ( -- ) disable interrupts
 1177 0003ac  00 48 00 	        .pword   paddr(IBRACKET_L)+PFLASH
 1178              	DI_L:
 1179 0003ae  B2       	        .byte   NFA|INLINE|COMPILE|2
 1180            64 00 	        .ascii  "di"
 1180 0003b0  69 
 1181            00 00 	        .align  2
 1182              	DI:
 1183 0003b2  00 00 F8 	        push    SR
 1184 0003b4  00 CE B3 	        mov.b   #0xe0, W0
 1185 0003b6  00 60 B7 	        ior.b   SRL
 1186 0003b8  00 00 06 	        return
 1187              	
 1188              	; ei ( -- ) enable interrupts
 1189 0003ba  00 48 00 	        .pword   paddr(DI_L)+PFLASH
 1190              	EI_L:
 1191 0003bc  B2       	        .byte   NFA|INLINE|COMPILE|2
 1192            65 00 	        .ascii  "ei"
 1192 0003be  69 
 1193            00 00 	        .align  2
 1194              	EI:
 1195 0003c0  00 00 F9 	        pop     SR
 1196 0003c2  00 00 06 	        return
 1197              	
 1198 0003c4  00 48 00 	        .pword   paddr(EI_L)+PFLASH
 1199              	OPERATOR_L:
MPLAB ASM30 Listing:  ../src/ff-pic24-30-33.s 			page 38


 1200 0003c6  88       	        .byte   NFA|8
 1201            6F 00 	        .ascii  "operator"
 1201 0003c8  70 65 00 
 1201         72 61 00 
 1201         74 6F 00 
 1201         72 
 1202            00 00 	        .align  2
 1203              	OPERATOR:
 1204 0003d0  00 00 02 	        call    DOCREATE        ; Use call to align with PIC18 and AVR
 1204         00 00 00 
 1205 0003d4  00 48 00 	        .pword  paddr(OPERATOR_AREA)+PFLASH
 1206              	OPERATOR_AREA: 
 1207 0003d6  20 00 00 	        .word   ustart-us0      ; user pointer
 1208 0003d8  00       	        .byte   UADDSIZE
 1209            60 00 	        .byte   RETURN_STACK_SIZE
 1210 0003da  60       	        .byte   PARAMETER_STACK_SIZE
 1211            8A 00 	        .byte   TIB_SIZE+HOLD_SIZE
 1212              	
 1213              	
 1214              	;  rcall, ( rel-addr -- )
 1215 0003dc  00 48 00 	        .pword   paddr(OPERATOR_L)+PFLASH
 1216              	RCALL_L:
 1217 0003de  86       	        .byte   NFA|6
 1218            72 00 	        .ascii  "rcall,"
 1218 0003e0  63 61 00 
 1218         6C 6C 00 
 1218         2C 
 1219            00 00 	        .align  2
 1220              	RCALL_:
 1221 0003e6  1E 8F D1 	        asr     [W14], [W14]        ; 2/
 1222              	        mlit    #7
 1222 0003e8  70 00 20 	> mov ##7,w0
 1222 0003ea  00 2F 78 	> mov w0,[++w14]
 1223 0003ec  00 00 07 	        rcall   AS_COMMA
 1224 0003ee  00 00 06 	        return
 1225              	
 1226              	;  return, ( -- )
 1227 0003f0  00 48 00 	        .pword   paddr(RCALL_L)+PFLASH
 1228              	RETURN_L:
 1229 0003f2  87       	        .byte   NFA|7
 1230            72 00 	        .ascii  "return,"
 1230 0003f4  65 74 00 
 1230         75 72 00 
 1230         6E 2C 00 
 1231              	        .align  2
 1232              	RETURN_:
 1233 0003fa  00 00 07 	        rcall   FALSE_
 1234              	        mlit    #6
 1234 0003fc  60 00 20 	> mov ##6,w0
 1234 0003fe  00 2F 78 	> mov w0,[++w14]
 1235 000400  00 00 07 	        rcall   AS_COMMA
 1236 000402  00 00 06 	        return
 1237              	
 1238              	;  retfie, ( -- )
 1239 000404  00 48 00 	        .pword   paddr(RETURN_L)+PFLASH
 1240              	RETFIE_L:
 1241 000406  87       	        .byte   NFA|7
MPLAB ASM30 Listing:  ../src/ff-pic24-30-33.s 			page 39


 1242            72 00 	        .ascii  "retfie,"
 1242 000408  65 74 00 
 1242         66 69 00 
 1242         65 2C 00 
 1243              	        .align  2
 1244              	RETFIE_:
 1245              	        mlit    #0x4000
 1245 00040e  00 00 24 	> mov ##0x4000,w0
 1245 000410  00 2F 78 	> mov w0,[++w14]
 1246              	        mlit    #6
 1246 000412  60 00 20 	> mov ##6,w0
 1246 000414  00 2F 78 	> mov w0,[++w14]
 1247 000416  00 00 07 	        rcall   AS_COMMA
 1248 000418  00 00 06 	        return
 1249              	
 1250              	;  bra, ( cc rel-addr -- )
 1251 00041a  00 48 00 	        .pword   paddr(RETFIE_L)+PFLASH
 1252              	BRA_L:
 1253 00041c  84       	        .byte   NFA|4
 1254            62 00 	        .ascii  "bra,"
 1254 00041e  72 61 00 
 1254         2C 
 1255            00 00 	        .align  2
 1256              	BRA_:
 1257 000422  1E 8F D1 	        asr     [W14], [W14]        ; 2/
 1258 000424  00 00 07 	        rcall   SWOP
 1259              	        mlit    #0x30
 1259 000426  00 03 20 	> mov ##0x30,w0
 1259 000428  00 2F 78 	> mov w0,[++w14]
 1260 00042a  00 00 07 	        rcall   OR
 1261 00042c  00 00 07 	        rcall   AS_COMMA
 1262 00042e  00 00 06 	        return
 1263              	
 1264              	;  as0 ( bit ram-addr -- u ) 
 1265              	; : bset, swap dup >r 8 u/ + r> $7 and #12 lshift or ;
 1266 000430  00 48 00 	        .pword   paddr(BRA_L)+PFLASH
 1267              	AS0_L:
 1268 000432  83       	        .byte   NFA|3
 1269            61 00 	        .ascii  "as0"
 1269 000434  73 30 00 
 1270              	        .align  2
 1271              	AS0:
 1272 000436  00 00 07 	        rcall   SWOP
 1273 000438  9E 1F 78 	        mov     [W14], [W15++]  ; dup >r
 1274              	        mlit    8
 1274 00043a  80 00 20 	> mov #8,w0
 1274 00043c  00 2F 78 	> mov w0,[++w14]
 1275 00043e  00 00 07 	        rcall   USLASH
 1276 000440  00 00 07 	        rcall   PLUS
 1277 000442  4F 2F 78 	        mov     [--W15], [++W14]
 1278              	        mlit    0x7
 1278 000444  70 00 20 	> mov #0x7,w0
 1278 000446  00 2F 78 	> mov w0,[++w14]
 1279 000448  00 00 07 	        rcall   AND
 1280              	        mlit    13
 1280 00044a  D0 00 20 	> mov #13,w0
 1280 00044c  00 2F 78 	> mov w0,[++w14]
MPLAB ASM30 Listing:  ../src/ff-pic24-30-33.s 			page 40


 1281 00044e  00 00 07 	        rcall   LSHIFT
 1282 000450  00 00 07 	        rcall   OR
 1283 000452  00 00 06 	        return
 1284              	
 1285              	; bclr, ( bit ram-addr -- ) clr bit in ram
 1286 000454  00 48 00 	        .pword   paddr(AS0_L)+PFLASH
 1287              	BCLR_L:
 1288 000456  85       	        .byte   NFA|5
 1289            62 00 	        .ascii  "bclr,"
 1289 000458  63 6C 00 
 1289         72 2C 00 
 1290              	        .align  2
 1291              	BCLR_:
 1292 00045c  00 00 07 	        rcall   AS0
 1293              	        mlit    0xa9
 1293 00045e  90 0A 20 	> mov #0xa9,w0
 1293 000460  00 2F 78 	> mov w0,[++w14]
 1294 000462  00 00 07 	        rcall   AS_COMMA
 1295 000464  00 00 06 	        return
 1296              	                    
 1297              	; bset, ( bit ram-addr -- ) set bit in ram
 1298 000466  00 48 00 	        .pword   paddr(BCLR_L)+PFLASH
 1299              	BSET_L:
 1300 000468  85       	        .byte   NFA|5
 1301            62 00 	        .ascii  "bset,"
 1301 00046a  73 65 00 
 1301         74 2C 00 
 1302              	        .align  2
 1303              	BSET_:
 1304 00046e  00 00 07 	        rcall   AS0
 1305              	        mlit    0xa8
 1305 000470  80 0A 20 	> mov #0xa8,w0
 1305 000472  00 2F 78 	> mov w0,[++w14]
 1306 000474  00 00 07 	        rcall   AS_COMMA
 1307 000476  00 00 06 	        return
 1308              	; btst, ( bit ram-addr -- ) test bit in ram -> STATUS, Z bit
 1309 000478  00 48 00 	        .pword   paddr(BSET_L)+PFLASH
 1310              	BTST_L:
 1311 00047a  85       	        .byte   NFA|5
 1312            62 00 	        .ascii  "btst,"
 1312 00047c  74 73 00 
 1312         74 2C 00 
 1313              	        .align  2
 1314              	BTST_:
 1315 000480  00 00 07 	        rcall   AS0
 1316              	        mlit    0xab
 1316 000482  B0 0A 20 	> mov #0xab,w0
 1316 000484  00 2F 78 	> mov w0,[++w14]
 1317 000486  00 00 07 	        rcall   AS_COMMA
 1318 000488  00 00 06 	        return
 1319              	
 1320              	; btsc, ( bit ram-addr -- ) bit test f, skip if clear
 1321 00048a  00 48 00 	        .pword   paddr(BTST_L)+PFLASH
 1322              	BTSC_L:
 1323 00048c  85       	        .byte   NFA|5
 1324            62 00 	        .ascii  "btsc,"
 1324 00048e  74 73 00 
MPLAB ASM30 Listing:  ../src/ff-pic24-30-33.s 			page 41


 1324         63 2C 00 
 1325              	        .align  2
 1326              	BTSC_:
 1327 000492  00 00 07 	        rcall   AS0
 1328              	        mlit    0xaf
 1328 000494  F0 0A 20 	> mov #0xaf,w0
 1328 000496  00 2F 78 	> mov w0,[++w14]
 1329 000498  00 00 07 	        rcall   AS_COMMA
 1330 00049a  00 00 06 	        return
 1331              	
 1332              	; btss, ( bit ram-addr -- ) bit test f, skip if set
 1333 00049c  00 48 00 	        .pword   paddr(BTSC_L)+PFLASH
 1334              	BTSS_L:
 1335 00049e  85       	        .byte   NFA|5
 1336            62 00 	        .ascii  "btss,"
 1336 0004a0  74 73 00 
 1336         73 2C 00 
 1337              	        .align  2
 1338              	BTSS_:
 1339 0004a4  00 00 07 	        rcall   AS0
 1340              	        mlit    0xae
 1340 0004a6  E0 0A 20 	> mov #0xae,w0
 1340 0004a8  00 2F 78 	> mov w0,[++w14]
 1341 0004aa  00 00 07 	        rcall   AS_COMMA
 1342 0004ac  00 00 06 	        return
 1343              	
 1344              	; cf! ( datal datah addr -- )
 1345 0004ae  00 48 00 	        .pword   paddr(BTSS_L)+PFLASH
 1346              	CF_STORE_L:
 1347 0004b0  83       	        .byte   NFA|3
 1348            63 00 	        .ascii  "cf!"
 1348 0004b2  66 21 00 
 1349              	        .align  2
 1350              	CF_STORE:
 1351 0004b4  00 00 07 	        rcall   SWOP
 1352 0004b6  AE 01 78 	        mov     [W14--], W3
 1353 0004b8  00 00 07 	        rcall   CFISTORE
 1354 0004ba  00 00 06 	        return
 1355              	
 1356              	; cf@ ( addr -- datal datah)
 1357 0004bc  00 48 00 	        .pword   paddr(CF_STORE_L)+PFLASH
 1358              	CF_FETCH_L:
 1359 0004be  83       	        .byte   NFA|3
 1360            63 00 	        .ascii  "cf@"
 1360 0004c0  66 40 00 
 1361              	        .align  2
 1362              	CF_FETCH:
 1363 0004c2  00 00 07 	        rcall   FETCH
 1364 0004c4  03 2F 78 	        mov     W3, [++W14]
 1365 0004c6  00 00 06 	        return
 1366              	
 1367              	; as, ( datal datah -- )
 1368 0004c8  00 48 00 	        .pword   paddr(CF_FETCH_L)+PFLASH
 1369              	AS_COMMA_L:
 1370 0004ca  83       	        .byte   NFA|3
 1371            61 00 	        .ascii  "as,"
 1371 0004cc  73 2C 00 
MPLAB ASM30 Listing:  ../src/ff-pic24-30-33.s 			page 42


 1372              	        .align  2
 1373              	AS_COMMA:
 1374 0004ce  2E 00 78 	        mov     [W14--], W0
 1375              	.if 1        
 1376 0004d0  0A 00 E1 	        cp      W0, W10
 1377 0004d2  00 00 3A 	        bra     nz, AS_COMMA1
 1378 0004d4  8A 07 B1 	        sub     #0x78, W10
 1379 0004d6  00 00 3A 	        bra     nz, AS_COMMA1  ; hibytecheck
 1380              	        
 1381 0004d8  9E 00 78 	        mov     [W14], W1
 1382 0004da  E2 02 20 	        mov     #0x002e, W2
 1383 0004dc  02 08 E1 	        cp      W1, W2
 1384 0004de  00 00 3A 	        bra     nz, AS_COMMA1  ; mov [W14--], W0  ???
 1385 0004e0  02 F0 22 	        mov     #0x2f00, W2
 1386 0004e2  0C 10 E1 	        cp      W2, W12
 1387 0004e4  00 00 3A 	        bra     nz, AS_COMMA1  ; mov W0, [++W14]  ???
 1388 0004e6  62 07 57 	        sub     W14, #2, W14
 1389 0004e8  00 00 07 	        rcall   IDPMINUS
 1390 0004ea  0C 00 20 	        mov     #0, W12
 1391 0004ec  0A 00 20 	        mov     #0, W10
 1392 0004ee  00 00 37 	        bra     AS_COMMA2
 1393              	.endif        
 1394              	AS_COMMA1:
 1395 0004f0  80 01 78 	        mov     W0, W3          ; hibyte
 1396 0004f2  00 05 78 	        mov     W0, W10
 1397 0004f4  1E 06 78 	        mov     [W14], W12
 1398 0004f6  00 00 07 	        rcall   IHERE
 1399 0004f8  00 00 07 	        rcall   CFISTORE
 1400 0004fa  00 00 07 	        rcall   CELL
 1401 0004fc  00 00 07 	        rcall   IALLOT
 1402              	AS_COMMA2:
 1403 0004fe  00 00 06 	        return
 1404              	
 1405              	; i, ( data  -- )  upper byte is in 'hibyte'
 1406              	;        .pword   paddr(AS_COMMA_L)+PFLASH
 1407              	ICOMMA_L:
 1408 000500  82       	        .byte   NFA|2
 1409            69 00 	        .ascii  "i,"
 1409 000502  2C 
 1410            00 00 	        .align  2
 1411              	ICOMMA:
 1412 000504  00 00 07 	        rcall   IHERE
 1413 000506  00 00 07 	        rcall   STORE
 1414 000508  00 00 07 	        rcall   CELL
 1415 00050a  00 00 07 	        rcall   IALLOT
 1416 00050c  00 00 06 	        return
 1417              	
 1418              	; cf,    xt --  append codefield
 1419 00050e  00 48 00 	        .pword  paddr(AS_COMMA_L)+PFLASH
 1420              	COMMAXT_L:
 1421 000510  83       	        .byte   NFA|3
 1422            63 00 	        .ascii  "cf,"
 1422 000512  66 2C 00 
 1423              	        .align  2
 1424              	COMMAXT:
 1425 000514  00 00 07 	        rcall   IHERE
 1426 000516  00 00 07 	        rcall   MINUS
MPLAB ASM30 Listing:  ../src/ff-pic24-30-33.s 			page 43


 1427 000518  1E 8F E9 	        dec2    [W14], [W14]
 1428 00051a  00 00 07 	        rcall   RCALL_
 1429 00051c  00 00 06 	        return
 1430              	
 1431 00051e  00 48 00 	        .pword   paddr(COMMAXT_L)+PFLASH
 1432              	IFLUSH_L:
 1433 000520  86       	        .byte   NFA|6
 1434            69 00 	        .ascii  "iflush"
 1434 000522  66 6C 00 
 1434         75 73 00 
 1434         68 
 1435            00 00 	        .align  2
 1436              	IFLUSH:
 1437 000528  D8 06 AF 	        btsc    iflags, #idirty
 1438 00052a  00 00 37 	        bra     write_buffer_to_imem
 1439 00052c  00 00 06 	        return
 1440              	        
 1441              	; data addr IC! Address is in W0
 1442              	ICSTORE:
 1443 00052e  00 00 07 	        rcall   ISTORE_ADDRCHK
 1444 000530  80 01 EB 	        clr     W3               ; hibyte
 1445 000532  00 00 07 	        rcall   ISTORE_SUB
 1446 000534  01 48 78 	        mov.b   W1, [W0]
 1447 000536  00 00 06 	        return
 1448              	
 1449              	; data addr I!  Address is in W0
 1450              	CFISTORE:
 1451 000538  2E 00 78 	        mov     [W14--], W0
 1452 00053a  00 00 37 	        bra     ISTORECF
 1453              	ISTORE:
 1454 00053c  80 01 EB 	        clr     W3
 1455              	ISTORECF:
 1456 00053e  00 00 07 	        rcall   ISTORE_ADDRCHK
 1457              	ISTORE_RAW:
 1458 000540  00 00 07 	        rcall   ISTORE_SUB
 1459 000542  01 08 78 	        mov     W1, [W0]
 1460              	ISTORE1:
 1461 000544  00 00 06 	        return
 1462              	
 1463              	ISTORE_SUB:
 1464 000546  01 80 24 	        mov     #PFLASH, W1
 1465 000548  01 00 50 	        sub     W0, W1, W0
 1466 00054a  00 00 88 	        mov     W0, iaddr       ; W0 = addr, iaddr = addr
 1467 00054c  83 1F 78 	        push    W3
 1468 00054e  00 00 07 	        rcall   iupdatebuf      ; uses w3
 1469 000550  CF 01 78 	        pop     W3
 1470 000552  00 00 80 	        mov     iaddr, W0
 1471              	        
 1472 000554  F1 3F 20 	        mov     #IBUFSIZEL-1, W1
 1473 000556  01 01 60 	        and     W0, W1, W2
 1474 000558  41 10 DE 	        lsr     W2,#1,W0
 1475 00055a  01 00 20 	        mov     #ibufh, W1
 1476 00055c  00 80 40 	        add     W1, W0, W0
 1477              	
 1478 00055e  03 48 78 	        mov.b   W3, [W0]        ; hibyte
 1479              	
 1480 000560  01 00 20 	        mov     #ibufl, W1
MPLAB ASM30 Listing:  ../src/ff-pic24-30-33.s 			page 44


 1481 000562  01 00 41 	        add     W2, W1, W0
 1482 000564  AE 00 78 	        mov     [W14--], W1
 1483 000566  D8 06 A8 	        bset    iflags, #idirty
 1484 000568  00 00 06 	        return              ; !!!!!!!!!!!!!!!!!!
 1485              	ISTORE_ADDRCHK:
 1486 00056a  01 80 24 	        mov     #handle(KERNEL_END)+PFLASH, W1
 1487 00056c  01 00 E1 	        cp      W0, W1
 1488 00056e  00 00 39 	        bra     LTU, ISTORE_ADDRERR
 1489 000570  00 00 06 	        return
 1490              	ISTORE_ADDRERR:
 1491 000572  00 60 A8 	        bset    INTCON1, #ADDRERR
 1492              	
 1493              	PCFETCH1:
 1494 000574  10 4F BA 	        tblrdl.b [W0], [W14]
 1495 000576  00 00 06 	        return
 1496              	
 1497              	ICFETCH:
 1498 000578  00 00 07 	        rcall   IFETCH_INIT
 1499 00057a  02 08 E1 	        cp      W1, W2
 1500 00057c  00 00 3A 	        bra     NZ, PCFETCH1
 1501 00057e  F1 3F 20 	        mov     #IBUFSIZEL-1, W1
 1502 000580  00 80 60 	        and     W1, W0, W0
 1503 000582  01 00 20 	        mov     #ibufl, W1
 1504 000584  00 80 40 	        add     W1, W0, W0
 1505 000586  10 4F 78 	        mov.b   [W0],[W14]
 1506 000588  00 00 06 	        return
 1507              	
 1508              	PFETCH1:
 1509 00058a  80 01 EB 	        clr     W3
 1510 00058c  90 C1 BA 	        tblrdh.b [W0], W3
 1511 00058e  10 0F BA 	        tblrdl  [W0], [W14]
 1512 000590  00 00 06 	        return
 1513              	
 1514              	IFETCH:
 1515 000592  00 00 07 	        rcall    IFETCH_INIT
 1516 000594  02 08 E1 	        cp       W1, W2
 1517 000596  00 00 3A 	        bra      NZ, PFETCH1
 1518 000598  F1 3F 20 	        mov      #IBUFSIZEL-1, W1
 1519 00059a  00 80 60 	        and      W1, W0, W0
 1520 00059c  00 01 78 	        mov      W0, W2
 1521 00059e  01 00 20 	        mov      #ibufl, W1
 1522 0005a0  80 80 40 	        add      W1, W0, W1
 1523 0005a2  11 0F 78 	        mov      [W1],[W14]
 1524              	
 1525 0005a4  41 10 DE 	        lsr      W2, #1, W0
 1526 0005a6  01 00 20 	        mov      #ibufh, W1
 1527 0005a8  00 80 40 	        add      W1, W0, W0
 1528 0005aa  80 01 EB 	        clr      W3
 1529 0005ac  90 41 78 	        mov.b    [W0], W3       ; hibyte
 1530 0005ae  00 00 06 	        return
 1531              	        
 1532              	IFETCH_INIT:
 1533              	.ifdef PEEPROM
 1534              	        clr      TBLPAG
 1535              	.endif
 1536 0005b0  01 80 24 	        mov      #PFLASH, W1
 1537 0005b2  01 00 50 	        sub      W0, W1, W0
MPLAB ASM30 Listing:  ../src/ff-pic24-30-33.s 			page 45


 1538 0005b4  01 00 80 	        mov      ibase, W1
 1539 0005b6  02 C0 2F 	        mov      #IBUFMASK, W2
 1540 0005b8  00 01 61 	        and      W2, W0, W2
 1541 0005ba  00 00 06 	        return
 1542              	
 1543              	EWENABLE:
 1544 0005bc  01 00 88 	        mov     W1, NVMCON
 1545              	EWENABLE0:
 1546 0005be  05 00 FC 	        disi    #5
 1547 0005c0  53 05 20 	        mov     #0x55, W3       ; W3 selected to avoid clash in flash write routine.
 1548 0005c2  03 00 88 	        mov     W3, NVMKEY
 1549 0005c4  A3 0A 20 	        mov     #0xaa, W3
 1550 0005c6  03 00 88 	        mov     W3, NVMKEY
 1551 0005c8  01 E0 A8 	        bset    NVMCON, #WR
 1552 0005ca  00 00 00 	        nop
 1553 0005cc  00 00 00 	        nop
 1554              	EWENABLE1:
 1555 0005ce  01 E0 AF 	        btsc    NVMCON, #WR
 1556 0005d0  00 00 37 	        bra     EWENABLE1       ; Now the cell has been stored
 1557 0005d2  00 00 06 	        return
 1558              	
 1559              	.ifdef PEEPROM
 1560              	ESTORE:
 1561              	        rcall   wait_silence
 1562              	        mov.w   #0xf000, W1 
 1563              	        ior.w   W0, W1, W0
 1564              	        mov.w   #0x7f, W1
 1565              	        mov     W1, TBLPAG
 1566              	.ifndef __24F16KA102
 1567              	        TBLWTL  [W14], [W0]
 1568              	        mov.w   #EEPROM_ERASE, W1
 1569              	        rcall   EWENABLE
 1570              	.endif
 1571              	        TBLWTL  [W14--], [W0]
 1572              	        mov     #EEPROM_WRITE, W1
 1573              	        rcall   EWENABLE
 1574              	        clr     TBLPAG
 1575              	        return
 1576              	
 1577              	
 1578              	ECSTORE:
 1579              	        mov.w   #0xf000, W1
 1580              	        ior.w   W0, W1, W0
 1581              	        mov.w   #0x7f, W1
 1582              	        mov.w   W1, TBLPAG
 1583              	ECSTORE1:
 1584              	        mov.w   W0, W1
 1585              	        mov.w   #0xfffe, W2
 1586              	        and.w   W2, W0, W0
 1587              	        tblrdl  [W0], W2
 1588              	        btsc    W1, #0
 1589              	        bra     ECSTORE2
 1590              	        mov.w   #0xff00, W1
 1591              	        and.w   W1, W2, W2
 1592              	        mov.w   [W14], W1
 1593              	        ior.w   W1, W2, [W14]
 1594              	        bra     ESTORE
MPLAB ASM30 Listing:  ../src/ff-pic24-30-33.s 			page 46


 1595              	ECSTORE2:
 1596              	        and.w   #0xff, W2
 1597              	        mov.w   [W14], W1
 1598              	        swap.w  W1
 1599              	        ior.w   W1, W2, [W14]
 1600              	        bra     ESTORE
 1601              	
 1602              	EFETCH:
 1603              	        mov.w   #0xf000, W1
 1604              	        ior.w   W0, W1, W0
 1605              	        mov.w   #0x7f, W1
 1606              	        mov.w   W1, TBLPAG
 1607              	        tblrdl  [W0], W0
 1608              	        mov     W0, [W14]
 1609              	        clr     TBLPAG
 1610              	        return
 1611              	ECFETCH:
 1612              	        mov     W0, W2
 1613              	        bclr    W0, #0
 1614              	        rcall   EFETCH
 1615              	        btsc    W2, #0
 1616              	        swap.w  W0
 1617              	        and.w   #0xff, W0
 1618              	        mov.w   W0, [W14]
 1619              	        return
 1620              	.else
 1621              	;;; Only for TURNKEY, DP_FLASH, DP_RAM, LATEST !
 1622              	;;;
 1623              	;;; Read the last non-FFhibyte word from one 1 Kbyte bank
 1624              	;;; No size check, just finds the last non-FF entry.
 1625              	; ( start-of-1k-blockaddr -- data )
 1626              	;        dw      link
 1627              	;link    set     $
 1628              	;        db      NFA|3,"ee@"
 1629              	EEREAD:
 1630 0005d4  1E 00 78 	        mov     [W14], W0
 1631 0005d6  01 80 24 	        mov     #PFLASH, W1
 1632 0005d8  01 00 50 	        sub     W0, W1, W0
 1633 0005da  01 40 20 	        mov     #0x400, W1
 1634 0005dc  01 00 40 	        add     W0, W1, W0      ; W0 = endof flash page.
 1635              	.ifdef PEEPROM
 1636              	        clr     TBLPAG
 1637              	.endif
 1638              	EEREAD1:
 1639 0005de  C0 00 BA 	        tblrdl  [--W0], W1
 1640 0005e0  81 00 E8 	        inc     W1, W1
 1641 0005e2  00 00 32 	        bra     z, EEREAD1
 1642 0005e4  81 00 E9 	        dec     W1, W1
 1643 0005e6  01 0F 78 	        mov     W1, [W14]
 1644 0005e8  00 00 06 	        return
 1645              	
 1646              	EEINIT:
 1647 0005ea  00 00 07 	        rcall   LOCKED
 1648 0005ec  00 00 07 	        rcall   EEERASE
 1649 0005ee  00 00 37 	        bra     EEWRITE
 1650              	
 1651              	;;; Write of word to first free (hibyte=FF) location in a 1 Kbyte bank
MPLAB ASM30 Listing:  ../src/ff-pic24-30-33.s 			page 47


 1652              	;;; ( data start-of-1K-blockaddr -- )
 1653              	;        dw      link
 1654              	;link    set     $
 1655              	;        db      NFA|3,"ee!"
 1656              	EEWRITE:
 1657 0005f0  00 00 07 	        rcall   wait_silence
 1658              	.ifdef PEEPROM
 1659              	        clr     TBLPAG
 1660              	.endif
 1661 0005f2  1E 00 78 	        mov     [W14], W0
 1662 0005f4  01 80 24 	        mov     #PFLASH, W1
 1663 0005f6  01 00 50 	        sub     W0, W1, W0
 1664 0005f8  02 20 20 	        mov     #0x200, W2
 1665              	EEWRITE1:
 1666 0005fa  B0 00 BA 	        tblrdl  [W0++], W1
 1667 0005fc  81 00 E8 	        inc     W1, W1
 1668 0005fe  00 00 3A 	        bra     nz, EEWRITE2
 1669 000600  00 80 E9 	        dec2    W0, W0
 1670 000602  0E 87 E9 	        dec2    W14, W14
 1671 000604  00 00 37 	        bra     EEWRITE3
 1672              	EEWRITE2:
 1673 000606  02 01 E9 	        dec     W2, W2
 1674 000608  00 00 3A 	        bra     nz, EEWRITE1
 1675 00060a  00 00 07 	        rcall   EEERASE        ; ( blockstart -- blockstart)
 1676 00060c  2E 00 78 	        mov     [W14--], W0
 1677              	EEWRITE3:
 1678 00060e  31 00 24 	        mov     #FLASH_WRITE_SINGLE, W1
 1679 000610  01 00 88 	        mov     W1, NVMCON
 1680 000612  2E 08 BB 	        tblwtl  [W14--], [W0]
 1681 000614  00 00 07 	        rcall   EWENABLE0
 1682 000616  00 00 06 	        return
 1683              	
 1684              	; block-addr -- block-addr
 1685              	EEERASE:
 1686              	.if DEBUG_FLASH == 1
 1687              	        mov     #'R', W2
 1688              	        mov     W2, U1TXREG
 1689              	.endif
 1690 000618  20 04 24 	        mov     #FLASH_ERASE, W0
 1691 00061a  00 00 88 	        mov     W0, NVMCON
 1692 00061c  1E 00 78 	        mov     [W14], W0
 1693 00061e  01 80 24 	        mov     #PFLASH, W1
 1694 000620  01 00 50 	        sub     W0, W1, W0
 1695 000622  00 08 BB 	        tblwtl  W0, [W0]
 1696 000624  00 00 37 	        bra     EWENABLE0
 1697              	.endif
 1698              	
 1699 000626  00 48 00 	        .pword   paddr(IFLUSH_L)+PFLASH
 1700              	FLOCK_L:
 1701 000628  83       	        .byte   NFA|3
 1702            66 00 	        .ascii  "fl+"
 1702 00062a  6C 2B 00 
 1703              	        .align  2
 1704 00062c  D9 26 A9 	        bclr    iflags, #fLOCK
 1705 00062e  00 00 06 	        return
 1706              	
 1707 000630  00 48 00 	        .pword   paddr(FLOCK_L)+PFLASH
MPLAB ASM30 Listing:  ../src/ff-pic24-30-33.s 			page 48


 1708              	FUNLOCK_L:
 1709 000632  83       	        .byte   NFA|3
 1710            66 00 	        .ascii  "fl-"
 1710 000634  6C 2D 00 
 1711              	        .align  2
 1712 000636  D9 26 A8 	        bset    iflags, #fLOCK
 1713 000638  00 00 06 	        return
 1714              	        
 1715              	LOCKED:
 1716 00063a  D9 26 AE 	        btss    iflags, #fLOCK
 1717 00063c  00 00 06 	        return
 1718 00063e  00 60 A8 	        bset    INTCON1, #ADDRERR
 1719              	
 1720 000640  00 48 00 	        .pword   paddr(FUNLOCK_L)+PFLASH
 1721              	FCON_L:
 1722 000642  83       	        .byte   NFA|3
 1723            75 00 	        .ascii  "u1+"
 1723 000644  31 2B 00 
 1724              	        .align  2
 1725 000646  D8 46 A9 	        bclr    iflags, #fFC1
 1726 000648  00 00 06 	        return
 1727              	
 1728 00064a  00 48 00 	        .pword   paddr(FCON_L)+PFLASH
 1729              	FCOFF_L:
 1730 00064c  83       	        .byte   NFA|3
 1731            75 00 	        .ascii  "u1-"
 1731 00064e  31 2D 00 
 1732              	        .align  2
 1733 000650  D8 46 A8 	        bset    iflags, #fFC1
 1734 000652  00 00 06 	        return
 1735              	
 1736 000654  00 48 00 	        .pword   paddr(FCOFF_L)+PFLASH
 1737              	.ifdecl BAUDRATE2
 1738              	.ifdecl _U2RXREG
 1739              	FCON2_L:
 1740              	        .byte   NFA|3
 1741              	        .ascii  "u2+"
 1742              	        .align  2
 1743              	        bclr    iflags, #fFC2
 1744              	        return
 1745              	
 1746              	        .pword   paddr(FCON2_L)+PFLASH
 1747              	FCOFF2_L:
 1748              	        .byte   NFA|3
 1749              	        .ascii  "u2-"
 1750              	        .align  2
 1751              	        bset    iflags, #fFC2
 1752              	        return
 1753              	
 1754              	        .pword   paddr(FCOFF2_L)+PFLASH
 1755              	.endif
 1756              	.endif
 1757              	STORE_L:
 1758 000656  81       	        .byte   NFA|1
 1759            21 00 	        .ascii  "!"
 1760              	        .align  2
 1761              	STORE:
MPLAB ASM30 Listing:  ../src/ff-pic24-30-33.s 			page 49


 1762 000658  2E 00 78 	        mov.w   [W14--], W0
 1763 00065a  01 80 24 	        mov.w   #PFLASH, W1
 1764 00065c  01 00 E1 	        cp      W0, W1
 1765 00065e  00 00 31 	        bra     GEU, STORE1
 1766 000660  2E 08 78 	        mov.w   [W14--], [W0]
 1767 000662  00 00 06 	        return
 1768              	STORE1:
 1769              	.ifdef PEEPROM
 1770              	        mov.w   #PEEPROM, W1
 1771              	        cp      W0, W1
 1772              	        bra     GEU, ESTORE
 1773              	.endif
 1774 000664  00 00 37 	        bra     ISTORE
 1775              	
 1776 000666  00 48 00 	        .pword   paddr(STORE_L)+PFLASH
 1777              	CSTORE_L:
 1778 000668  82       	        .byte   NFA|2
 1779            63 00 	        .ascii  "c!"
 1779 00066a  21 
 1780            00 00 	        .align  2
 1781              	CSTORE:
 1782 00066c  2E 00 78 	        mov.w   [W14--], W0
 1783 00066e  01 80 24 	        mov.w   #PFLASH, W1
 1784 000670  01 00 E1 	        cp      W0, W1
 1785 000672  00 00 31 	        bra     GEU, CSTORE1
 1786 000674  1E 48 78 	        mov.b   [W14], [W0]
 1787 000676  2E 00 78 	        mov.w   [W14--], W0
 1788 000678  00 00 06 	        return
 1789              	CSTORE1:
 1790              	.ifdef PEEPROM
 1791              	        mov.w   #PEEPROM, W1
 1792              	        cp      W0, W1
 1793              	        bra     GEU, ECSTORE
 1794              	.endif
 1795 00067a  00 00 37 	        bra     ICSTORE
 1796              	
 1797 00067c  00 48 00 	        .pword   paddr(CSTORE_L)+PFLASH
 1798              	FETCH_L:
 1799 00067e  81       	        .byte   NFA|1
 1800            40 00 	        .ascii  "@"
 1801              	        .align  2
 1802              	FETCH:
 1803 000680  1E 00 78 	        mov.w   [W14], W0
 1804 000682  01 80 24 	        mov.w   #PFLASH, W1
 1805 000684  01 00 E1 	        cp      W0, W1
 1806 000686  00 00 31 	        bra     GEU, FETCH1
 1807 000688  10 0F 78 	        mov.w   [W0], [W14]
 1808 00068a  00 00 06 	        return
 1809              	FETCH1:
 1810              	.ifdef PEEPROM
 1811              	        mov.w   #PEEPROM, W1
 1812              	        cp      W0, W1
 1813              	        bra     GEU, EFETCH
 1814              	.endif
 1815 00068c  00 00 37 	        bra     IFETCH
 1816              	
 1817 00068e  00 48 00 	       .pword   paddr(FETCH_L)+PFLASH
MPLAB ASM30 Listing:  ../src/ff-pic24-30-33.s 			page 50


 1818              	CFETCH_L:
 1819 000690  82       	        .byte   NFA|2
 1820            63 00 	        .ascii  "c@"
 1820 000692  40 
 1821            00 00 	        .align  2
 1822              	CFETCH:
 1823 000694  1E 00 78 	        mov.w   [W14], W0
 1824 000696  00 0F EB 	        clr     [W14]
 1825 000698  01 80 24 	        mov.w   #PFLASH, W1
 1826 00069a  01 00 E1 	        cp      W0, W1
 1827 00069c  00 00 31 	        bra     GEU, CFETCH1
 1828 00069e  10 4F 78 	        mov.b   [W0], [W14]
 1829 0006a0  00 00 06 	        return
 1830              	CFETCH1:
 1831              	.ifdef PEEPROM
 1832              	        mov.w   #PEEPROM, W1
 1833              	        cp      W0, W1
 1834              	        bra     GEU, ECFETCH
 1835              	.endif
 1836 0006a2  00 00 37 	        bra     ICFETCH
 1837              	
 1838 0006a4  00 48 00 	        .pword  paddr(CFETCH_L)+PFLASH
 1839              	MSET_L:
 1840 0006a6  84       	        .byte   NFA|4
 1841            6D 00 	        .ascii  "mset"
 1841 0006a8  73 65 00 
 1841         74 
 1842            00 00 	        .align  2
 1843              	MSET:
 1844 0006ac  2E 00 78 	        mov     [W14--], W0
 1845 0006ae  AE 00 78 	        mov.w   [W14--], W1
 1846 0006b0  10 88 70 	        ior.w   W1, [W0],[W0] 
 1847 0006b2  00 00 06 	        return
 1848              	
 1849 0006b4  00 48 00 	        .pword  paddr(MSET_L)+PFLASH
 1850              	MCLR_L:
 1851 0006b6  84       	        .byte   NFA|4
 1852            6D 00 	        .ascii  "mclr"
 1852 0006b8  63 6C 00 
 1852         72 
 1853            00 00 	        .align  2
 1854              	MCLR:
 1855 0006bc  2E 00 78 	        mov     [W14--], W0
 1856 0006be  AE 80 EA 	        com.w   [W14--], W1
 1857 0006c0  10 88 60 	        and.w   W1, [W0],[W0] 
 1858 0006c2  00 00 06 	        return
 1859              	
 1860 0006c4  00 48 00 	        .pword  paddr(MCLR_L)+PFLASH
 1861              	MTST_L:
 1862 0006c6  84       	        .byte   NFA|4
 1863            6D 00 	        .ascii  "mtst"
 1863 0006c8  74 73 00 
 1863         74 
 1864            00 00 	        .align  2
 1865              	MTST:
 1866 0006cc  2E 00 78 	        mov     [W14--], W0
 1867 0006ce  AE 00 78 	        mov     [W14--], W1
MPLAB ASM30 Listing:  ../src/ff-pic24-30-33.s 			page 51


 1868 0006d0  10 80 60 	        and.w   W1, [W0], W0
 1869 0006d2  00 2F 78 	        mov     W0, [++W14] 
 1870 0006d4  00 00 06 	        return
 1871              	
 1872              	; bset ( base-addr bit-index -- )
 1873 0006d6  00 48 00 	        .pword  paddr(MTST_L)+PFLASH
 1874              	BSET__L:
 1875 0006d8  84       	        .byte   NFA|4
 1876            62 00 	        .ascii  "bset"
 1876 0006da  73 65 00 
 1876         74 
 1877            00 00 	        .align  2
 1878              	BSET__:
 1879 0006de  2E 00 78 	        mov.w   [W14--], W0
 1880 0006e0  AE 00 78 	        mov.w   [W14--], W1
 1881 0006e2  43 01 DE 	        lsr     W0, #3, W2
 1882 0006e4  81 00 41 	        add     W2, W1, W1
 1883 0006e6  01 00 A1 	        bclr    W1, #0
 1884 0006e8  00 00 A8 	        bset    SR, #C
 1885 0006ea  11 00 AD 	        bsw.c   [W1], W0
 1886 0006ec  00 00 06 	        return
 1887              	
 1888              	
 1889              	; bclr ( base-addr bit-index -- )
 1890 0006ee  00 48 00 	        .pword  paddr(BSET__L)+PFLASH
 1891              	BCLR__L:
 1892 0006f0  84       	        .byte   NFA|4
 1893            62 00 	        .ascii  "bclr"
 1893 0006f2  63 6C 00 
 1893         72 
 1894            00 00 	        .align  2
 1895              	BCLR__:
 1896 0006f6  2E 00 78 	        mov.w   [W14--], W0
 1897 0006f8  AE 00 78 	        mov.w   [W14--], W1
 1898 0006fa  43 01 DE 	        lsr     W0, #3, W2
 1899 0006fc  81 00 41 	        add     W2, W1, W1
 1900 0006fe  01 00 A1 	        bclr    W1, #0
 1901 000700  00 00 A9 	        bclr    SR, #C
 1902 000702  11 00 AD 	        bsw.c   [W1], W0
 1903 000704  00 00 06 	        return
 1904              	
 1905              	; btst ( base-addr bit-index -- f )
 1906 000706  00 48 00 	        .pword  paddr(BCLR__L)+PFLASH
 1907              	BTST__L:
 1908 000708  84       	        .byte   NFA|4
 1909            62 00 	        .ascii  "btst"
 1909 00070a  74 73 00 
 1909         74 
 1910            00 00 	        .align  2
 1911              	BTST__:
 1912 00070e  2E 00 78 	        mov.w   [W14--], W0
 1913 000710  AE 00 78 	        mov.w   [W14--], W1
 1914 000712  43 01 DE 	        lsr     W0, #3, W2
 1915 000714  81 00 41 	        add     W2, W1, W1
 1916 000716  01 00 A1 	        bclr    W1, #0
 1917 000718  11 00 A5 	        btst.c  [W1], W0
 1918 00071a  81 80 D3 	        rrc     W1, W1
MPLAB ASM30 Listing:  ../src/ff-pic24-30-33.s 			page 52


 1919 00071c  4F 88 DE 	        asr     W1, #15, W0
 1920 00071e  00 2F 78 	        mov     W0, [++W14]
 1921 000720  00 00 06 	        return
 1922              	
 1923 000722  00 48 00 	        .pword  paddr(BTST__L)+PFLASH
 1924              	LSHIFT_L:
 1925 000724  86       	        .byte   NFA|6
 1926            6C 00 	        .ascii  "lshift"
 1926 000726  73 68 00 
 1926         69 66 00 
 1926         74 
 1927            00 00 	        .align  2
 1928              	LSHIFT:
 1929 00072c  2E 00 78 	        mov.w   [W14--], W0
 1930 00072e  AE 00 78 	        mov     [W14--], W1
 1931 000730  00 08 DD 	        sl      W1, W0, W0
 1932 000732  00 2F 78 	        mov     W0, [++W14]
 1933 000734  00 00 06 	        return
 1934              	
 1935 000736  00 48 00 	        .pword  paddr(LSHIFT_L)+PFLASH
 1936              	RSHIFT_L:
 1937 000738  86       	        .byte   NFA|6
 1938            72 00 	        .ascii  "rshift"
 1938 00073a  73 68 00 
 1938         69 66 00 
 1938         74 
 1939            00 00 	        .align  2
 1940              	RSHIFT:
 1941 000740  2E 00 78 	        mov.w   [W14--], W0
 1942 000742  AE 00 78 	        mov     [W14--], W1
 1943 000744  00 08 DE 	        lsr     W1, W0, W0
 1944 000746  00 2F 78 	        mov     W0, [++W14]
 1945 000748  00 00 06 	        return
 1946              	
 1947 00074a  00 48 00 	        .pword  paddr(RSHIFT_L)+PFLASH
 1948              	NEQUAL_L:
 1949 00074c  82       	        .byte   NFA|2
 1950            6E 00 	        .ascii  "n="
 1950 00074e  3D 
 1951            00 00 	        .align  2
 1952              	NEQUAL:
 1953 000750  AE 01 78 	        mov.w   [W14--], W3     ; count
 1954 000752  2E 02 78 	        mov.w   [W14--], W4     ; caddr2 in flash
 1955 000754  9E 02 78 	        mov.w   [W14], W5       ; caddr1 in ram
 1956 000756  04 0F 78 	        mov.w   W4, [W14]
 1957 000758  00 00 07 	        rcall   CFETCH          ; nfu
 1958 00075a  1E 00 78 	        mov.w   [W14], W0
 1959 00075c  F0 00 B2 	        and.w   #NFL, W0
 1960 00075e  03 04 E1 	        cp.b    W0, W3
 1961 000760  00 00 3A 	        bra     nz, NEQUAL_TRUE
 1962              	NEQUAL1:
 1963 000762  04 02 E8 	        inc     W4, W4
 1964 000764  85 02 E8 	        inc     W5, W5
 1965 000766  04 0F 78 	        mov.w   W4, [W14]
 1966 000768  00 00 07 	        rcall   CFETCH
 1967 00076a  05 2F 78 	        mov.w   W5, [++W14]
 1968 00076c  00 00 07 	        rcall   CFETCH
MPLAB ASM30 Listing:  ../src/ff-pic24-30-33.s 			page 53


 1969 00076e  2E 00 78 	        mov.w   [W14--], W0
 1970 000770  1E 04 E1 	        cp.b    W0, [W14]
 1971 000772  00 00 3A 	        bra     nz, NEQUAL_TRUE
 1972 000774  83 01 E9 	        dec     W3, W3
 1973 000776  00 00 3A 	        bra     nz, NEQUAL1
 1974 000778  00 0F EB 	        clr.w   [W14]
 1975 00077a  00 00 06 	        return
 1976              	NEQUAL_TRUE:
 1977 00077c  00 8F EB 	        setm.w  [W14]
 1978 00077e  00 00 06 	        return
 1979              	
 1980              	; SKIP   c-addr u c -- c-addr' u'
 1981              	;                          skip matching chars
 1982 000780  00 48 00 	        .pword  paddr(NEQUAL_L)+PFLASH
 1983              	SKIP_L:
 1984 000782  84       	        .byte   NFA|4
 1985            73 00 	        .ascii  "skip"
 1985 000784  6B 69 00 
 1985         70 
 1986            00 00 	        .align  2
 1987              	SKIP:
 1988 000788  AE 01 78 	        mov     [W14--], W3     ; char
 1989 00078a  2E 02 78 	        mov     [W14--], W4     ; count 
 1990 00078c  AE 02 78 	        mov     [W14--], W5     ; c-addr
 1991 00078e  04 00 E0 	        cp0     W4
 1992 000790  00 00 32 	        bra     z, SKIP2
 1993              	SKIP0:
 1994 000792  05 2F 78 	        mov     W5, [++W14]
 1995 000794  00 00 07 	        rcall   CFETCH
 1996 000796  2E 00 78 	        mov     [w14--], w0
 1997 000798  69 04 E1 	        cp.b    w0, #9
 1998 00079a  00 00 32 	        bra     z, SKIP1
 1999 00079c  00 1C E1 	        cp.b    w3, w0
 2000 00079e  00 00 32 	        bra     z, SKIP1
 2001 0007a0  00 00 37 	        bra     SKIP2
 2002              	SKIP1:
 2003 0007a2  85 02 E8 	        inc     W5, w5
 2004 0007a4  04 02 E9 	        dec     w4, w4
 2005 0007a6  00 00 3A 	        bra     nz, SKIP0
 2006              	SKIP2:
 2007 0007a8  05 2F 78 	        mov     w5, [++w14]
 2008 0007aa  04 2F 78 	        mov     w4, [++w14]
 2009 0007ac  00 00 06 	        return
 2010              	
 2011 0007ae  00 48 00 	        .pword  paddr(SKIP_L)+PFLASH
 2012              	SCAN_L:
 2013 0007b0  84       	        .byte   NFA|4
 2014            73 00 	        .ascii  "scan"
 2014 0007b2  63 61 00 
 2014         6E 
 2015            00 00 	        .align  2
 2016              	SCAN:
 2017 0007b6  AE 01 78 	        mov     [W14--], W3     ; c
 2018 0007b8  2E 02 78 	        mov     [W14--], W4     ; count
 2019 0007ba  AE 02 78 	        mov     [W14--], W5     ; c-addr
 2020 0007bc  04 00 E0 	        cp0     W4
 2021 0007be  00 00 32 	        bra     z, SCAN3
MPLAB ASM30 Listing:  ../src/ff-pic24-30-33.s 			page 54


 2022              	SCAN0:
 2023 0007c0  05 2F 78 	        mov     W5, [++W14]
 2024 0007c2  00 00 07 	        rcall   CFETCH
 2025 0007c4  2E 00 78 	        mov     [w14--], w0
 2026 0007c6  69 04 E1 	        cp.b    w0, #9
 2027 0007c8  00 00 32 	        bra     z, SCAN3
 2028              	SCAN2:
 2029 0007ca  03 04 E1 	        cp.b    w0, W3
 2030 0007cc  00 00 32 	        bra     z, SCAN3
 2031 0007ce  85 02 E8 	        inc     w5, w5
 2032 0007d0  04 02 E9 	        dec     W4, w4
 2033 0007d2  00 00 3A 	        bra     nz, SCAN0
 2034              	SCAN3:
 2035 0007d4  05 2F 78 	        mov     W5, [++W14]
 2036 0007d6  04 2F 78 	        mov     W4, [++W14]
 2037 0007d8  00 00 06 	        return
 2038              	
 2039 0007da  00 48 00 	        .pword  paddr(SCAN_L)+PFLASH
 2040              	EMIT_L:
 2041 0007dc  84       	        .byte   NFA|4
 2042            65 00 	        .ascii  "emit"
 2042 0007de  6D 69 00 
 2042         74 
 2043            00 00 	        .align  2
 2044              	EMIT:
 2045 0007e2  00 00 07 	        rcall   UEMIT
 2046 0007e4  00 00 04 	        goto    FEXECUTE
 2046         00 00 00 
 2047              	
 2048 0007e8  00 48 00 	        .pword  paddr(EMIT_L)+PFLASH
 2049              	KEY_L:
 2050 0007ea  83       	        .byte   NFA|3
 2051            6B 00 	        .ascii  "key"
 2051 0007ec  65 79 00 
 2052              	        .align  2
 2053              	KEY:
 2054 0007ee  00 00 07 	        rcall   UKEY
 2055 0007f0  00 00 04 	        goto    FEXECUTE
 2055         00 00 00 
 2056              	
 2057 0007f4  00 48 00 	        .pword  paddr(KEY_L)+PFLASH
 2058              	KEYQ_L:
 2059 0007f6  84       	        .byte   NFA|4
 2060            6B 00 	        .ascii  "key?"
 2060 0007f8  65 79 00 
 2060         3F 
 2061            00 00 	        .align  2
 2062              	KEYQ:
 2063 0007fc  00 00 07 	        rcall   UKEYQ
 2064 0007fe  00 00 04 	        goto    FEXECUTE
 2064         00 00 00 
 2065              	
 2066 000802  00 48 00 	        .pword  paddr(KEYQ_L)+PFLASH
 2067              	UEMIT_L:
 2068 000804  85       	        .byte   NFA|5
 2069            27 00 	        .ascii  "'emit"
 2069 000806  65 6D 00 
MPLAB ASM30 Listing:  ../src/ff-pic24-30-33.s 			page 55


 2069         69 74 00 
 2070              	        .align  2
 2071              	UEMIT:
 2072 00080a  00 00 07 	        rcall   DOUSER
 2073 00080c  E4 FF 00 	        .word   uemit
 2074              	
 2075 00080e  00 48 00 	        .pword  paddr(UEMIT_L)+PFLASH
 2076              	UKEY_L:
 2077 000810  84       	        .byte   NFA|4
 2078            27 00 	        .ascii  "'key"
 2078 000812  6B 65 00 
 2078         79 
 2079            00 00 	        .align  2
 2080              	UKEY:
 2081 000816  00 00 07 	        rcall   DOUSER
 2082 000818  E6 FF 00 	        .word   ukey
 2083              	
 2084 00081a  00 48 00 	        .pword  paddr(UKEY_L)+PFLASH
 2085              	UKEYQ_L:
 2086 00081c  85       	        .byte   NFA|5
 2087            27 00 	        .ascii  "'key?"
 2087 00081e  6B 65 00 
 2087         79 3F 00 
 2088              	        .align  2
 2089              	UKEYQ:
 2090 000822  00 00 07 	        rcall   DOUSER
 2091 000824  E8 FF 00 	        .word   ukeyq
 2092              	
 2093              	; >CQ ( c addr -- ) Put to character queue
 2094 000826  00 48 00 	        .pword  paddr(UKEYQ_L)+PFLASH
 2095              	CQUEUE_TO_L:
 2096 000828  83       	        .byte   NFA|3
 2097            3E 00 	        .ascii  ">cq"
 2097 00082a  63 71 00 
 2098              	        .align  2
 2099              	CQUEUE_TO:
 2100 00082c  00 00 07 	        rcall   FETCH
 2101 00082e  2E 00 78 	        mov     [W14--], W0 ; W0 is the base pointer (length)
 2102 000830  0B 00 FC 	        disi    #11
 2103 000832  90 00 90 	        mov     [W0+2], W1      ; W1 is the write pointer
 2104 000834  9E 58 78 	        mov.b   [W14], [W1++]
 2105 000836  62 07 57 	        sub     W14, #2, W14
 2106 000838  10 01 40 	        add     W0, [W0], W2
 2107 00083a  68 01 41 	        add     W2, #8, W2      ; W2 is the end of buffer pointer
 2108 00083c  01 10 E1 	        cp      W2, W1          ; end of buf - write pointer
 2109 00083e  00 00 3B 	        bra     nn, CQUEUE_TO_1
 2110 000840  E8 00 40 	        add     W0, #8, W1
 2111              	CQUEUE_TO_1:        
 2112 000842  11 00 98 	        mov     W1, [W0+2]
 2113 000844  66 00 40 	        add     W0, #6, W0
 2114 000846  10 08 E8 	        inc     [W0], [W0]
 2115 000848  00 00 06 	        return
 2116              	
 2117              	; >CQ? ( addr -- flag ) Space available ? false = queue is full
 2118 00084a  00 48 00 	        .pword  paddr(CQUEUE_TO_L)+PFLASH
 2119              	CQUEUE_TOQ_L:
 2120 00084c  84       	        .byte   NFA|4
MPLAB ASM30 Listing:  ../src/ff-pic24-30-33.s 			page 56


 2121            3E 00 	        .ascii  ">cq?"
 2121 00084e  63 71 00 
 2121         3F 
 2122            00 00 	        .align  2
 2123              	CQUEUE_TOQ:
 2124 000852  00 00 07 	        rcall   FETCH
 2125 000854  1E 00 78 	        mov     [W14], W0   ; W0 is the base pointer (length)
 2126 000856  02 00 FC 	        disi    #2
 2127 000858  B0 00 90 	        mov     [W0+6], W1      ; W1 = FillLevel
 2128 00085a  90 80 50 	        sub     W1, [W0], W1    ; W1 = Fill - maxLength
 2129 00085c  CF 88 DE 	        asr     W1, #15, W1     ; Extend the sign bit to a flag
 2130 00085e  01 0F 78 	        mov     W1, [W14]
 2131 000860  00 00 06 	        return
 2132              	
 2133              	; CQ> ( addr -- c) Get from character queue
 2134 000862  00 48 00 	        .pword  paddr(CQUEUE_TOQ_L)+PFLASH
 2135              	CQUEUE_FROM_L:
 2136 000864  83       	        .byte   NFA|3
 2137            63 00 	        .ascii  "cq>"
 2137 000866  71 3E 00 
 2138              	        .align  2
 2139              	CQUEUE_FROM:
 2140 000868  00 00 07 	        rcall   FETCH
 2141 00086a  1E 00 78 	        mov     [W14], W0       ; W0 is the base pointer (length)
 2142 00086c  00 0F EB 	        clr     [W14]           ; Zero the upper byte of the result
 2143 00086e  10 01 40 	        add     W0, [W0], W2    ; W2 = 
 2144 000870  68 01 41 	        add     W2, #8, W2      ; W2 is the end of buffer pointer
 2145 000872  09 00 FC 	        disi    #9
 2146 000874  A0 00 90 	        mov     [W0+4], W1      ; W1 is the read pointer
 2147 000876  31 4F 78 	        mov.b   [W1++], [W14]   ; remember the unqueued character
 2148 000878  01 10 E1 	        cp      W2, W1          ; end of buf - read pointer
 2149 00087a  00 00 3B 	        bra     nn, CQUEUE_FROM_1
 2150 00087c  E8 00 40 	        add     W0, #8, W1      ; New read pointer
 2151              	CQUEUE_FROM_1:      
 2152 00087e  21 00 98 	        mov     W1, [W0+4]      ; Store the new read pointer
 2153 000880  66 00 40 	        add     W0, #6, W0
 2154 000882  10 08 E9 	        dec     [W0], [W0]
 2155 000884  00 00 06 	        return
 2156              	
 2157              	; CQ>? ( addr -- flag ) Character available ? false = no
 2158 000886  00 48 00 	        .pword  paddr(CQUEUE_FROM_L)+PFLASH
 2159              	CQUEUE_FROMQ_L:
 2160 000888  84       	        .byte   NFA|4
 2161            63 00 	        .ascii  "cq>?"
 2161 00088a  71 3E 00 
 2161         3F 
 2162            00 00 	        .align  2
 2163              	CQUEUE_FROMQ:
 2164 00088e  00 00 07 	        rcall   FETCH
 2165 000890  1E 00 78 	        mov     [W14], W0
 2166 000892  B0 00 90 	        mov     [W0+6], W1      ; Atomic, disi not needed.
 2167 000894  01 0F 78 	        mov     W1, [W14]
 2168 000896  00 00 06 	        return
 2169              	
 2170              	; CQ0 ( addr -- ) Reset a character queue 
 2171 000898  00 48 00 	        .pword  paddr(CQUEUE_FROMQ_L)+PFLASH
 2172              	CQUEUEZ_L:
MPLAB ASM30 Listing:  ../src/ff-pic24-30-33.s 			page 57


 2173 00089a  83       	        .byte   NFA|3
 2174            63 00 	        .ascii  "cq0"
 2174 00089c  71 30 00 
 2175              	        .align  2
 2176              	CQUEUEZ:
 2177 00089e  00 00 07 	        rcall   FETCHPP         ; addr baseaddr
 2178 0008a0  00 00 07 	        rcall   SWOP
 2179 0008a2  00 00 07 	        rcall   FETCH           ; baseaddr size
 2180 0008a4  2E 01 78 	        mov     [W14--], W2     ; size
 2181 0008a6  02 81 E9 	        dec2    W2, W2          ; Leave two empty pos in the queue
 2182 0008a8  AE 00 78 	        mov     [W14--], W1     ; W1 points to the base
 2183 0008aa  05 00 FC 	        disi    #5
 2184 0008ac  82 08 78 	        mov     W2, [W1]        ; Store the size
 2185 0008ae  68 80 40 	        add     W1, #8, W0
 2186 0008b0  80 28 78 	        mov     W0, [++W1]      ; Write pointer
 2187 0008b2  80 28 78 	        mov     W0, [++W1]      ; Read pointer
 2188 0008b4  80 28 EB 	        clr     [++W1]          ; Fill level
 2189 0008b6  00 00 06 	        return
 2190              	    
 2191              	; CQ: ( size "name" -- ) Create a character queue
 2192 0008b8  00 48 00 	        .pword  paddr(CQUEUEZ_L)+PFLASH
 2193              	CQUEUE_L:
 2194 0008ba  83       	        .byte   NFA|3
 2195            63 00 	        .ascii  "cq:"
 2195 0008bc  71 3A 00 
 2196              	        .align  2
 2197              	CQUEUE:
 2198 0008be  00 00 07 	        rcall   FLASH
 2199 0008c0  00 00 07 	        rcall   CREATE
 2200 0008c2  00 00 07 	        rcall   RHERE
 2201 0008c4  00 00 07 	        rcall   COMMA
 2202 0008c6  3E 0F 78 	        mov     [W14++], [W14]      ; dup
 2203 0008c8  1E 0F E9 	        dec     [W14], [W14]
 2204 0008ca  00 00 07 	        rcall   COMMA
 2205              	        mlit    8
 2205 0008cc  80 00 20 	> mov #8,w0
 2205 0008ce  00 2F 78 	> mov w0,[++w14]
 2206 0008d0  00 00 07 	        rcall   PLUS
 2207 0008d2  00 00 07 	        rcall   RAM
 2208 0008d4  00 00 07 	        rcall   ALLOT
 2209 0008d6  00 00 07 	        rcall   XDOES
 2210              	CQUEUE_DOES:
 2211 0008d8  00 00 07 	        rcall   DODOES
 2212 0008da  00 00 06 	        return
 2213              	
 2214 0008dc  00 48 00 	        .pword  paddr(CQUEUE_L)+PFLASH
 2215              	.if TX1_BUF_SIZE > 0
 2216              	U1TXQUEUE_L:
 2217 0008de  A5       	        .byte   NFA|INLINE|5
 2218            75 00 	        .ascii  "u1txq"
 2218 0008e0  31 74 00 
 2218         78 71 00 
 2219              	        .align  2
 2220              	U1TXQUEUE:
 2221              	        mlit    handle(U1TXQUEUE_DATA)+PFLASH
 2221 0008e4  00 80 24 	> mov #handle(U1TXQUEUE_DATA)+PFLASH,w0
 2221 0008e6  00 2F 78 	> mov w0,[++w14]
MPLAB ASM30 Listing:  ../src/ff-pic24-30-33.s 			page 58


 2222 0008e8  00 00 06 	        return
 2223              	U1TXQUEUE_DATA:
 2224 0008ea  00 00 00 	        .word   txqueue1
 2225 0008ec  3F 00 00 	        .word   TX1_BUF_SIZE-1
 2226              	
 2227 0008ee  00 48 00 	        .pword  paddr(U1TXQUEUE_L)+PFLASH
 2228              	.endif
 2229              	U1RXQUEUE_L:
 2230 0008f0  A5       	        .byte   NFA|INLINE|5
 2231            75 00 	        .ascii  "u1rxq"
 2231 0008f2  31 72 00 
 2231         78 71 00 
 2232              	        .align  2
 2233              	U1RXQUEUE:
 2234              	        mlit    handle(U1RXQUEUE_DATA)+PFLASH
 2234 0008f6  00 80 24 	> mov #handle(U1RXQUEUE_DATA)+PFLASH,w0
 2234 0008f8  00 2F 78 	> mov w0,[++w14]
 2235 0008fa  00 00 06 	        return
 2236              	U1RXQUEUE_DATA:
 2237 0008fc  00 00 00 	        .word   rxqueue1
 2238 0008fe  7F 00 00 	        .word   RX1_BUF_SIZE-1
 2239              	
 2240 000900  00 48 00 	        .pword  paddr(U1RXQUEUE_L)+PFLASH
 2241              	TX1_L:
 2242 000902  83       	        .byte   NFA|3
 2243            74 00 	        .ascii  "tx1"
 2243 000904  78 31 00 
 2244              	        .align  2
 2245              	TX1:
 2246 000906  D9 E6 A8 	        bset    iflags, #fBUSY
 2247 000908  00 00 07 	        rcall   PAUSE
 2248 00090a  00 00 07 	        rcall   TX1Q
 2249 00090c  2E 00 E0 	        cp0     [W14--]
 2250 00090e  00 00 32 	        bra     z, TX1
 2251              	TX1_1:
 2252 000910  D9 E6 A9 	        bclr    iflags, #fBUSY
 2253              	.if TX1_BUF_SIZE > 0
 2254 000912  00 00 07 	        rcall   U1TXQUEUE
 2255 000914  00 00 07 	        rcall   CQUEUE_TO
 2256 000916  01 80 A8 	        bset    IFS0, #U1TXIF       ; check if UART TX has space
 2257              	.else
 2258              	        mov     [W14--], W0
 2259              	        mov     W0, U1TXREG
 2260              	.endif
 2261 000918  00 00 06 	        return
 2262              	
 2263 00091a  00 48 00 	        .pword  paddr(TX1_L)+PFLASH
 2264              	TX1Q_L:
 2265 00091c  84       	        .byte   NFA|4
 2266            74 00 	        .ascii  "tx1?"
 2266 00091e  78 31 00 
 2266         3F 
 2267            00 00 	        .align  2
 2268              	TX1Q:
 2269              	.if TX1_BUF_SIZE > 0
 2270              	        mlit    handle(U1TXQUEUE_DATA)+PFLASH
 2270 000922  00 80 24 	> mov #handle(U1TXQUEUE_DATA)+PFLASH,w0
MPLAB ASM30 Listing:  ../src/ff-pic24-30-33.s 			page 59


 2270 000924  00 2F 78 	> mov w0,[++w14]
 2271 000926  00 00 04 	        goto    CQUEUE_TOQ
 2271         00 00 00 
 2272              	.else
 2273              	        btsc    U1STA, #TRMT
 2274              	        bra     TRUE_
 2275              	        goto    FALSE_
 2276              	.endif
 2277 00092a  00 48 00 	        .pword  paddr(TX1Q_L)+PFLASH
 2278              	RX1_L:
 2279 00092c  83       	        .byte   NFA|3
 2280            72 00 	        .ascii  "rx1"
 2280 00092e  78 31 00 
 2281              	        .align  2
 2282              	RX1:
 2283 000930  00 00 07 	        rcall   PAUSE
 2284 000932  00 00 07 	        rcall   RX1Q
 2285 000934  2E 00 E0 	        cp0     [W14--]
 2286 000936  00 00 32 	        bra     z, RX1
 2287              	        mlit    handle(U1RXQUEUE_DATA)+PFLASH
 2287 000938  00 80 24 	> mov #handle(U1RXQUEUE_DATA)+PFLASH,w0
 2287 00093a  00 2F 78 	> mov w0,[++w14]
 2288 00093c  00 00 07 	        rcall   CQUEUE_FROM
 2289 00093e  00 00 06 	        return
 2290              	
 2291 000940  00 48 00 	        .pword  paddr(RX1_L)+PFLASH
 2292              	RX1Q_L:
 2293 000942  84       	        .byte   NFA|4
 2294            72 00 	        .ascii  "rx1?"
 2294 000944  78 31 00 
 2294         3F 
 2295            00 00 	        .align  2
 2296              	RX1Q:
 2297              	        mlit    handle(U1RXQUEUE_DATA)+PFLASH
 2297 000948  00 80 24 	> mov #handle(U1RXQUEUE_DATA)+PFLASH,w0
 2297 00094a  00 2F 78 	> mov w0,[++w14]
 2298 00094c  00 00 07 	        rcall   CQUEUE_FROMQ
 2299 00094e  1E 00 E0 	        cp0     [W14]
 2300 000950  00 00 3A 	        bra     nz, RX1Q1
 2301 000952  D8 46 AF 	        btsc    iflags, #fFC1
 2302 000954  00 00 37 	        bra     RX1Q1      
 2303              	.if FC1_TYPE == 1
 2304 000956  D8 26 AB 	        btst    iflags, #ixoff1
 2305 000958  00 00 32 	        bra     z, RX1Q1
 2306 00095a  D8 26 A9 	        bclr    iflags, #ixoff1
 2307              	;        mlit    '>'
 2308              	;        rcall   TX1
 2309              	        mlit    XON
 2309 00095c  10 01 20 	> mov #XON,w0
 2309 00095e  00 2F 78 	> mov w0,[++w14]
 2310 000960  00 00 07 	        rcall   TX1
 2311              	.else
 2312              	.if FC1_TYPE == 2
 2313              	        cp0     rbuf_lv1
 2314              	        bra     nz, RX1Q1
 2315              	        bclr    U1RTSPORT, #U1RTSPIN
 2316              	.endif
MPLAB ASM30 Listing:  ../src/ff-pic24-30-33.s 			page 60


 2317              	.endif
 2318              	RX1Q1:
 2319 000962  00 00 06 	        return
 2320              	
 2321 000964  00 48 00 	        .pword  paddr(RX1Q_L)+PFLASH
 2322              	.ifdecl BAUDRATE2
 2323              	.ifdecl _U2RXREG
 2324              	.if TX2_BUF_SIZE > 0
 2325              	U2TXQUEUE_L:
 2326              	        .byte   NFA|INLINE|5
 2327              	        .ascii  "u2txq"
 2328              	        .align  2
 2329              	U2TXQUEUE:
 2330              	        mlit    handle(U2TXQUEUE_DATA)+PFLASH
 2331              	        return
 2332              	U2TXQUEUE_DATA:
 2333              	        .word   txqueue2
 2334              	        .word   TX2_BUF_SIZE-1
 2335              	
 2336              	        .pword  paddr(U2TXQUEUE_L)+PFLASH
 2337              	.endif
 2338              	U2RXQUEUE_L:
 2339              	        .byte   NFA|INLINE|5
 2340              	        .ascii  "u2rxq"
 2341              	        .align  2
 2342              	U2RXQUEUE:
 2343              	        mlit    handle(U2RXQUEUE_DATA)+PFLASH
 2344              	        return
 2345              	U2RXQUEUE_DATA:
 2346              	        .word   rxqueue2
 2347              	        .word   RX2_BUF_SIZE-1
 2348              	
 2349              	        .pword  paddr(U2RXQUEUE_L)+PFLASH
 2350              	TX2_L:
 2351              	        .byte   NFA|3
 2352              	        .ascii  "tx2"
 2353              	        .align  2
 2354              	TX2:    
 2355              	        bset    iflags, #fBUSY
 2356              	        rcall   PAUSE
 2357              	        rcall   TX2Q
 2358              	        cp0     [W14--]
 2359              	        bra     z, TX2
 2360              	        bclr    iflags, #fBUSY
 2361              	.if TX1_BUF_SIZE > 0
 2362              	        rcall   U2TXQUEUE
 2363              	        rcall   CQUEUE_TO
 2364              	        bset    IFS1, #U2TXIF       ; check if UART TX has space
 2365              	.else
 2366              	        mov     [W14--], W0
 2367              	        mov     W0, U2TXREG
 2368              	.endif
 2369              	TX2_2:
 2370              	        return
 2371              	
 2372              	        .pword  paddr(TX2_L)+PFLASH
 2373              	TX2Q_L:
MPLAB ASM30 Listing:  ../src/ff-pic24-30-33.s 			page 61


 2374              	        .byte   NFA|4
 2375              	        .ascii  "tx2?"
 2376              	        .align  2
 2377              	TX2Q:
 2378              	.if TX1_BUF_SIZE > 0
 2379              	        mlit    handle(U2TXQUEUE_DATA)+PFLASH
 2380              	        goto    CQUEUE_TOQ
 2381              	.else
 2382              	        btsc    U2STA, #TRMT
 2383              	        bra     TRUE_
 2384              	        goto    FALSE_
 2385              	.endif
 2386              	        .pword  paddr(TX2Q_L)+PFLASH
 2387              	RX2_L:
 2388              	        .byte   NFA|3
 2389              	        .ascii  "rx2"
 2390              	        .align  2
 2391              	RX2:
 2392              	        rcall   PAUSE
 2393              	        rcall   RX2Q
 2394              	        cp0     [W14--]
 2395              	        bra     z, RX2
 2396              	        mlit    handle(U2RXQUEUE_DATA)+PFLASH
 2397              	        rcall   CQUEUE_FROM
 2398              	        return
 2399              	
 2400              	        .pword  paddr(RX2_L)+PFLASH
 2401              	RX2Q_L:
 2402              	        .byte   NFA|4
 2403              	        .ascii  "rx2?"
 2404              	        .align  2
 2405              	RX2Q:
 2406              	        mlit    handle(U2RXQUEUE_DATA)+PFLASH
 2407              	        rcall   CQUEUE_FROMQ
 2408              	        cp0     [W14]
 2409              	        bra     nz, RX2Q1
 2410              	        btss    iflags, #fFC2
 2411              	        bra     RX2Q1      
 2412              	.if FC2_TYPE == 1
 2413              	        btst    iflags, #ixoff2
 2414              	        bra     z, RX2Q1
 2415              	        bclr    iflags, #ixoff2
 2416              	        mlit    XON
 2417              	        rcall   TX2
 2418              	.else
 2419              	.if FC1_TYPE == 2
 2420              	        cp0     rbuf_lv2
 2421              	        bra     nz, RX2Q1
 2422              	        bclr    U2RTSPORT, #U2RTSPIN
 2423              	.endif
 2424              	.endif
 2425              	RX2Q1:
 2426              	        return
 2427              	
 2428              	        .pword  paddr(RX2Q_L)+PFLASH
 2429              	.endif
 2430              	.endif
MPLAB ASM30 Listing:  ../src/ff-pic24-30-33.s 			page 62


 2431              	DUP_L:
 2432 000966  A3       	        .byte   NFA|INLINE|3
 2433            64 00 	        .ascii  "dup"
 2433 000968  75 70 00 
 2434              	        .align  2
 2435              	DUP:
 2436 00096a  3E 0F 78 	        mov.w   [W14++], [W14]
 2437 00096c  00 00 06 	        return
 2438              	
 2439 00096e  00 48 00 	        .pword  paddr(DUP_L)+PFLASH
 2440              	EXECUTE_L:
 2441 000970  87       	        .byte   NFA|7
 2442            65 00 	        .ascii  "execute"
 2442 000972  78 65 00 
 2442         63 75 00 
 2442         74 65 00 
 2443              	        .align  2
 2444              	EXECUTE:
 2445 000978  2E 00 78 	        mov.w   [W14--], W0
 2446 00097a  01 80 24 	        mov     #PFLASH, W1
 2447 00097c  01 00 50 	        sub     W0, W1, W0
 2448 00097e  00 40 01 	        goto    W0
 2449              	
 2450 000980  00 48 00 	        .pword  paddr(EXECUTE_L)+PFLASH
 2451              	FEXECUTE_L:
 2452 000982  83       	        .byte   NFA|3
 2453            40 00 	        .ascii  "@ex"
 2453 000984  65 78 00 
 2454              	        .align  2
 2455              	FEXECUTE:
 2456 000986  00 00 07 	        rcall   FETCH
 2457 000988  2E 00 78 	        mov.w   [W14--], W0
 2458 00098a  01 80 24 	        mov     #PFLASH, W1
 2459 00098c  01 00 50 	        sub     W0, W1, W0
 2460 00098e  00 40 01 	        goto    W0
 2461              	
 2462 000990  00 48 00 	        .pword  paddr(FEXECUTE_L)+PFLASH
 2463              	EXIT_L:
 2464 000992  94       	        .byte   NFA|COMPILE|4
 2465            65 00 	        .ascii  "exit"
 2465 000994  78 69 00 
 2465         74 
 2466            00 00 	        .align  2
 2467              	EXIT:
 2468 000998  4F 00 B1 	        sub     #4, W15
 2469 00099a  00 00 06 	        return
 2470              	
 2471 00099c  93       	        .byte   NFA|COMPILE|3
 2472            28 00 	        .ascii  "(,)"
 2472 00099e  2C 29 00 
 2473              	        .align  2
 2474              	DOCOMMAXT:
 2475 0009a0  CF 00 78 	         pop    W1
 2476 0009a2  4F 00 78 	         pop    W0
 2477 0009a4  30 2F BA 	         tblrdl [W0++], [++W14]
 2478 0009a6  80 1F 78 	         push   W0
 2479 0009a8  81 1F 78 	         push   W1
MPLAB ASM30 Listing:  ../src/ff-pic24-30-33.s 			page 63


 2480 0009aa  00 00 04 	         goto   COMMAXT
 2480         00 00 00 
 2481              	
 2482 0009ae  00 48 00 	        .pword  paddr(EXIT_L)+PFLASH
 2483              	DOCREATE_L:
 2484 0009b0  93       	        .byte   NFA|COMPILE|3
 2485            28 00 	        .ascii  "(c)"
 2485 0009b2  63 29 00 
 2486              	        .align  2
 2487              	DOCREATE:
 2488 0009b4  6F B8 97 	        mov.w   [W15-4], W0
 2489              	.ifdef PEEPROM
 2490              	        clr     TBLPAG
 2491              	.endif
 2492 0009b6  10 2F BA 	        tblrdl  [W0], [++W14]
 2493 0009b8  4F 00 B1 	        sub     #4, W15
 2494 0009ba  00 00 06 	        return
 2495              	DOEMIT:
 2496 0009bc  6F B8 97 	        mov.w   [W15-4], W0
 2497              	.ifdef PEEPROM
 2498              	        clr     TBLPAG
 2499              	.endif
 2500 0009be  30 2F BA 	        tblrdl  [W0++], [++W14]
 2501 0009c0  E0 BF 9F 	        mov.w   W0, [W15-4]
 2502 0009c2  00 00 04 	        goto    EMIT
 2502         00 00 00 
 2503              	
 2504 0009c6  00 48 00 	        .pword  paddr(DOCREATE_L)+PFLASH
 2505              	DODOES_L:
 2506 0009c8  93       	        .byte   NFA|COMPILE|3
 2507            28 00 	        .ascii  "(d)"
 2507 0009ca  64 29 00 
 2508              	        .align  2
 2509              	DODOES:
 2510 0009cc  4F 00 78 	        pop     W0
 2511 0009ce  4F 00 78 	        pop     W0
 2512 0009d0  CF 00 78 	        pop     W1
 2513 0009d2  CF 00 78 	        pop     W1
 2514              	.ifdef PEEPROM
 2515              	        clr     TBLPAG
 2516              	.endif
 2517 0009d4  11 2F BA 	        tblrdl  [W1], [++W14]
 2518 0009d6  00 40 01 	        goto    W0
 2519              	
 2520 0009d8  00 48 00 	        .pword  paddr(DODOES_L)+PFLASH
 2521              	SPSTORE_L:
 2522 0009da  83       	        .byte   NFA|3
 2523            73 00 	        .ascii  "sp!"
 2523 0009dc  70 21 00 
 2524              	        .align  2
 2525              	SPSTORE:
 2526 0009de  1E 07 78 	        mov.w   [W14], W14
 2527 0009e0  00 00 06 	        return
 2528              	
 2529 0009e2  00 48 00 	        .pword  paddr(SPSTORE_L)+PFLASH
 2530              	SPFETCH_L:
 2531 0009e4  83       	        .byte   NFA|3
MPLAB ASM30 Listing:  ../src/ff-pic24-30-33.s 			page 64


 2532            73 00 	        .ascii  "sp@"
 2532 0009e6  70 40 00 
 2533              	        .align  2
 2534              	SPFETCH:
 2535 0009e8  0E 2F 78 	        mov     W14, [++W14]
 2536 0009ea  00 00 06 	        return
 2537              	
 2538              	; RP points to the first empty stack cell.
 2539 0009ec  00 48 00 	        .pword  paddr(SPFETCH_L)+PFLASH
 2540              	RPFETCH_L:
 2541 0009ee  83       	        .byte   NFA|3
 2542            72 00 	        .ascii  "rp@"
 2542 0009f0  70 40 00 
 2543              	        .align  2
 2544              	RPFETCH:
 2545 0009f2  0F 80 E9 	        dec2    W15, W0
 2546 0009f4  00 AF E9 	        dec2    W0, [++W14]
 2547 0009f6  00 00 06 	        return
 2548              	
 2549 0009f8  00 48 00 	        .pword  paddr(RPFETCH_L)+PFLASH
 2550              	RPEMPTY_L:
 2551 0009fa  93       	        .byte   NFA|COMPILE|3
 2552            72 00 	        .ascii  "rp0"
 2552 0009fc  70 30 00 
 2553              	        .align  2
 2554              	RPEMPTY:
 2555 0009fe  4F 00 78 	        pop     W0
 2556 000a00  4F 2F 78 	        pop     [++W14]
 2557 000a02  00 00 07 	        rcall   R0
 2558 000a04  00 00 07 	        rcall   FETCH
 2559 000a06  AE 07 78 	        mov     [W14--], W15
 2560 000a08  2E 00 78 	        mov     [W14--], W0
 2561 000a0a  00 40 01 	        goto    W0
 2562              	
 2563 000a0c  00 48 00 	        .pword  paddr(RPEMPTY_L)+PFLASH
 2564              	DROP_L:
 2565 000a0e  A4       	        .byte   NFA|INLINE|4
 2566            64 00 	        .ascii  "drop"
 2566 000a10  72 6F 00 
 2566         70 
 2567            00 00 	        .align  2
 2568              	DROP:
 2569 000a14  62 07 57 	        sub     W14, #2, W14
 2570 000a16  00 00 06 	        return
 2571              	
 2572 000a18  00 48 00 	        .pword  paddr(DROP_L)+PFLASH
 2573              	SWAP_L:
 2574 000a1a  A4       	        .byte   NFA|INLINE|4
 2575            73 00 	        .ascii  "swap"
 2575 000a1c  77 61 00 
 2575         70 
 2576            00 00 	        .align  2
 2577              	SWOP:
 2578 000a20  2E 00 78 	        mov     [W14--], W0
 2579 000a22  3E 0F 78 	        mov     [W14++], [W14]
 2580 000a24  70 BF 9F 	        mov     W0, [W14-2]
 2581 000a26  00 00 06 	        return
MPLAB ASM30 Listing:  ../src/ff-pic24-30-33.s 			page 65


 2582              	
 2583 000a28  00 48 00 	        .pword  paddr(SWAP_L)+PFLASH
 2584              	OVER_L:
 2585 000a2a  A4       	        .byte   NFA|INLINE|4
 2586            6F 00 	        .ascii  "over"
 2586 000a2c  76 65 00 
 2586         72 
 2587            00 00 	        .align  2
 2588              	OVER:
 2589 000a30  7E B8 97 	        mov     [W14-0x2], W0
 2590 000a32  00 2F 78 	        mov     W0, [++W14]
 2591 000a34  00 00 06 	        return
 2592              	
 2593 000a36  00 48 00 	        .pword  paddr(OVER_L)+PFLASH
 2594              	ROT_L:
 2595 000a38  83       	        .byte   NFA|3
 2596            72 00 	        .ascii  "rot"
 2596 000a3a  6F 74 00 
 2597              	        .align  2
 2598              	ROT:
 2599 000a3c  6E B8 97 	        mov     [W14-0x4], W0
 2600 000a3e  FE B8 97 	        mov     [W14-0x2], W1
 2601 000a40  1E 01 78 	        mov     [W14], W2 
 2602 000a42  61 BF 9F 	        mov     W1, [W14-0x4]
 2603 000a44  72 BF 9F 	        mov     W2, [W14-0x2]
 2604 000a46  00 0F 78 	        mov     W0, [W14]
 2605 000a48  00 00 06 	        return
 2606              	        
 2607 000a4a  00 48 00 	        .pword  paddr(ROT_L)+PFLASH
 2608              	TOR_L:
 2609 000a4c  B2       	        .byte   NFA|INLINE|COMPILE|2
 2610            3E 00 	        .ascii  ">r"
 2610 000a4e  72 
 2611            00 00 	        .align  2
 2612              	TOR:
 2613 000a50  AE 1F 78 	        push    [W14--]
 2614 000a52  00 00 06 	        return
 2615              	
 2616 000a54  00 48 00 	        .pword  paddr(TOR_L)+PFLASH
 2617              	        .align  2
 2618              	RFROM_L:
 2619 000a56  B2       	        .byte   NFA|INLINE|COMPILE|2
 2620            72 00 	        .ascii  "r>"
 2620 000a58  3E 
 2621            00 00 	        .align  2
 2622              	RFROM:
 2623 000a5a  4F 2F 78 	        pop     [++W14]
 2624 000a5c  00 00 06 	        return
 2625              	        
 2626 000a5e  00 48 00 	        .pword  paddr(RFROM_L)+PFLASH
 2627              	        .align  2
 2628              	RFETCH_L:
 2629 000a60  B2       	        .byte   NFA|INLINE|COMPILE|2
 2630            72 00 	        .ascii  "r@"
 2630 000a62  40 
 2631            00 00 	        .align  2
 2632              	RFETCH:
MPLAB ASM30 Listing:  ../src/ff-pic24-30-33.s 			page 66


 2633 000a64  7F B8 97 	        mov     [W15-2], W0
 2634 000a66  00 2F 78 	        mov     W0, [++W14]
 2635 000a68  00 00 06 	        return
 2636              	
 2637              	;   ABS     n   --- n1      absolute value of n
 2638 000a6a  00 48 00 	        .pword  paddr(RFETCH_L)+PFLASH
 2639              	ABS_L:
 2640 000a6c  83       	        .byte   NFA|3
 2641            61 00 	        .ascii  "abs"
 2641 000a6e  62 73 00 
 2642              	        .align  2
 2643              	ABS:
 2644 000a70  3E 0F 78 	        mov     [W14++], [W14]      ; dup
 2645 000a72  00 00 07 	        rcall   QNEGATE
 2646 000a74  00 00 06 	        return
 2647              	
 2648              	;   ABS     n   --- n1      absolute value of n
 2649 000a76  00 48 00 	        .pword  paddr(ABS_L)+PFLASH
 2650              	DABS_L:
 2651 000a78  84       	        .byte   NFA|4
 2652            64 00 	        .ascii  "dabs"
 2652 000a7a  61 62 00 
 2652         73 
 2653            00 00 	        .align  2
 2654              	DABS:
 2655 000a7e  3E 0F 78 	        mov     [W14++], [W14]      ; dup
 2656 000a80  00 00 04 	        goto    QDNEGATE
 2656         00 00 00 
 2657              	
 2658 000a84  00 48 00 	        .pword  paddr(DABS_L)+PFLASH
 2659              	PLUS_L:
 2660 000a86  A1       	        .byte   NFA|INLINE|1
 2661            2B 00 	        .ascii  "+"
 2662              	        .align  2
 2663              	PLUS:
 2664 000a88  2E 00 78 	        mov     [W14--], W0
 2665 000a8a  1E 0F 40 	        add     W0, [W14], [W14]
 2666 000a8c  00 00 06 	        return
 2667              	
 2668 000a8e  00 48 00 	        .pword  paddr(PLUS_L)+PFLASH
 2669              	MPLUS_L:
 2670 000a90  82       	        .byte   NFA|2
 2671            6D 00 	        .ascii  "m+"
 2671 000a92  2B 
 2672            00 00 	        .align  2
 2673              	MPLUS:
 2674 000a94  2E 00 78 	        mov     [W14--], W0
 2675 000a96  80 80 EB 	        setm    W1
 2676 000a98  00 F0 A6 	        btss    W0, #15
 2677 000a9a  80 00 EB 	        clr     W1
 2678 000a9c  4E 1F 40 	        add     W0, [--W14], [W14++]
 2679 000a9e  1E 8F 48 	        addc    W1, [W14], [W14]
 2680 000aa0  00 00 06 	        return
 2681              	
 2682 000aa2  00 48 00 	        .pword  paddr(MPLUS_L)+PFLASH
 2683              	DPLUS_L:
 2684 000aa4  82       	        .byte   NFA|2
MPLAB ASM30 Listing:  ../src/ff-pic24-30-33.s 			page 67


 2685            64 00 	        .ascii  "d+"
 2685 000aa6  2B 
 2686            00 00 	        .align  2
 2687              	DPLUS:
 2688 000aa8  2E 00 78 	        mov     [W14--], W0
 2689 000aaa  AE 00 78 	        mov     [W14--], W1
 2690 000aac  2E 01 78 	        mov     [W14--], W2
 2691 000aae  1E 9F 40 	        add     W1, [W14], [W14++]
 2692 000ab0  02 0F 48 	        addc    W0, W2, [W14]
 2693 000ab2  00 00 06 	        return
 2694              	
 2695 000ab4  00 48 00 	        .pword  paddr(DPLUS_L)+PFLASH
 2696              	MINUS_L:
 2697 000ab6  A1       	        .byte   NFA|INLINE|1
 2698            2D 00 	        .ascii  "-"
 2699              	        .align  2
 2700              	MINUS:
 2701 000ab8  2E 00 78 	        mov     [W14--], W0
 2702 000aba  9E 00 78 	        mov     [W14], W1
 2703 000abc  00 8F 50 	        sub     W1, W0, [W14]
 2704 000abe  00 00 06 	        return
 2705              	
 2706 000ac0  00 48 00 	        .pword  paddr(MINUS_L)+PFLASH
 2707              	DMINUS_L:
 2708 000ac2  82       	        .byte   NFA|2
 2709            64 00 	        .ascii  "d-"
 2709 000ac4  2D 
 2710            00 00 	        .align  2
 2711              	DMINUS:
 2712 000ac6  2E 00 78 	        mov     [W14--], W0
 2713 000ac8  AE 00 78 	        mov     [W14--], W1
 2714 000aca  2E 01 78 	        mov     [W14--], W2
 2715 000acc  9E 01 78 	        mov     [W14], W3
 2716 000ace  01 9F 51 	        sub     W3, W1, [W14++]
 2717 000ad0  00 0F 59 	        subb    W2, W0, [W14]
 2718 000ad2  00 00 06 	        return
 2719              	
 2720 000ad4  00 48 00 	        .pword  paddr(DMINUS_L)+PFLASH
 2721              	AND_L:
 2722 000ad6  A3       	        .byte   NFA|INLINE|3
 2723            61 00 	        .ascii  "and"
 2723 000ad8  6E 64 00 
 2724              	        .align  2
 2725              	AND:
 2726 000ada  2E 00 78 	        mov     [W14--], W0
 2727 000adc  1E 0F 60 	        and     W0, [W14], [W14]
 2728 000ade  00 00 06 	        return
 2729              	
 2730 000ae0  00 48 00 	        .pword  paddr(AND_L)+PFLASH
 2731              	OR_L:
 2732 000ae2  A2       	        .byte   NFA|INLINE|2
 2733            6F 00 	        .ascii  "or"
 2733 000ae4  72 
 2734            00 00 	        .align  2
 2735              	OR:
 2736 000ae6  2E 00 78 	        mov     [W14--], W0
 2737 000ae8  1E 0F 70 	        ior     W0, [W14], [W14]
MPLAB ASM30 Listing:  ../src/ff-pic24-30-33.s 			page 68


 2738 000aea  00 00 06 	        return
 2739              	
 2740 000aec  00 48 00 	        .pword  paddr(OR_L)+PFLASH
 2741              	XOR_L:
 2742 000aee  A3       	        .byte   NFA|INLINE|3
 2743            78 00 	        .ascii  "xor"
 2743 000af0  6F 72 00 
 2744              	        .align  2
 2745              	XOR:
 2746 000af2  2E 00 78 	        mov     [W14--], W0
 2747 000af4  1E 0F 68 	        xor     W0, [W14], [W14]
 2748 000af6  00 00 06 	        return
 2749              	
 2750 000af8  00 48 00 	        .pword  paddr(XOR_L)+PFLASH
 2751              	INVERT_L:
 2752 000afa  A6       	        .byte   NFA|INLINE|6
 2753            69 00 	        .ascii  "invert"
 2753 000afc  6E 76 00 
 2753         65 72 00 
 2753         74 
 2754            00 00 	        .align  2
 2755              	INVERT:
 2756 000b02  1E 8F EA 	        com     [W14], [W14]
 2757 000b04  00 00 06 	        return
 2758              	
 2759 000b06  00 48 00 	        .pword  paddr(INVERT_L)+PFLASH
 2760              	DINVERT_L:
 2761 000b08  A7       	        .byte   NFA|INLINE|7
 2762            64 00 	        .ascii  "dinvert"
 2762 000b0a  69 6E 00 
 2762         76 65 00 
 2762         72 74 00 
 2763              	        .align  2
 2764              	DINVERT:
 2765 000b10  1E 97 EA 	        com     [W14], [W14--]
 2766 000b12  1E 9F EA 	        com     [W14], [W14++]
 2767 000b14  00 00 06 	        return
 2768              	
 2769 000b16  00 48 00 	        .pword  paddr(DINVERT_L)+PFLASH
 2770              	NEGATE_L:
 2771 000b18  A6       	        .byte   NFA|INLINE|6
 2772            6E 00 	        .ascii  "negate"
 2772 000b1a  65 67 00 
 2772         61 74 00 
 2772         65 
 2773            00 00 	        .align  2
 2774              	NEGATE:
 2775 000b20  1E 0F EA 	        neg     [W14], [W14]
 2776 000b22  00 00 06 	        return
 2777              	
 2778 000b24  00 48 00 	        .pword  paddr(NEGATE_L)+PFLASH
 2779              	DNEGATE_L:
 2780 000b26  87       	        .byte   NFA|7
 2781            64 00 	        .ascii  "dnegate"
 2781 000b28  6E 65 00 
 2781         67 61 00 
 2781         74 65 00 
MPLAB ASM30 Listing:  ../src/ff-pic24-30-33.s 			page 69


 2782              	        .align  2
 2783              	DNEGATE:
 2784 000b2e  00 00 07 	        rcall   SWOP        
 2785 000b30  1E 8F EA 	        com     [W14], [W14]
 2786 000b32  00 00 07 	        rcall   SWOP
 2787 000b34  1E 8F EA 	        com     [W14], [W14]
 2788 000b36  00 00 07 	        rcall   ONE
 2789 000b38  00 00 04 	        goto    MPLUS
 2789         00 00 00 
 2790              	        
 2791 000b3c  00 48 00 	        .pword  paddr(DNEGATE_L)+PFLASH
 2792              	QDNEGATE_L:
 2793 000b3e  88       	        .byte   NFA|8
 2794            3F 00 	        .ascii  "?dnegate"
 2794 000b40  64 6E 00 
 2794         65 67 00 
 2794         61 74 00 
 2794         65 
 2795            00 00 	        .align  2
 2796              	QDNEGATE:
 2797 000b48  00 00 07 	        rcall   ZEROLESS
 2798 000b4a  2E 00 E0 	        cp0     [W14--]
 2799 000b4c  00 00 32 	        bra     z, QDNEGATE1
 2800 000b4e  00 00 07 	        rcall   DNEGATE
 2801              	QDNEGATE1:
 2802 000b50  00 00 06 	        return        
 2803              	        
 2804 000b52  00 48 00 	        .pword  paddr(QDNEGATE_L)+PFLASH
 2805              	ONEPLUS_L:
 2806 000b54  A2       	        .byte   NFA|INLINE|2
 2807            31 00 	        .ascii  "1+"
 2807 000b56  2B 
 2808            00 00 	        .align  2
 2809              	ONEPLUS:
 2810 000b58  1E 0F E8 	        inc     [W14], [W14]
 2811 000b5a  00 00 06 	        return
 2812              	
 2813 000b5c  00 48 00 	        .pword  paddr(ONEPLUS_L)+PFLASH
 2814              	TWOPLUS_L:
 2815 000b5e  A2       	        .byte   NFA|INLINE|2
 2816            32 00 	        .ascii  "2+"
 2816 000b60  2B 
 2817            00 00 	        .align  2
 2818              	TWOPLUS:
 2819 000b62  1E 8F E8 	        inc2    [W14], [W14]
 2820 000b64  00 00 06 	        return
 2821              	
 2822 000b66  00 48 00 	        .pword  paddr(TWOPLUS_L)+PFLASH
 2823              	ONEMINUS_L:
 2824 000b68  A2       	        .byte   NFA|INLINE|2
 2825            31 00 	        .ascii  "1-"
 2825 000b6a  2D 
 2826            00 00 	        .align  2
 2827              	ONEMINUS:
 2828 000b6c  1E 0F E9 	        dec     [W14], [W14]
 2829 000b6e  00 00 06 	        return
 2830              	
MPLAB ASM30 Listing:  ../src/ff-pic24-30-33.s 			page 70


 2831 000b70  00 48 00 	        .pword  paddr(ONEMINUS_L)+PFLASH
 2832              	TWOMINUS_L:
 2833 000b72  A2       	        .byte   NFA|INLINE|2
 2834            32 00 	        .ascii  "2-"
 2834 000b74  2D 
 2835            00 00 	        .align  2
 2836              	TWOMINUS:
 2837 000b76  1E 8F E9 	        dec2    [W14], [W14]
 2838 000b78  00 00 06 	        return
 2839              	
 2840 000b7a  00 48 00 	        .pword  paddr(TWOMINUS_L)+PFLASH
 2841              	TWOSTAR_L:
 2842 000b7c  A2       	        .byte   NFA|INLINE|2
 2843            32 00 	        .ascii  "2*"
 2843 000b7e  2A 
 2844            00 00 	        .align  2
 2845              	TWOSTAR:
 2846 000b80  1E 0F D0 	        sl      [W14], [W14]        ; 2*
 2847 000b82  00 00 06 	        return
 2848              	
 2849 000b84  00 48 00 	        .pword  paddr(TWOSTAR_L)+PFLASH
 2850              	DTWOSTAR_L:
 2851 000b86  A3       	        .byte   NFA|INLINE|3
 2852            64 00 	        .ascii  "d2*"
 2852 000b88  32 2A 00 
 2853              	        .align  2
 2854              	DTWOSTAR:
 2855 000b8a  4E 0F D0 	        sl      [--W14], [W14]        ; 2* msb -> c, 0 -> lsb
 2856 000b8c  5E 8F D2 	        rlc     [++W14], [W14]
 2857 000b8e  00 00 06 	        return
 2858              	
 2859 000b90  00 48 00 	        .pword  paddr(DTWOSTAR_L)+PFLASH
 2860              	TWOSLASH_L:
 2861 000b92  A2       	        .byte   NFA|INLINE|2
 2862            32 00 	        .ascii  "2/"
 2862 000b94  2F 
 2863            00 00 	        .align  2
 2864              	TWOSLASH:
 2865 000b96  1E 8F D1 	        asr     [W14], [W14]        ; 2/
 2866 000b98  00 00 06 	        return
 2867              	
 2868 000b9a  00 48 00 	        .pword  paddr(TWOSLASH_L)+PFLASH
 2869              	DTWOSLASH_L:
 2870 000b9c  A3       	        .byte   NFA|INLINE|3
 2871            64 00 	        .ascii  "d2/"
 2871 000b9e  32 2F 00 
 2872              	        .align  2
 2873              	DTWOSLASH:
 2874 000ba0  1E 97 D1 	        asr     [W14], [W14--]		; 2/ lsb -> c
 2875 000ba2  1E 9F D3 	        rrc     [W14], [W14++]		; 2/ c -> msb
 2876 000ba4  00 00 06 	        return
 2877              	
 2878 000ba6  00 48 00 	        .pword  paddr(DTWOSLASH_L)+PFLASH
 2879              	ZEROEQUAL_L:
 2880 000ba8  82       	        .byte   NFA|2
 2881            30 00 	        .ascii  "0="
 2881 000baa  3D 
MPLAB ASM30 Listing:  ../src/ff-pic24-30-33.s 			page 71


 2882            00 00 	        .align  2
 2883              	ZEROEQUAL:
 2884 000bac  1E 00 E0 	        cp0     [W14]
 2885 000bae  00 00 3A 	        bra     nz, test_false
 2886              	test_true:
 2887 000bb0  00 8F EB 	        setm    [W14]
 2888 000bb2  00 00 06 	        return
 2889              	
 2890 000bb4  00 48 00 	        .pword  paddr(ZEROEQUAL_L)+PFLASH
 2891              	DZEROEQUAL_L:
 2892 000bb6  83       	        .byte   NFA|3
 2893            64 00 	        .ascii  "d0="
 2893 000bb8  30 3D 00 
 2894              	        .align  2
 2895              	DZEROEQUAL:
 2896 000bba  2E 00 78 	        mov     [W14--], W0
 2897 000bbc  1E 0F 70 	        ior     W0, [W14], [W14]
 2898 000bbe  00 00 3A 	        bra     nz, test_false
 2899 000bc0  00 00 04 	        goto	test_true
 2899         00 00 00 
 2900              	
 2901 000bc4  00 48 00 	        .pword  paddr(DZEROEQUAL_L)+PFLASH
 2902              	ZEROLESS_L:
 2903 000bc6  82       	        .byte   NFA|2
 2904            30 00 	        .ascii  "0<"
 2904 000bc8  3C 
 2905            00 00 	        .align  2
 2906              	ZEROLESS:
 2907 000bca  1E 00 E0 	        cp0     [W14]
 2908 000bcc  00 00 33 	        bra     n, test_true
 2909              	test_false:
 2910 000bce  00 0F EB 	        clr     [W14]
 2911 000bd0  00 00 06 	        return
 2912              	
 2913 000bd2  00 48 00 	        .pword  paddr(ZEROLESS_L)+PFLASH
 2914              	DZEROLESS_L:
 2915 000bd4  83       	        .byte   NFA|3
 2916            64 00 	        .ascii  "d0<"
 2916 000bd6  30 3C 00 
 2917              	        .align  2
 2918              	DZEROLESS:
 2919 000bd8  2E 00 E0 	        cp0     [W14--]
 2920 000bda  00 00 33 	        bra     n, test_true
 2921 000bdc  00 00 04 	        goto	test_false
 2921         00 00 00 
 2922              	
 2923 000be0  00 48 00 	        .pword  paddr(DZEROLESS_L)+PFLASH
 2924              	STORE_P_L:
 2925 000be2  A2       	        .byte   NFA|INLINE|2
 2926            21 00 	        .ascii  "!p"
 2926 000be4  70 
 2927            00 00 	        .align  2
 2928              	STORE_P:
 2929 000be6  AE 06 78 	        mov     [w14--], W13
 2930 000be8  00 00 06 	        return
 2931              	
 2932 000bea  00 48 00 	        .pword  paddr(STORE_P_L)+PFLASH
MPLAB ASM30 Listing:  ../src/ff-pic24-30-33.s 			page 72


 2933              	STORE_P_TO_R_L:
 2934 000bec  B4       	        .byte   NFA|COMPILE|INLINE|4
 2935            21 00 	        .ascii  "!p>r"
 2935 000bee  70 3E 00 
 2935         72 
 2936            00 00 	        .align  2
 2937              	STORE_P_TO_R:
 2938 000bf2  8D 1F 78 	        push    W13
 2939 000bf4  AE 06 78 	        mov     [W14--], W13
 2940 000bf6  00 00 06 	        return
 2941              	
 2942 000bf8  00 48 00 	        .pword  paddr(STORE_P_TO_R_L)+PFLASH
 2943              	R_TO_P_L:
 2944 000bfa  B3       	        .byte   NFA|INLINE|COMPILE|3
 2945            72 00 	        .ascii  "r>p"
 2945 000bfc  3E 70 00 
 2946              	        .align  2
 2947              	R_TO_P:
 2948 000bfe  CF 06 78 	        pop     W13
 2949 000c00  00 00 06 	        return
 2950              	
 2951 000c02  00 48 00 	        .pword  paddr(R_TO_P_L)+PFLASH
 2952              	FETCH_P_L:
 2953 000c04  A2       	        .byte   NFA|INLINE|2
 2954            40 00 	        .ascii  "@p"
 2954 000c06  70 
 2955            00 00 	        .align  2
 2956              	FETCH_P:
 2957 000c08  0D 2F 78 	        mov     W13, [++W14]
 2958 000c0a  00 00 06 	        return
 2959              	
 2960 000c0c  00 48 00 	        .pword  paddr(FETCH_P_L)+PFLASH
 2961              	PFETCH_L:
 2962 000c0e  82       	        .byte   NFA|2
 2963            70 00 	        .ascii  "p@"
 2963 000c10  40 
 2964            00 00 	        .align  2
 2965              	PFETCH:
 2966 000c12  0D 2F 78 	        mov     W13, [++W14]
 2967 000c14  00 00 04 	        goto    FETCH
 2967         00 00 00 
 2968              	
 2969 000c18  00 48 00 	        .pword  paddr(PFETCH_L)+PFLASH
 2970              	PCFETCH_L:
 2971 000c1a  83       	        .byte   NFA|3
 2972            70 00 	        .ascii  "pc@"
 2972 000c1c  63 40 00 
 2973              	        .align  2
 2974              	PCFETCH:    
 2975 000c1e  0D 2F 78 	        mov     W13, [++W14]
 2976 000c20  00 00 04 	        goto    CFETCH      
 2976         00 00 00 
 2977              	
 2978 000c24  00 48 00 	        .pword  paddr(PCFETCH_L)+PFLASH
 2979              	PSTORE_L:
 2980 000c26  82       	        .byte   NFA|2
 2981            70 00 	        .ascii  "p!"
MPLAB ASM30 Listing:  ../src/ff-pic24-30-33.s 			page 73


 2981 000c28  21 
 2982            00 00 	        .align  2
 2983              	PSTORE:
 2984 000c2a  0D 2F 78 	        mov     W13, [++W14]
 2985 000c2c  00 00 04 	        goto    STORE
 2985         00 00 00 
 2986              	
 2987 000c30  00 48 00 	        .pword  paddr(PSTORE_L)+PFLASH
 2988              	PCSTORE_L:
 2989 000c32  83       	        .byte   NFA|3
 2990            70 00 	        .ascii  "pc!"
 2990 000c34  63 21 00 
 2991              	        .align  2
 2992              	PCSTORE:
 2993 000c36  0D 2F 78 	        mov     W13, [++W14]
 2994 000c38  00 00 04 	        goto    CSTORE
 2994         00 00 00 
 2995              	
 2996 000c3c  00 48 00 	        .pword  paddr(PCSTORE_L)+PFLASH
 2997              	PPLUS_L:
 2998 000c3e  A2       	        .byte   NFA|INLINE|2
 2999            70 00 	        .ascii  "p+"
 2999 000c40  2B 
 3000            00 00 	        .align  2
 3001              	PPLUS:
 3002 000c42  8D 06 E8 	        inc     W13, W13
 3003 000c44  00 00 06 	        return
 3004              	
 3005 000c46  00 48 00 	        .pword  paddr(PPLUS_L)+PFLASH
 3006              	PPLUS2_L:
 3007 000c48  A3       	        .byte   NFA|INLINE|3
 3008            70 00 	        .ascii  "p2+"
 3008 000c4a  32 2B 00 
 3009              	        .align  2
 3010              	PPLUS2:
 3011 000c4c  8D 86 E8 	        inc2    W13, W13
 3012 000c4e  00 00 06 	        return
 3013              	
 3014 000c50  00 48 00 	        .pword  paddr(PPLUS2_L)+PFLASH
 3015              	PNPLUS_L:
 3016 000c52  A3       	        .byte   NFA|INLINE|3
 3017            70 00 	        .ascii  "p++"
 3017 000c54  2B 2B 00 
 3018              	        .align  2
 3019              	PNPLUS:
 3020 000c56  2E 00 78 	        mov     [w14--], W0
 3021 000c58  8D 06 40 	        add     W0, W13, W13
 3022 000c5a  00 00 06 	        return
 3023              	
 3024 000c5c  00 48 00 	        .pword  paddr(PNPLUS_L)+PFLASH
 3025              	STOD_L:
 3026 000c5e  83       	        .byte   NFA|3
 3027            73 00 	        .ascii  "s>d"
 3027 000c60  3E 64 00 
 3028              	        .align  2
 3029              	STOD:
 3030 000c62  3E 0F 78 	        mov     [W14++], [W14]
MPLAB ASM30 Listing:  ../src/ff-pic24-30-33.s 			page 74


 3031 000c64  00 00 04 	        goto    ZEROLESS
 3031         00 00 00 
 3032              	
 3033 000c68  00 48 00 	        .pword  paddr(STOD_L)+PFLASH
 3034              	UMSTAR_L:
 3035 000c6a  83       	        .byte   NFA|3
 3036            75 00 	        .ascii  "um*"
 3036 000c6c  6D 2A 00 
 3037              	        .align  2
 3038              	UMSTAR:
 3039 000c6e  2E 00 78 	        mov     [W14--], W0
 3040 000c70  1E 01 B8 	        mul.uu  W0, [W14], W2
 3041 000c72  02 1F 78 	        mov     W2, [W14++]
 3042 000c74  03 0F 78 	        mov     W3, [W14]
 3043 000c76  00 00 06 	        return
 3044              	
 3045 000c78  00 48 00 	        .pword  paddr(UMSTAR_L)+PFLASH
 3046              	MSTAR_L:
 3047 000c7a  82       	        .byte   NFA|2
 3048            6D 00 	        .ascii  "m*"
 3048 000c7c  2A 
 3049            00 00 	        .align  2
 3050              	MSTAR:
 3051 000c7e  2E 00 78 	        mov     [W14--], W0
 3052 000c80  1E 81 B9 	        mul.ss  W0, [W14], W2
 3053 000c82  02 1F 78 	        mov     W2, [W14++]
 3054 000c84  03 0F 78 	        mov     W3, [W14]
 3055 000c86  00 00 06 	        return
 3056              	
 3057 000c88  00 48 00 	        .pword  paddr(MSTAR_L)+PFLASH
 3058              	UMSLASHMOD_L:
 3059 000c8a  86       	        .byte   NFA|6
 3060            75 00 	        .ascii  "um/mod"
 3060 000c8c  6D 2F 00 
 3060         6D 6F 00 
 3060         64 
 3061            00 00 	        .align  2
 3062              	UMSLASHMOD:
 3063 000c92  2E 01 78 	        mov     [W14--], W2
 3064 000c94  AE 00 78 	        mov     [W14--], W1
 3065 000c96  2E 00 78 	        mov     [W14--], W0
 3066 000c98  11 00 09 	        repeat  #17
 3067 000c9a  42 88 D8 	        div.ud  W0, W2
 3068 000c9c  01 2F 78 	        mov     W1, [++W14]
 3069 000c9e  00 2F 78 	        mov     W0, [++W14]
 3070 000ca0  00 00 06 	        return
 3071              	
 3072 000ca2  00 48 00 	        .pword  paddr(UMSLASHMOD_L)+PFLASH
 3073              	SMSLASHREM_L:
 3074 000ca4  86       	        .byte   NFA|6
 3075            73 00 	        .ascii  "sm/rem"
 3075 000ca6  6D 2F 00 
 3075         72 65 00 
 3075         6D 
 3076            00 00 	        .align  2
 3077              	SMSLASHREM:
 3078 000cac  2E 01 78 	        mov     [W14--], W2
MPLAB ASM30 Listing:  ../src/ff-pic24-30-33.s 			page 75


 3079 000cae  AE 00 78 	        mov     [W14--], W1
 3080 000cb0  2E 00 78 	        mov     [W14--], W0
 3081 000cb2  11 00 09 	        repeat  #17
 3082 000cb4  42 08 D8 	        div.sd  W0, W2
 3083 000cb6  01 2F 78 	        mov     W1, [++W14]
 3084 000cb8  00 2F 78 	        mov     W0, [++W14]
 3085 000cba  00 00 06 	        return
 3086              	
 3087 000cbc  00 48 00 	        .pword  paddr(SMSLASHREM_L)+PFLASH
 3088              	USLASHMOD_L:
 3089 000cbe  85       	        .byte   NFA|5
 3090            75 00 	        .ascii  "u/mod"
 3090 000cc0  2F 6D 00 
 3090         6F 64 00 
 3091              	        .align  2
 3092              	USLASHMOD:
 3093 000cc4  2E 01 78 	        mov     [W14--], W2
 3094 000cc6  2E 00 78 	        mov     [W14--], W0
 3095 000cc8  11 00 09 	        repeat  #17
 3096 000cca  02 80 D8 	        div.u   W0, W2
 3097 000ccc  01 2F 78 	        mov     W1, [++W14]
 3098 000cce  00 2F 78 	        mov     W0, [++W14]
 3099 000cd0  00 00 06 	        return
 3100              	
 3101 000cd2  00 48 00 	        .pword  paddr(USLASHMOD_L)+PFLASH
 3102              	SLASHMOD_L:
 3103 000cd4  84       	        .byte   NFA|4
 3104            2F 00 	        .ascii  "/mod"
 3104 000cd6  6D 6F 00 
 3104         64 
 3105            00 00 	        .align  2
 3106              	SLASHMOD:
 3107 000cda  2E 01 78 	        mov     [W14--], W2
 3108 000cdc  2E 00 78 	        mov     [W14--], W0
 3109 000cde  11 00 09 	        repeat  #17
 3110 000ce0  02 00 D8 	        div.s   W0, W2
 3111 000ce2  01 2F 78 	        mov     W1, [++W14]
 3112 000ce4  00 2F 78 	        mov     W0, [++W14]
 3113 000ce6  00 00 06 	        return
 3114              	
 3115 000ce8  00 48 00 	        .pword  paddr(SLASHMOD_L)+PFLASH
 3116              	MOD_L:
 3117 000cea  83       	        .byte   NFA|3
 3118            6D 00 	        .ascii  "mod"
 3118 000cec  6F 64 00 
 3119              	        .align  2
 3120              	MOD:
 3121 000cee  2E 01 78 	        mov     [W14--], W2
 3122 000cf0  2E 00 78 	        mov     [W14--], W0
 3123 000cf2  11 00 09 	        repeat  #17
 3124 000cf4  02 00 D8 	        div.s   W0, W2
 3125 000cf6  01 2F 78 	        mov     W1, [++W14]
 3126 000cf8  00 00 06 	        return
 3127              	
 3128              	; user ( n "name" -- )
 3129 000cfa  00 48 00 	        .pword  paddr(MOD_L)+PFLASH
 3130              	USER_L:
MPLAB ASM30 Listing:  ../src/ff-pic24-30-33.s 			page 76


 3131 000cfc  84       	        .byte   NFA|4
 3132            75 00 	        .ascii  "user"
 3132 000cfe  73 65 00 
 3132         72 
 3133            00 00 	        .align  2
 3134              	USER:
 3135 000d02  00 00 07 	        rcall   CONSTANT
 3136 000d04  00 00 07 	        rcall   XDOES
 3137              	DOUSER:
 3138 000d06  4F 00 78 	        pop     W0
 3139 000d08  4F 00 78 	        pop     W0
 3140              	.ifdef PEEPROM
 3141              	        clr     TBLPAG
 3142              	.endif
 3143 000d0a  10 00 BA 	        tblrdl  [W0], W0
 3144 000d0c  7A 07 B4 	        add     upcurr, WREG
 3145 000d0e  00 2F 78 	        mov     W0, [++W14]
 3146 000d10  00 00 06 	        return
 3147              	
 3148              	; value
 3149 000d12  00 48 00 	        .pword  paddr(USER_L)+PFLASH
 3150              	VALUE_L:
 3151 000d14  85       	        .byte   NFA|5
 3152            76 00 	        .ascii  "value"
 3152 000d16  61 6C 00 
 3152         75 65 00 
 3153              	        .align  2
 3154              	VALUE:
 3155 000d1a  00 00 07 	        rcall   CREATE
 3156 000d1c  00 00 07 	        rcall   COMMA
 3157 000d1e  00 00 07 	        rcall   XDOES
 3158              	VALUE_DOES:
 3159 000d20  00 00 07 	        rcall   DODOES
 3160 000d22  00 00 04 	        goto    FETCH
 3160         00 00 00 
 3161              	
 3162              	; defer ( "name" -- )
 3163 000d26  00 48 00 	        .pword  paddr(VALUE_L)+PFLASH
 3164              	DEFER_L:
 3165 000d28  85       	        .byte   NFA|5
 3166            64 00 	        .ascii  "defer"
 3166 000d2a  65 66 00 
 3166         65 72 00 
 3167              	        .align  2
 3168              	DEFER:
 3169 000d2e  00 00 07 	        rcall   CREATE
 3170              	        mlit    handle(ABORT)+PFLASH
 3170 000d30  00 80 24 	> mov #handle(ABORT)+PFLASH,w0
 3170 000d32  00 2F 78 	> mov w0,[++w14]
 3171 000d34  00 00 07 	        rcall   COMMA
 3172 000d36  00 00 07 	        rcall   XDOES
 3173              	DEFER_DOES:
 3174 000d38  00 00 07 	        rcall   DODOES
 3175 000d3a  00 00 04 	        goto    FEXECUTE
 3175         00 00 00 
 3176              	
 3177 000d3e  00 48 00 	        .pword  paddr(DEFER_L)+PFLASH
MPLAB ASM30 Listing:  ../src/ff-pic24-30-33.s 			page 77


 3178              	IS_L:
 3179 000d40  C2       	        .byte   NFA|IMMED|2
 3180            69 00 	        .ascii  "is"
 3180 000d42  73 
 3181            00 00 	        .align  2
 3182              	IS:
 3183 000d44  00 00 07 	        rcall   TICK
 3184 000d46  1E 8F E8 	        inc2    [W14], [W14]
 3185 000d48  00 00 07 	        rcall   FETCH
 3186 000d4a  00 00 07 	        rcall   STATE
 3187 000d4c  2E 00 E0 	        cp0     [W14--]
 3188 000d4e  00 00 32 	        bra     z, IS1
 3189 000d50  00 00 07 	        rcall   LITERAL
 3190 000d52  00 00 07 	        rcall   DOCOMMAXT
 3191 000d54  00 48 00 	        .word   handle(STORE)+PFLASH
 3192 000d56  00 00 37 	        bra     IS2
 3193              	IS1:
 3194 000d58  00 00 07 	        rcall   STORE
 3195              	IS2:
 3196 000d5a  00 00 06 	        return
 3197              	
 3198 000d5c  00 48 00 	        .pword  paddr(IS_L)+PFLASH
 3199              	TO_L:
 3200 000d5e  C2       	        .byte   NFA|IMMED|2
 3201            74 00 	        .ascii  "to"
 3201 000d60  6F 
 3202            00 00 	        .align  2
 3203              	TO:
 3204 000d62  00 00 04 	        goto    IS
 3204         00 00 00 
 3205              	
 3206              	
 3207              	; >body xt -- a-addr transform a created words XT to it's data field address
 3208 000d66  00 48 00 	        .pword  paddr(TO_L)+PFLASH
 3209              	TOBODY_L:
 3210 000d68  A5       	        .byte   NFA|INLINE|5
 3211            3E 00 	        .ascii  ">body"
 3211 000d6a  62 6F 00 
 3211         64 79 00 
 3212              	        .align  2
 3213              	TOBODY:
 3214 000d6e  1E 8F E8 	        inc2    [W14], [W14]
 3215 000d70  00 00 06 	        return
 3216              	
 3217 000d72  00 48 00 	        .pword  paddr(TOBODY_L)+PFLASH
 3218              	VARIABLE_L:
 3219 000d74  88       	        .byte   NFA|8
 3220            76 00 	        .ascii  "variable"
 3220 000d76  61 72 00 
 3220         69 61 00 
 3220         62 6C 00 
 3220         65 
 3221            00 00 	        .align  2
 3222              	VARIABLE_:
 3223 000d7e  00 00 07 	        rcall   HERE
 3224 000d80  00 00 07 	        rcall   CELL
 3225 000d82  00 00 07 	        rcall   ALLOT
MPLAB ASM30 Listing:  ../src/ff-pic24-30-33.s 			page 78


 3226 000d84  00 00 04 	        goto    CON_
 3226         00 00 00 
 3227              	
 3228 000d88  00 48 00 	        .pword  paddr(VARIABLE_L)+PFLASH
 3229              	TWOVARIABLE_L:
 3230 000d8a  89       	        .byte   NFA|9
 3231            32 00 	        .ascii  "2variable"
 3231 000d8c  76 61 00 
 3231         72 69 00 
 3231         61 62 00 
 3231         6C 65 00 
 3232              	        .align  2
 3233              	TWOVARIABLE:
 3234 000d94  00 00 07 	        rcall   HERE
 3235              	        mlit	#4
 3235 000d96  40 00 20 	> mov ##4,w0
 3235 000d98  00 2F 78 	> mov w0,[++w14]
 3236 000d9a  00 00 07 	        rcall   ALLOT
 3237 000d9c  00 00 04 	        goto    CON_
 3237         00 00 00 
 3238              	
 3239 000da0  00 48 00 	        .pword  paddr(TWOVARIABLE_L)+PFLASH
 3240              	CONSTANT_L:
 3241 000da2  83       	        .byte   NFA|3
 3242            63 00 	        .ascii  "co:"
 3242 000da4  6F 3A 00 
 3243              	        .align  2
 3244              	CONSTANT:
 3245 000da6  00 00 07 	        rcall   CREATE
 3246 000da8  00 00 07 	        rcall   CELL
 3247 000daa  1E 0F EA 	        neg     [W14], [W14]
 3248 000dac  00 00 07 	        rcall   IALLOT
 3249 000dae  00 00 04 	        goto    ICOMMA
 3249         00 00 00 
 3250              	
 3251 000db2  00 48 00 	        .pword  paddr(CONSTANT_L)+PFLASH
 3252              	CON_L:
 3253 000db4  88       	        .byte   NFA|8
 3254            63 00 	        .ascii  "constant"
 3254 000db6  6F 6E 00 
 3254         73 74 00 
 3254         61 6E 00 
 3254         74 
 3255            00 00 	        .align  2
 3256              	CON_:
 3257 000dbe  00 00 07 	        rcall   COLON
 3258 000dc0  00 00 07 	        rcall   LITERAL
 3259 000dc2  00 00 04 	        goto    SEMICOLON
 3259         00 00 00 
 3260              	
 3261 000dc6  00 48 00 	        .pword  paddr(CON_L)+PFLASH
 3262              	TWOCON_L:
 3263 000dc8  89       	        .byte   NFA|9
 3264            32 00 	        .ascii  "2constant"
 3264 000dca  63 6F 00 
 3264         6E 73 00 
 3264         74 61 00 
MPLAB ASM30 Listing:  ../src/ff-pic24-30-33.s 			page 79


 3264         6E 74 00 
 3265              	        .align  2
 3266              	TWOCON_:
 3267 000dd2  00 00 07 	        rcall   SWOP
 3268 000dd4  00 00 07 	        rcall   COLON
 3269 000dd6  00 00 07 	        rcall   LITERAL
 3270 000dd8  00 00 07 	        rcall   LITERAL
 3271 000dda  00 00 04 	        goto    SEMICOLON
 3271         00 00 00 
 3272              	
 3273 000dde  00 48 00 	        .pword  paddr(TWOCON_L)+PFLASH
 3274              	PFLASH_L:
 3275 000de0  A3       	        .byte   NFA|INLINE|3
 3276            70 00 	        .ascii  "pfl"
 3276 000de2  66 6C 00 
 3277              	        .align  2
 3278              	PFLASH_:
 3279              	        mlit    PFLASH
 3279 000de4  00 80 24 	> mov #PFLASH,w0
 3279 000de6  00 2F 78 	> mov w0,[++w14]
 3280 000de8  00 00 06 	        return
 3281              	
 3282 000dea  00 48 00 	        .pword  paddr(PFLASH_L)+PFLASH
 3283              	TO_XA_L:
 3284 000dec  A3       	        .byte   NFA|INLINE|3
 3285            3E 00 	        .ascii  ">xa"
 3285 000dee  78 61 00 
 3286              	        .align  2
 3287              	TO_XA:
 3288 000df0  00 80 24 	        mov     #PFLASH, W0
 3289 000df2  9E 00 78 	        mov     [W14], W1
 3290 000df4  00 8F 50 	        sub     W1, W0, [W14]
 3291 000df6  00 00 06 	        return
 3292              	
 3293 000df8  00 48 00 	        .pword  paddr(TO_XA_L)+PFLASH
 3294              	XA_FROM_L:
 3295 000dfa  A3       	        .byte   NFA|INLINE|3
 3296            78 00 	        .ascii  "xa>"
 3296 000dfc  61 3E 00 
 3297              	        .align  2
 3298              	XA_FROM:
 3299 000dfe  00 80 24 	        mov     #PFLASH, W0
 3300 000e00  1E 0F 40 	        add     W0, [W14],[W14]
 3301 000e02  00 00 06 	        return
 3302              	
 3303 000e04  00 48 00 	        .pword  paddr(XA_FROM_L)+PFLASH
 3304              	FLASH_L:
 3305 000e06  85       	        .byte   NFA|5
 3306            66 00 	        .ascii  "flash"
 3306 000e08  6C 61 00 
 3306         73 68 00 
 3307              	        .align  2
 3308              	FLASH:
 3309 000e0c  40 00 20 	        mov     #4, W0
 3310 000e0e  00 00 88 	        mov     W0, cse
 3311 000e10  00 00 06 	        return
 3312              	
MPLAB ASM30 Listing:  ../src/ff-pic24-30-33.s 			page 80


 3313 000e12  00 48 00 	        .pword  paddr(FLASH_L)+PFLASH
 3314              	.ifdef PEEPROM
 3315              	EEPROM_L:
 3316              	        .byte   NFA|6
 3317              	        .ascii  "eeprom"
 3318              	        .align  2
 3319              	EEPROM:
 3320              	        mov     #2, W0
 3321              	        mov     W0, cse
 3322              	        return
 3323              	
 3324              	        .pword  paddr(EEPROM_L)+PFLASH
 3325              	.endif
 3326              	RAM_L:
 3327 000e14  83       	        .byte   NFA|3
 3328            72 00 	        .ascii  "ram"
 3328 000e16  61 6D 00 
 3329              	        .align  2
 3330              	RAM:
 3331 000e18  74 27 EF 	        clr     cse
 3332 000e1a  00 00 06 	        return
 3333              	
 3334              	;        .pword  paddr(RAM_L)+PFLASH
 3335              	;CSE_L:
 3336 000e1c  83       	        .byte   NFA|3
 3337            63 00 	        .ascii  "cse"
 3337 000e1e  73 65 00 
 3338              	        .align  2
 3339              	CSE:
 3340 000e20  00 00 80 	        mov     cse, W0
 3341 000e22  00 2F 78 	        mov     W0, [++W14]
 3342 000e24  00 00 06 	        return
 3343              	
 3344              	
 3345              	; IDP    -- a-addr  Dictonary pointer storage        
 3346              	;        .pword  paddr(CSE_L)+PFLASH
 3347              	; IDP_L:
 3348 000e26  83       	        .byte   NFA|3
 3349            69 00 	        .ascii  "idp"
 3349 000e28  64 70 00 
 3350              	        .align  2
 3351              	IDP:
 3352 000e2a  00 00 07 	        rcall   DOCREATE
 3353 000e2c  00 00 00 	        .word   dpFLASH
 3354              	
 3355 000e2e  00 48 00 	        .pword  paddr(RAM_L)+PFLASH
 3356              	DP_L:
 3357 000e30  82       	        .byte   NFA|2
 3358            64 00 	        .ascii  "dp"
 3358 000e32  70 
 3359            00 00 	        .align  2
 3360              	DP:
 3361              	        mlit    dpRAM
 3361 000e34  00 00 20 	> mov #dpRAM,w0
 3361 000e36  00 2F 78 	> mov w0,[++w14]
 3362 000e38  00 00 07 	        rcall   CSE
 3363 000e3a  00 00 04 	        goto    PLUS
MPLAB ASM30 Listing:  ../src/ff-pic24-30-33.s 			page 81


 3363         00 00 00 
 3364              	
 3365 000e3e  00 48 00 	        .pword  paddr(DP_L)+PFLASH
 3366              	HERE_L:
 3367 000e40  84       	        .byte   NFA|4
 3368            68 00 	        .ascii  "here"
 3368 000e42  65 72 00 
 3368         65 
 3369            00 00 	        .align  2
 3370              	HERE:
 3371 000e46  00 00 07 	        rcall   DP
 3372 000e48  00 00 04 	        goto    FETCH
 3372         00 00 00 
 3373              	
 3374 000e4c  00 48 00 	        .pword  paddr(HERE_L)+PFLASH
 3375              	COMMA_L:
 3376 000e4e  81       	        .byte   NFA|1
 3377            2C 00 	        .ascii  ","
 3378              	        .align  2
 3379              	COMMA:
 3380 000e50  00 00 07 	        rcall   HERE
 3381 000e52  00 00 07 	        rcall   STORE
 3382 000e54  00 00 07 	        rcall   CELL
 3383 000e56  00 00 04 	        goto    ALLOT
 3383         00 00 00 
 3384              	
 3385 000e5a  00 48 00 	        .pword  paddr(COMMA_L)+PFLASH
 3386              	CCOMMA_L:
 3387 000e5c  82       	        .byte   NFA|2
 3388            63 00 	        .ascii  "c,"
 3388 000e5e  2C 
 3389            00 00 	        .align  2
 3390              	CCOMMA:
 3391 000e60  00 00 07 	        rcall   HERE
 3392 000e62  00 00 07 	        rcall   CSTORE
 3393 000e64  00 00 07 	        rcall   ONE
 3394 000e66  00 00 04 	        goto    ALLOT
 3394         00 00 00 
 3395              	
 3396 000e6a  00 48 00 	        .pword  paddr(CCOMMA_L)+PFLASH
 3397              	CELL_L:
 3398 000e6c  A4       	        .byte   NFA|INLINE|4
 3399            63 00 	        .ascii  "cell"
 3399 000e6e  65 6C 00 
 3399         6C 
 3400            00 00 	        .align  2
 3401              	CELL:
 3402 000e72  20 00 20 	        mov     #2, W0
 3403 000e74  00 2F 78 	        mov     W0, [++W14]
 3404 000e76  00 00 06 	        return
 3405              	
 3406 000e78  00 48 00 	        .pword  paddr(CELL_L)+PFLASH
 3407              	ALIGN_L:
 3408 000e7a  85       	        .byte   NFA|5
 3409            61 00 	        .ascii  "align"
 3409 000e7c  6C 69 00 
 3409         67 6E 00 
MPLAB ASM30 Listing:  ../src/ff-pic24-30-33.s 			page 82


 3410              	        .align  2
 3411              	ALIGN:
 3412 000e80  00 00 07 	        rcall   HERE
 3413 000e82  00 00 07 	        rcall   ALIGNED
 3414 000e84  00 00 07 	        rcall   DP
 3415 000e86  00 00 04 	        goto    STORE
 3415         00 00 00 
 3416              	
 3417 000e8a  00 48 00 	        .pword  paddr(ALIGN_L)+PFLASH
 3418              	ALIGNED_L:
 3419 000e8c  87       	        .byte   NFA|7
 3420            61 00 	        .ascii  "aligned"
 3420 000e8e  6C 69 00 
 3420         67 6E 00 
 3420         65 64 00 
 3421              	        .align  2
 3422              	ALIGNED:
 3423 000e94  1E 0F E8 	        inc     [W14], [W14]
 3424              	        mlit    #0xfffe
 3424 000e96  E0 FF 2F 	> mov ##0xfffe,w0
 3424 000e98  00 2F 78 	> mov w0,[++w14]
 3425 000e9a  00 00 04 	        goto    AND
 3425         00 00 00 
 3426              	
 3427 000e9e  00 48 00 	        .pword  paddr(ALIGNED_L)+PFLASH
 3428              	CELLPLUS_L:
 3429 000ea0  A5       	        .byte   NFA|INLINE|5
 3430            63 00 	        .ascii  "cell+"
 3430 000ea2  65 6C 00 
 3430         6C 2B 00 
 3431              	        .align  2
 3432              	CELLPLUS:
 3433 000ea6  1E 8F E8 	        inc2    [W14], [W14]
 3434 000ea8  00 00 06 	        return
 3435              	
 3436 000eaa  00 48 00 	        .pword  paddr(CELLPLUS_L)+PFLASH
 3437              	CELLS_L:
 3438 000eac  A5       	        .byte   NFA|INLINE|5
 3439            63 00 	        .ascii  "cells"
 3439 000eae  65 6C 00 
 3439         6C 73 00 
 3440              	        .align  2
 3441              	CELLS:
 3442 000eb2  1E 0F D0 	        sl      [W14], [W14]        ; 2*
 3443 000eb4  00 00 06 	        return
 3444              	
 3445 000eb6  00 48 00 	        .pword  paddr(CELLS_L)+PFLASH
 3446              	CHARPLUS_L:
 3447 000eb8  A5       	        .byte   NFA|INLINE|5
 3448            63 00 	        .ascii  "char+"
 3448 000eba  68 61 00 
 3448         72 2B 00 
 3449              	        .align  2
 3450              	CHARPLUS:
 3451 000ebe  1E 0F E8 	        inc     [W14], [W14]        ; char+
 3452 000ec0  00 00 06 	        return
 3453              	
MPLAB ASM30 Listing:  ../src/ff-pic24-30-33.s 			page 83


 3454 000ec2  00 48 00 	        .pword  paddr(CHARPLUS_L)+PFLASH
 3455              	CHARS_L:
 3456 000ec4  A5       	        .byte   NFA|INLINE|5
 3457            63 00 	        .ascii  "chars"
 3457 000ec6  68 61 00 
 3457         72 73 00 
 3458              	        .align  2
 3459              	CHARS:
 3460 000eca  00 00 06 	        return
 3461              	
 3462              	STORCOLON:
 3463              	        mlit    #0xfffc; -4
 3463 000ecc  C0 FF 2F 	> mov ##0xfffc,w0
 3463 000ece  00 2F 78 	> mov w0,[++w14]
 3464 000ed0  00 00 04 	        goto    IALLOT
 3464         00 00 00 
 3465              	
 3466 000ed4  00 48 00 	        .pword  paddr(CHARS_L)+PFLASH
 3467              	TWOFETCH_L:
 3468 000ed6  82       	        .byte   NFA|2
 3469            32 00 	        .ascii  "2@"
 3469 000ed8  40 
 3470            00 00 	        .align  2
 3471              	TWOFETCH:
 3472 000eda  3E 0F 78 	        mov     [W14++], [W14]      ; dup
 3473 000edc  00 00 07 	        rcall   FETCH
 3474 000ede  00 00 07 	        rcall   SWOP
 3475 000ee0  1E 8F E8 	        inc2    [W14], [W14]
 3476 000ee2  00 00 04 	        goto    FETCH
 3476         00 00 00 
 3477              	
 3478 000ee6  00 48 00 	        .pword  paddr(TWOFETCH_L)+PFLASH
 3479              	TWOSTORE_L:
 3480 000ee8  82       	        .byte   NFA|2
 3481            32 00 	        .ascii  "2!"
 3481 000eea  21 
 3482            00 00 	        .align  2
 3483              	TWOSTORE:
 3484 000eec  00 00 07 	        rcall   SWOP
 3485 000eee  00 00 07 	        rcall   OVER
 3486 000ef0  1E 8F E8 	        inc2    [W14], [W14]
 3487 000ef2  00 00 07 	        rcall   STORE
 3488 000ef4  00 00 04 	        goto    STORE
 3488         00 00 00 
 3489              	
 3490 000ef8  00 48 00 	        .pword  paddr(TWOSTORE_L)+PFLASH
 3491              	TWODROP_L:
 3492 000efa  A5       	        .byte   NFA|INLINE|5
 3493            32 00 	        .ascii  "2drop"
 3493 000efc  64 72 00 
 3493         6F 70 00 
 3494              	        .align  2
 3495              	TWODROP:
 3496 000f00  64 07 57 	        sub     W14, #4, W14        ; 2drop
 3497 000f02  00 00 06 	        return
 3498              	
 3499 000f04  00 48 00 	        .pword  paddr(TWODROP_L)+PFLASH
MPLAB ASM30 Listing:  ../src/ff-pic24-30-33.s 			page 84


 3500              	TWODUP_L:
 3501 000f06  84       	        .byte   NFA|4
 3502            32 00 	        .ascii  "2dup"
 3502 000f08  64 75 00 
 3502         70 
 3503            00 00 	        .align  2
 3504              	TWODUP:
 3505 000f0c  00 00 07 	        rcall   OVER
 3506 000f0e  00 00 04 	        goto    OVER
 3506         00 00 00 
 3507              	
 3508 000f12  00 48 00 	        .pword  paddr(TWODUP_L)+PFLASH
 3509              	TWOSWAP_L:
 3510 000f14  85       	        .byte   NFA|5
 3511            32 00 	        .ascii  "2swap"
 3511 000f16  73 77 00 
 3511         61 70 00 
 3512              	        .align  2
 3513              	TWOSWAP:
 3514 000f1a  00 00 07 	        rcall   ROT
 3515 000f1c  AE 1F 78 	        push    [W14--]
 3516 000f1e  00 00 07 	        rcall   ROT
 3517 000f20  4F 2F 78 	        pop     [++W14]
 3518 000f22  00 00 06 	        return
 3519              	
 3520 000f24  00 48 00 	        .pword  paddr(TWODUP_L)+PFLASH
 3521              	CR_L:
 3522 000f26  82       	        .byte   NFA|2
 3523            63 00 	        .ascii  "cr"
 3523 000f28  72 
 3524            00 00 	        .align  2
 3525              	CR:
 3526              	        mlit    #0x0d       ; CR \r
 3526 000f2a  D0 00 20 	> mov ##0x0d,w0
 3526 000f2c  00 2F 78 	> mov w0,[++w14]
 3527 000f2e  00 00 07 	        rcall   EMIT
 3528              	        mlit    #0x0a       ; LF \n
 3528 000f30  A0 00 20 	> mov ##0x0a,w0
 3528 000f32  00 2F 78 	> mov w0,[++w14]
 3529 000f34  00 00 04 	        goto    EMIT
 3529         00 00 00 
 3530              	
 3531 000f38  00 48 00 	        .pword  paddr(CR_L)+PFLASH
 3532              	SPACE_L:
 3533 000f3a  85       	        .byte   NFA|5
 3534            73 00 	        .ascii  "space"
 3534 000f3c  70 61 00 
 3534         63 65 00 
 3535              	        .align  2
 3536              	SPACE_:  
 3537 000f40  00 00 07 	        rcall   BL
 3538 000f42  00 00 04 	        goto    EMIT
 3538         00 00 00 
 3539              	
 3540 000f46  00 48 00 	        .pword  paddr(SPACE_L)+PFLASH
 3541              	SPACES_L:
 3542 000f48  86       	        .byte   NFA|6
MPLAB ASM30 Listing:  ../src/ff-pic24-30-33.s 			page 85


 3543            73 00 	        .ascii  "spaces"
 3543 000f4a  70 61 00 
 3543         63 65 00 
 3543         73 
 3544            00 00 	        .align  2
 3545              	SPACES:
 3546              	SPCS1:
 3547 000f50  1E 00 E0 	        cp0     [W14]
 3548 000f52  00 00 32 	        bra     z, SPCS2
 3549 000f54  00 00 07 	        rcall   SPACE_
 3550 000f56  1E 0F E9 	        dec     [W14], [W14]
 3551 000f58  00 00 37 	        bra     SPCS1
 3552              	SPCS2:  
 3553 000f5a  62 07 57 	        sub     W14, #2, W14
 3554 000f5c  00 00 06 	        return
 3555              	
 3556 000f5e  00 48 00 	        .pword  paddr(SPACES_L)+PFLASH
 3557              	UMIN_L:
 3558 000f60  84       	        .byte   NFA|4
 3559            75 00 	        .ascii  "umin"
 3559 000f62  6D 69 00 
 3559         6E 
 3560            00 00 	        .align  2
 3561              	UMIN:
 3562 000f66  00 00 07 	        rcall   TWODUP
 3563 000f68  00 00 07 	        rcall   UGREATER
 3564 000f6a  2E 00 E0 	        cp0     [W14--]
 3565 000f6c  00 00 32 	        bra     z, UMIN1
 3566 000f6e  00 00 07 	        rcall   SWOP
 3567              	UMIN1:
 3568 000f70  62 07 57 	        sub     W14, #2, W14
 3569 000f72  00 00 06 	        return
 3570              	
 3571 000f74  00 48 00 	        .pword  paddr(UMIN_L)+PFLASH
 3572              	UMAX_L:
 3573 000f76  84       	        .byte   NFA|4
 3574            75 00 	        .ascii  "umax"
 3574 000f78  6D 61 00 
 3574         78 
 3575            00 00 	        .align  2
 3576              	UMAX:
 3577 000f7c  00 00 07 	        rcall   TWODUP
 3578 000f7e  00 00 07 	        rcall   ULESS
 3579 000f80  2E 00 E0 	        cp0     [W14--]
 3580 000f82  00 00 32 	        bra     z, UMAX1
 3581 000f84  00 00 07 	        rcall   SWOP
 3582              	UMAX1:
 3583 000f86  62 07 57 	        sub     W14, #2, W14
 3584 000f88  00 00 06 	        return
 3585              	
 3586 000f8a  00 48 00 	        .pword  paddr(UMAX_L)+PFLASH
 3587              	ZERO_L:
 3588 000f8c  A1       	        .byte   NFA|INLINE|1
 3589            30 00 	        .ascii  "0"
 3590              	        .align  2
 3591              	ZERO:
 3592 000f8e  00 2F EB 	        clr     [++W14]
MPLAB ASM30 Listing:  ../src/ff-pic24-30-33.s 			page 86


 3593 000f90  00 00 06 	        return
 3594              	
 3595 000f92  00 48 00 	        .pword  paddr(ZERO_L)+PFLASH
 3596              	ONE_L:
 3597 000f94  A1       	        .byte   NFA|INLINE|1
 3598            31 00 	        .ascii  "1"
 3599              	        .align  2
 3600              	ONE:
 3601              	        mlit    #1
 3601 000f96  10 00 20 	> mov ##1,w0
 3601 000f98  00 2F 78 	> mov w0,[++w14]
 3602 000f9a  00 00 06 	        return
 3603              	
 3604              	; ACCEPT  c-addr +n -- +n'  get line from terminal
 3605 000f9c  00 48 00 	        .pword  paddr(ONE_L)+PFLASH
 3606              	ACCEPT_L:
 3607 000f9e  86       	        .byte   NFA|6
 3608            61 00 	        .ascii  "accept"
 3608 000fa0  63 63 00 
 3608         65 70 00 
 3608         74 
 3609            00 00 	        .align  2
 3610              	ACCEPT:
 3611 000fa6  00 00 07 	        rcall   OVER
 3612 000fa8  00 00 07 	        rcall   PLUS
 3613 000faa  00 00 07 	        rcall   OVER
 3614              	ACC1:
 3615 000fac  00 00 07 	        rcall   KEY
 3616              	
 3617 000fae  1E 00 78 	        mov     [W14], W0
 3618              	
 3619 000fb0  6D 00 E1 	        cp      W0, #0x0d   ; CR
 3620 000fb2  00 00 3A 	        bra     nz, ACC_LF
 3621 000fb4  62 07 57 	        sub     W14, #2, W14
 3622              	        
 3623 000fb6  00 00 07 	        rcall   TRUE_
 3624 000fb8  00 00 07 	        rcall   FCR
 3625 000fba  00 00 07 	        rcall   CSTORE
 3626 000fbc  00 00 37 	        bra     ACC6
 3627              	ACC_LF:
 3628 000fbe  6A 00 E1 	        cp      W0, #0x0a   ; LF
 3629 000fc0  00 00 3A 	        bra     nz, ACC2
 3630 000fc2  62 07 57 	        sub     W14, #2, W14
 3631              	
 3632 000fc4  00 00 07 	        rcall   FCR
 3633 000fc6  00 00 07 	        rcall   CFETCH
 3634 000fc8  00 00 07 	        rcall   ZEROSENSE
 3635 000fca  00 00 32 	        bra     z, ACC6
 3636 000fcc  00 00 07 	        rcall   FALSE_
 3637 000fce  00 00 07 	        rcall   FCR
 3638 000fd0  00 00 07 	        rcall   CSTORE
 3639 000fd2  00 00 37 	        bra     ACC1
 3640              	ACC2:
 3641 000fd4  3E 0F 78 	        mov     [W14++], [W14]      ; dup
 3642 000fd6  00 00 07 	        rcall   EMIT
 3643              	
 3644 000fd8  00 00 07 	        rcall   FALSE_
MPLAB ASM30 Listing:  ../src/ff-pic24-30-33.s 			page 87


 3645 000fda  00 00 07 	        rcall   FCR
 3646 000fdc  00 00 07 	        rcall   CSTORE
 3647 000fde  3E 0F 78 	        mov     [W14++], [W14]      ; dup
 3648              	        mlit    #0x08              ; BS
 3648 000fe0  80 00 20 	> mov ##0x08,w0
 3648 000fe2  00 2F 78 	> mov w0,[++w14]
 3649 000fe4  00 00 07 	        rcall   EQUAL
 3650 000fe6  2E 00 E0 	        cp0     [W14--]
 3651 000fe8  00 00 32 	        bra     z, ACC3
 3652 000fea  62 07 57 	        sub     W14, #2, W14
 3653 000fec  1E 0F E9 	        dec     [W14], [W14]
 3654 000fee  AE 1F 78 	        push    [W14--]
 3655 000ff0  00 00 07 	        rcall   OVER
 3656 000ff2  4F 2F 78 	        pop     [++W14]
 3657 000ff4  00 00 07 	        rcall   UMAX
 3658 000ff6  00 00 37 	        bra     ACC1
 3659              	ACC3:
 3660 000ff8  00 00 07 	        rcall   OVER
 3661 000ffa  00 00 07 	        rcall   CSTORE
 3662 000ffc  1E 0F E8 	        inc     [W14], [W14]
 3663 000ffe  00 00 07 	        rcall   OVER
 3664 001000  00 00 07 	        rcall   UMIN
 3665 001002  00 00 07 	        rcall   TWODUP
 3666 001004  00 00 07 	        rcall   NOTEQUAL
 3667 001006  2E 00 E0 	        cp0     [W14--]
 3668 001008  00 00 3A 	        bra     nz, ACC1
 3669              	ACC6:
 3670 00100a  2E 0F 78 	        mov     [W14--], [W14]      ; nip
 3671 00100c  00 00 07 	        rcall   SWOP
 3672 00100e  00 00 04 	        goto    MINUS
 3672         00 00 00 
 3673              	
 3674              	FCR_L:
 3675 001012  83       	        .byte   NFA|3
 3676            66 00 	        .ascii  "fcr"
 3676 001014  63 72 00 
 3677              	        .align  2
 3678              	FCR:
 3679 001016  00 00 07 	        rcall   DOUSER
 3680 001018  F2 FF 00 	        .word   uflg
 3681              	
 3682              	;  .id ( nfa -- ) 
 3683 00101a  00 48 00 	        .pword  paddr(ACCEPT_L)+PFLASH
 3684              	DOTID_L:
 3685 00101c  83       	        .byte   NFA|3
 3686            2E 00 	        .ascii  ".id"
 3686 00101e  69 64 00 
 3687              	        .align  2
 3688              	DOTID:
 3689 001020  00 00 07 	        rcall   CFETCHPP
 3690              	        mlit    NFL              ; nfu
 3690 001022  F0 00 20 	> mov #NFL,w0
 3690 001024  00 2F 78 	> mov w0,[++w14]
 3691 001026  00 00 07 	        rcall   AND
 3692 001028  AE 1F 78 	        push    [W14--]
 3693 00102a  00 00 37 	        bra     DOTID3
 3694              	DOTID1:
MPLAB ASM30 Listing:  ../src/ff-pic24-30-33.s 			page 88


 3695 00102c  00 00 07 	        rcall   CFETCHPP
 3696 00102e  00 00 07 	        rcall   TO_PR
 3697 001030  00 00 07 	        rcall   EMIT
 3698              	DOTID3:
 3699 001032  CF 1F E9 	        dec     [--W15], [W15++] ; XNEXT
 3700 001034  00 00 31 	        bra     c, DOTID1        ; XNEXT
 3701 001036  4F 00 78 	        pop     W0               ; UNNEXT
 3702 001038  62 07 57 	        sub     W14, #2, W14     ; DROP
 3703 00103a  00 00 06 	        return
 3704              	        
 3705              	
 3706              	; >pr   c -- c      Filter a character to printable 7-bit ASCII
 3707 00103c  00 48 00 	        .pword  paddr(DOTID_L)+PFLASH
 3708              	TO_PR_L:
 3709 00103e  83       	        .byte   NFA|3
 3710            3E 00 	        .ascii  ">pr"
 3710 001040  70 72 00 
 3711              	        .align  2
 3712              	TO_PR:
 3713 001042  3E 0F 78 	        mov     [W14++], [W14]
 3714 001044  00 00 07 	        rcall   BL
 3715              	        mlit    0x7f
 3715 001046  F0 07 20 	> mov #0x7f,w0
 3715 001048  00 2F 78 	> mov w0,[++w14]
 3716 00104a  00 00 07 	        rcall   WITHIN
 3717 00104c  2E 00 E0 	        cp0     [W14--]
 3718 00104e  00 00 3A 	        bra     nz, TO_PR1
 3719 001050  E0 02 20 	        mov    #'.', W0
 3720 001052  00 0F 78 	        mov     W0, [W14]
 3721              	TO_PR1:
 3722 001054  00 00 06 	        return
 3723              	
 3724 001056  00 48 00 	        .pword  paddr(TO_PR_L)+PFLASH
 3725              	TYPE_L:
 3726 001058  84       	        .byte   NFA|4
 3727            74 00 	        .ascii  "type"
 3727 00105a  79 70 00 
 3727         65 
 3728            00 00 	        .align  2
 3729              	TYPE:
 3730 00105e  AE 1F 78 	        push    [W14--]         ; XFOR TOR
 3731 001060  00 00 37 	        bra     TYPE2           ; XFOR
 3732              	TYPE1:  
 3733 001062  00 00 07 	        rcall   CFETCHPP
 3734 001064  00 00 07 	        rcall   EMIT
 3735              	TYPE2:
 3736 001066  CF 1F E9 	        dec     [--W15], [W15++] ; XNEXT
 3737 001068  00 00 31 	        bra     c, TYPE1        ; XNEXT
 3738 00106a  4F 00 78 	        pop     W0              ; UNNEXT
 3739 00106c  62 07 57 	        sub     W14, #2, W14    ; DROP
 3740 00106e  00 00 06 	        return
 3741              	
 3742 001070  00 48 00 	        .pword  paddr(TYPE_L)+PFLASH
 3743              	XSQUOTE_L:
 3744 001072  84       	        .byte   NFA|4
 3745            28 00 	        .ascii  "(s" 
 3745 001074  73 
MPLAB ASM30 Listing:  ../src/ff-pic24-30-33.s 			page 89


 3746            22 00 	        .byte 0x22 
 3747 001076  29       	        .ascii ")"
 3748            00 00 	        .align  2
 3749              	XSQUOTE:
 3750 001078  4F 00 78 	        pop     W0
 3751 00107a  4F 2F 78 	        pop     [++W14]
 3752 00107c  00 80 24 	        mov     #PFLASH, W0
 3753 00107e  1E 0F 40 	        add     W0, [W14],[W14]
 3754 001080  00 00 07 	        rcall   CFETCHPP
 3755 001082  00 00 07 	        rcall   TWODUP
 3756 001084  00 00 07 	        rcall   PLUS
 3757 001086  00 00 07 	        rcall   ALIGNED
 3758 001088  2E 00 78 	        mov     [W14--], W0
 3759 00108a  01 80 24 	        mov     #PFLASH, W1
 3760 00108c  01 00 50 	        sub     W0, W1, W0
 3761 00108e  00 40 01 	        goto    W0
 3762              	
 3763              	; S"      --            compile in-line string to flash
 3764 001090  00 48 00 	        .pword  paddr(XSQUOTE_L)+PFLASH
 3765              	SQUOTE_L:
 3766 001092  D2       	        .byte   NFA|IMMED|COMPILE|2
 3767            73 00 	        .ascii  "s" 
 3768 001094  22       	        .byte 0x22
 3769            00 00 	        .align  2
 3770              	SQUOTE:
 3771 001096  00 00 07 	        rcall   DOCOMMAXT
 3772 001098  00 48 00 	        .word   handle(XSQUOTE)+PFLASH
 3773 00109a  00 00 07 	        rcall   FLASH
 3774 00109c  00 00 07 	        rcall   CQUOTE
 3775 00109e  00 00 04 	        goto    RAM
 3775         00 00 00 
 3776              	
 3777              	; ,"      --           store a string to current data space
 3778 0010a2  00 48 00 	        .pword paddr(SQUOTE_L)+PFLASH
 3779              	CQUOTE_L:
 3780 0010a4  82       	        .byte   NFA|2
 3781            2C 00 	        .ascii  "," 
 3782 0010a6  22       	        .byte 0x22
 3783            00 00 	        .align  2
 3784              	CQUOTE:
 3785              	        mlit    0x22
 3785 0010a8  20 02 20 	> mov #0x22,w0
 3785 0010aa  00 2F 78 	> mov w0,[++w14]
 3786 0010ac  00 00 07 	        rcall   PARSE
 3787 0010ae  00 00 07 	        rcall   HERE
 3788 0010b0  00 00 07 	        rcall   OVER
 3789 0010b2  00 00 07 	        rcall   ONEPLUS
 3790 0010b4  00 00 07 	        rcall   ALIGNED
 3791 0010b6  00 00 07 	        rcall   ALLOT
 3792 0010b8  00 00 04 	        goto    PLACE
 3792         00 00 00 
 3793              	
 3794              	
 3795              	; ."       --            compile string to print into flash
 3796 0010bc  00 48 00 	        .pword  paddr(CQUOTE_L)+PFLASH
 3797              	DOTQUOTE_L:
 3798 0010be  D2       	        .byte   NFA|IMMED|COMPILE|2
MPLAB ASM30 Listing:  ../src/ff-pic24-30-33.s 			page 90


 3799            2E 00 	        .ascii  "." 
 3800 0010c0  22       	        .byte 0x22
 3801            00 00 	        .align  2
 3802              	DOTQUOTE: 
 3803 0010c2  00 00 07 	        rcall   SQUOTE
 3804 0010c4  00 00 07 	        rcall   DOCOMMAXT
 3805 0010c6  00 48 00 	        .word   handle(TYPE)+PFLASH
 3806 0010c8  00 00 06 	        return
 3807              	
 3808              	;   +!      n/u addr --     add cell to data memory
 3809 0010ca  00 48 00 	        .pword  paddr(DOTQUOTE_L)+PFLASH
 3810              	PLUSSTORE_L:
 3811 0010cc  82       	        .byte   NFA|2
 3812            2B 00 	        .ascii  "+!" 
 3812 0010ce  21 
 3813            00 00 	        .align  2
 3814              	PLUSSTORE:
 3815 0010d0  00 00 07 	        rcall   SWOP
 3816 0010d2  00 00 07 	        rcall   OVER
 3817 0010d4  00 00 07 	        rcall   FETCH
 3818 0010d6  00 00 07 	        rcall   PLUS
 3819 0010d8  00 00 07 	        rcall   SWOP
 3820 0010da  00 00 04 	        goto    STORE
 3820         00 00 00 
 3821              	
 3822              	;   WITHIN      ( u ul uh -- t )
 3823              	;               Return true if u is within the range of ul and uh. ( ul <= u < uh )
 3824 0010de  00 48 00 	        .pword  paddr(PLUSSTORE_L)+PFLASH
 3825              	WITHIN_L:
 3826 0010e0  86       	        .byte   NFA|6
 3827            77 00 	        .ascii  "within" 
 3827 0010e2  69 74 00 
 3827         68 69 00 
 3827         6E 
 3828            00 00 	        .align  2
 3829              	WITHIN:
 3830 0010e8  00 00 07 	        rcall   OVER
 3831 0010ea  00 00 07 	        rcall   MINUS
 3832 0010ec  AE 1F 78 	        push    [W14--]
 3833 0010ee  00 00 07 	        rcall   MINUS
 3834 0010f0  4F 2F 78 	        pop     [++W14]
 3835 0010f2  00 00 04 	        goto    ULESS
 3835         00 00 00 
 3836              	
 3837              	;   <>      x1 x2 -- flag       return true if not equal 
 3838 0010f6  00 48 00 	        .pword  paddr(WITHIN_L)+PFLASH
 3839              	NOTEQUAL_L:
 3840 0010f8  82       	        .byte   NFA|2
 3841            3C 00 	        .ascii  "<>" 
 3841 0010fa  3E 
 3842            00 00 	        .align  2
 3843              	NOTEQUAL:
 3844 0010fc  2E 00 78 	        mov     [W14--], W0
 3845 0010fe  1E 00 E1 	        cp      W0, [W14]
 3846 001100  00 00 3A 	        bra     NZ, test_true
 3847 001102  00 00 37 	        bra     test_false
 3848              	
MPLAB ASM30 Listing:  ../src/ff-pic24-30-33.s 			page 91


 3849              	;   =       x1 x2 -- flag       return true if x1 = x2
 3850 001104  00 48 00 	        .pword  paddr(NOTEQUAL_L)+PFLASH
 3851              	EQUAL_L:
 3852 001106  81       	        .byte   NFA|1
 3853            3D 00 	        .ascii  "=" 
 3854              	        .align  2
 3855              	EQUAL:
 3856 001108  2E 00 78 	        mov     [W14--], W0
 3857 00110a  1E 00 E1 	        cp      W0, [W14]
 3858 00110c  00 00 32 	        bra     Z, test_true
 3859 00110e  00 00 37 	        bra     test_false
 3860              	
 3861              	;   =       d1 d2 -- flag       return true if d1 = d2
 3862 001110  00 48 00 	        .pword  paddr(EQUAL_L)+PFLASH
 3863              	DEQUAL_L:
 3864 001112  82       	        .byte   NFA|2
 3865            64 00 	        .ascii  "d=" 
 3865 001114  3D 
 3866            00 00 	        .align  2
 3867              	DEQUAL:
 3868 001116  00 00 07 	        rcall   DMINUS
 3869 001118  00 00 04 	        goto    DZEROEQUAL
 3869         00 00 00 
 3870              	
 3871              	;   <       n1 n2 -- flag       return true if n1 < n2
 3872 00111c  00 48 00 	        .pword  paddr(DEQUAL_L)+PFLASH
 3873              	LESS_L:
 3874 00111e  81       	        .byte   NFA|1
 3875            3C 00 	        .ascii  "<" 
 3876              	        .align  2
 3877              	LESS:
 3878 001120  2E 00 78 	        mov     [W14--], W0
 3879 001122  1E 00 E1 	        cp      W0, [W14]
 3880 001124  00 00 3C 	        bra     GT, test_true
 3881 001126  00 00 37 	        bra     test_false
 3882              	
 3883              	;   <       d1 d2 -- flag       return true if d1 < d2
 3884 001128  00 48 00 	        .pword  paddr(LESS_L)+PFLASH
 3885              	DLESS_L:
 3886 00112a  82       	        .byte   NFA|2
 3887            64 00 	        .ascii  "d<" 
 3887 00112c  3C 
 3888            00 00 	        .align  2
 3889              	DLESS:
 3890 00112e  00 00 07 	        rcall   DMINUS
 3891 001130  00 00 04 	        goto    DZEROLESS
 3891         00 00 00 
 3892              	
 3893              	;   >       n1 n2 -- flag      return true if n1 > n2
 3894 001134  00 48 00 	        .pword  paddr(DLESS_L)+PFLASH
 3895              	GREATER_L:
 3896 001136  81       	        .byte   NFA|1
 3897            3E 00 	        .ascii  ">" 
 3898              	        .align  2
 3899              	GREATER:
 3900 001138  2E 00 78 	        mov     [W14--], W0
 3901 00113a  1E 00 E1 	        cp      W0, [W14]
MPLAB ASM30 Listing:  ../src/ff-pic24-30-33.s 			page 92


 3902 00113c  00 00 35 	        bra     LT, test_true
 3903 00113e  00 00 37 	        bra     test_false
 3904              	
 3905              	;   >       d1 d2 -- flag      return true if d1 > d2
 3906 001140  00 48 00 	        .pword  paddr(GREATER_L)+PFLASH
 3907              	DGREATER_L:
 3908 001142  82       	        .byte   NFA|2
 3909            64 00 	        .ascii  "d>" 
 3909 001144  3E 
 3910            00 00 	        .align  2
 3911              	DGREATER:
 3912 001146  00 00 07 	        rcall   TWOSWAP
 3913 001148  00 00 04 	        goto    DLESS
 3913         00 00 00 
 3914              	
 3915              	;   U<      u1 u2 -- flag       test unsigned less
 3916 00114c  00 48 00 	        .pword  paddr(DGREATER_L)+PFLASH
 3917              	ULESS_L:
 3918 00114e  82       	        .byte   NFA|2
 3919            75 00 	        .ascii  "u<" 
 3919 001150  3C 
 3920            00 00 	        .align  2
 3921              	ULESS:
 3922 001152  2E 00 78 	        mov     [W14--], W0
 3923 001154  1E 00 E1 	        cp      W0, [W14]
 3924 001156  00 00 3E 	        bra     GTU, test_true
 3925 001158  00 00 37 	        bra     test_false
 3926              	
 3927              	;   U>      u1 u2 -- flag       test unsigned greater than
 3928 00115a  00 48 00 	        .pword  paddr(ULESS_L)+PFLASH
 3929              	UGREATER_L:
 3930 00115c  82       	        .byte   NFA|2
 3931            75 00 	        .ascii  "u>" 
 3931 00115e  3E 
 3932            00 00 	        .align  2
 3933              	UGREATER:
 3934 001160  2E 00 78 	        mov     [W14--], W0
 3935 001162  1E 00 E1 	        cp      W0, [W14]
 3936 001164  00 00 39 	        bra     LTU, test_true
 3937 001166  00 00 37 	        bra     test_false
 3938              	
 3939              	; *      n1|u1 n2|u2 -- n3|u3      16*16->16 multiply
 3940              	; : *  um* drop ;
 3941 001168  00 48 00 	        .pword  paddr(UGREATER_L)+PFLASH
 3942              	STAR_L:
 3943 00116a  81       	        .byte   NFA|1
 3944            2A 00 	        .ascii  "*" 
 3945              	        .align  2
 3946              	STAR: 
 3947 00116c  00 00 07 	        rcall   UMSTAR
 3948 00116e  62 07 57 	        sub     W14, #2, W14
 3949 001170  00 00 06 	        return
 3950              	
 3951              	; U/      u1 u2 -- u3      16/16-> divide
 3952 001172  00 48 00 	        .pword  paddr(STAR_L)+PFLASH
 3953              	USLASH_L:
 3954 001174  82       	        .byte   NFA|2
MPLAB ASM30 Listing:  ../src/ff-pic24-30-33.s 			page 93


 3955            75 00 	        .ascii  "u/" 
 3955 001176  2F 
 3956            00 00 	        .align  2
 3957              	USLASH:
 3958 001178  00 00 07 	        rcall   USLASHMOD
 3959 00117a  2E 0F 78 	        mov     [W14--], [W14]  ; NIP
 3960 00117c  00 00 06 	        return
 3961              	
 3962              	; U*/MOD  u1 u2 u3 -- u4 u5    u1*u2/u3, rem&quot
 3963 00117e  00 48 00 	        .pword  paddr(USLASH_L)+PFLASH
 3964              	USSMOD_L:
 3965 001180  86       	        .byte   NFA|6
 3966            75 00 	        .ascii  "u*/mod" 
 3966 001182  2A 2F 00 
 3966         6D 6F 00 
 3966         64 
 3967            00 00 	        .align  2
 3968              	USSMOD:
 3969 001188  AE 1F 78 	        push    [W14--]
 3970 00118a  00 00 07 	        rcall   UMSTAR
 3971 00118c  4F 2F 78 	        pop     [++W14]
 3972 00118e  00 00 04 	        goto    UMSLASHMOD
 3972         00 00 00 
 3973              	
 3974              	; */MOD  n1 n2 n3 -- n4 n5    n1*n2/n3, rem&quot
 3975 001192  00 48 00 	        .pword  paddr(USSMOD_L)+PFLASH
 3976              	SSMOD_L:
 3977 001194  85       	        .byte   NFA|5
 3978            2A 00 	        .ascii  "*/mod" 
 3978 001196  2F 6D 00 
 3978         6F 64 00 
 3979              	        .align  2
 3980              	SSMOD:
 3981 00119a  AE 1F 78 	        push    [W14--]
 3982 00119c  00 00 07 	        rcall   MSTAR
 3983 00119e  4F 2F 78 	        pop     [++W14]
 3984 0011a0  00 00 04 	        goto    SMSLASHREM
 3984         00 00 00 
 3985              	
 3986              	; */  n1 n2 n3 -- n4    n1*n2/n3, quot
 3987 0011a4  00 48 00 	        .pword  paddr(SSMOD_L)+PFLASH
 3988              	SS_L:
 3989 0011a6  82       	        .byte   NFA|2
 3990            2A 00 	        .ascii  "*/" 
 3990 0011a8  2F 
 3991            00 00 	        .align  2
 3992              	SS:
 3993 0011aa  AE 1F 78 	        push    [W14--]
 3994 0011ac  00 00 07 	        rcall   MSTAR
 3995 0011ae  4F 2F 78 	        pop     [++W14]
 3996 0011b0  00 00 07 	        rcall   SMSLASHREM
 3997 0011b2  2E 0F 78 	        mov     [W14--], [W14]   ; NIP
 3998 0011b4  00 00 06 	        return
 3999              	
 4000              	; / n1 n2 -- n3  signed 16/16->16 divide
 4001 0011b6  00 48 00 	        .pword  paddr(SS_L)+PFLASH
 4002              	SLASH_L:
MPLAB ASM30 Listing:  ../src/ff-pic24-30-33.s 			page 94


 4003 0011b8  81       	        .byte   NFA|1
 4004            2F 00 	        .ascii  "/" 
 4005              	        .align  2
 4006              	SLASH: 
 4007 0011ba  2E 01 78 	        mov     [W14--], W2
 4008 0011bc  2E 00 78 	        mov     [W14--], W0
 4009 0011be  11 00 09 	        repeat  #17
 4010 0011c0  02 00 D8 	        div.s   W0, W2
 4011 0011c2  00 2F 78 	        mov     W0, [++W14]
 4012 0011c4  00 00 06 	        return
 4013              	
 4014              	; UD*  ud u -- ud
 4015 0011c6  00 48 00 	        .pword  paddr(SLASH_L)+PFLASH
 4016              	L_UDSTAR:
 4017 0011c8  83       	        .byte   NFA|3
 4018            75 00 	        .ascii  "ud*"
 4018 0011ca  64 2A 00 
 4019              	        .align  2
 4020              	UDSTAR:
 4021 0011cc  00 00 07 	        rcall   DUP
 4022 0011ce  AE 1F 78 	        push    [W14--]
 4023 0011d0  00 00 07 	        rcall   UMSTAR
 4024 0011d2  00 00 07 	        rcall   DROP
 4025 0011d4  00 00 07 	        rcall   SWOP
 4026 0011d6  4F 2F 78 	        pop     [++W14]
 4027 0011d8  00 00 07 	        rcall   UMSTAR
 4028 0011da  00 00 07 	        rcall   ROT
 4029 0011dc  00 00 04 	        goto    PLUS
 4029         00 00 00 
 4030              	        
 4031              	; UD/MOD  ud u --u(rem) ud(quot)
 4032 0011e0  00 48 00 	        .pword  paddr(L_UDSTAR)+PFLASH
 4033              	L_UDSLASHMOD:
 4034 0011e2  86       	        .byte   NFA|6
 4035            75 00 	        .ascii  "ud/mod"
 4035 0011e4  64 2F 00 
 4035         6D 6F 00 
 4035         64 
 4036            00 00 	        .align  2
 4037              	UDSLASHMOD:
 4038 0011ea  AE 1F 78 	        push    [W14--]
 4039 0011ec  00 00 07 	        rcall   FALSE_
 4040 0011ee  7F B8 97 	        mov     [W15-2], W0
 4041 0011f0  00 2F 78 	        mov     W0, [++W14]
 4042 0011f2  00 00 07 	        rcall   UMSLASHMOD
 4043 0011f4  00 00 07 	        rcall   ROT
 4044 0011f6  00 00 07 	        rcall   ROT
 4045 0011f8  4F 2F 78 	        pop     [++W14]
 4046 0011fa  00 00 07 	        rcall   UMSLASHMOD
 4047 0011fc  00 00 04 	        goto    ROT
 4047         00 00 00 
 4048              	        
 4049              	
 4050              	;   NIP x1 x2 -- x2         NIP
 4051 001200  00 48 00 	        .pword  paddr(L_UDSLASHMOD)+PFLASH
 4052              	NIP_L:
 4053 001202  A3       	        .byte   NFA|INLINE|3
MPLAB ASM30 Listing:  ../src/ff-pic24-30-33.s 			page 95


 4054            6E 00 	        .ascii  "nip" 
 4054 001204  69 70 00 
 4055              	        .align  2
 4056              	NIP:
 4057 001206  2E 0F 78 	        mov     [W14--], [W14]
 4058 001208  00 00 06 	        return
 4059              	
 4060              	;   TUCK    x1 x2 -- x2 x1 x2
 4061 00120a  00 48 00 	        .pword  paddr(NIP_L)+PFLASH
 4062              	TUCK_L:
 4063 00120c  84       	        .byte   NFA|4
 4064            74 00 	        .ascii  "tuck" 
 4064 00120e  75 63 00 
 4064         6B 
 4065            00 00 	        .align  2
 4066              	TUCK:
 4067 001212  00 00 07 	        rcall   SWOP
 4068 001214  00 00 04 	        goto    OVER
 4068         00 00 00 
 4069              	
 4070              	; ?NEGATE  n1 n2 -- n3  negate n1 if n2 negative
 4071              	;   0< IF NEGATE THEN ;
 4072 001218  00 48 00 	        .pword  paddr(TUCK_L)+PFLASH
 4073              	QNEGATE_L:
 4074 00121a  87       	        .byte   NFA|7
 4075            3F 00 	        .ascii  "?negate" 
 4075 00121c  6E 65 00 
 4075         67 61 00 
 4075         74 65 00 
 4076              	        .align  2
 4077              	QNEGATE:
 4078 001222  00 00 07 	        rcall   ZEROLESS
 4079 001224  2E 00 E0 	        cp0     [W14--]
 4080 001226  00 00 32 	        bra     z, QNEGATE1
 4081 001228  1E 0F EA 	        neg     [W14], [W14]
 4082              	QNEGATE1:
 4083 00122a  00 00 06 	        return
 4084              	
 4085              	; MAX    n1 n2 -- n3              signed maximum
 4086              	;   2DUP < IF SWAP THEN DROP ;
 4087 00122c  00 48 00 	        .pword  paddr(QNEGATE_L)+PFLASH
 4088              	MAX_L:
 4089 00122e  83       	        .byte   NFA|3
 4090            6D 00 	        .ascii  "max" 
 4090 001230  61 78 00 
 4091              	        .align  2
 4092              	MAX:    
 4093 001232  00 00 07 	        rcall   TWODUP
 4094 001234  00 00 07 	        rcall   LESS
 4095 001236  2E 00 E0 	        cp0     [W14--]
 4096 001238  00 00 32 	        bra     z, max1
 4097 00123a  00 00 07 	        rcall   SWOP
 4098 00123c  62 07 57 	max1:   sub     W14, #2, W14
 4099 00123e  00 00 06 	        return
 4100              	
 4101              	; MIN    n1 n2 -- n3              signed minimum
 4102              	;   2DUP > IF SWAP THEN DROP ;
MPLAB ASM30 Listing:  ../src/ff-pic24-30-33.s 			page 96


 4103 001240  00 48 00 	        .pword  paddr(MAX_L)+PFLASH
 4104              	MIN_L:
 4105 001242  83       	        .byte   NFA|3
 4106            6D 00 	        .ascii  "min" 
 4106 001244  69 6E 00 
 4107              	        .align  2
 4108              	MIN:    
 4109 001246  00 00 07 	        rcall   TWODUP
 4110 001248  00 00 07 	        rcall   GREATER
 4111 00124a  2E 00 E0 	        cp0     [W14--]
 4112 00124c  00 00 32 	        bra     z, min1
 4113 00124e  00 00 07 	        rcall   SWOP
 4114 001250  62 07 57 	min1:   sub     W14, #2, W14
 4115 001252  00 00 06 	        return
 4116              	
 4117              	; UP    -- a-addr       Current User area
 4118 001254  00 48 00 	        .pword  paddr(MIN_L)+PFLASH
 4119              	UPTR_L:
 4120 001256  82       	        .byte   NFA|2
 4121            75 00 	        .ascii  "up" 
 4121 001258  70 
 4122            00 00 	        .align  2
 4123              	UPTR:
 4124 00125a  00 00 07 	        rcall   DOCREATE
 4125 00125c  00 00 00 	        .word   upcurr
 4126              	
 4127              	; HOLD  char --        add char to output string
 4128              	;   -1 HP +!  HP @ C! ;
 4129 00125e  00 48 00 	        .pword  paddr(UPTR_L)+PFLASH
 4130              	HOLD_L:
 4131 001260  84       	        .byte   NFA|4
 4132            68 00 	        .ascii  "hold" 
 4132 001262  6F 6C 00 
 4132         64 
 4133            00 00 	        .align  2
 4134              	HOLD:
 4135 001266  00 00 07 	        rcall   TRUE_
 4136 001268  00 00 07 	        rcall   HP
 4137 00126a  00 00 07 	        rcall   PLUSSTORE
 4138 00126c  00 00 07 	        rcall   HP
 4139 00126e  00 00 07 	        rcall   FETCH
 4140 001270  00 00 04 	        goto    CSTORE
 4140         00 00 00 
 4141              	
 4142              	; <#    --              begin numeric conversion
 4143              	;   PAD HP ! ;          (initialize Hold Pointer)
 4144 001274  00 48 00 	        .pword  paddr(HOLD_L)+PFLASH
 4145              	LESSNUM_L:
 4146 001276  82       	        .byte   NFA|2
 4147            3C 00 	        .ascii  "<#" 
 4147 001278  23 
 4148            00 00 	        .align  2
 4149              	LESSNUM: 
 4150 00127a  00 00 07 	        rcall   PAD
 4151 00127c  00 00 07 	        rcall   HP
 4152 00127e  00 00 04 	        goto    STORE
 4152         00 00 00 
MPLAB ASM30 Listing:  ../src/ff-pic24-30-33.s 			page 97


 4153              	
 4154              	; >digit   n -- c            convert to 0..9a..z
 4155              	;   [ HEX ] DUP 9 > 7 AND + 30 + ;
 4156 001282  00 48 00 	        .pword  paddr(LESSNUM_L)+PFLASH
 4157              	TODIGIT_L:
 4158 001284  86       	        .byte   NFA|6
 4159            3E 00 	        .ascii  ">digit" 
 4159 001286  64 69 00 
 4159         67 69 00 
 4159         74 
 4160            00 00 	        .align  2
 4161              	TODIGIT: 
 4162 00128c  3E 0F 78 	        mov     [W14++], [W14]      ; dup
 4163              	        mlit    #9
 4163 00128e  90 00 20 	> mov ##9,w0
 4163 001290  00 2F 78 	> mov w0,[++w14]
 4164 001292  00 00 07 	        rcall   GREATER
 4165              	        mlit    #0x27
 4165 001294  70 02 20 	> mov ##0x27,w0
 4165 001296  00 2F 78 	> mov w0,[++w14]
 4166 001298  00 00 07 	        rcall   AND
 4167 00129a  00 00 07 	        rcall   PLUS
 4168              	        mlit    #0x30
 4168 00129c  00 03 20 	> mov ##0x30,w0
 4168 00129e  00 2F 78 	> mov w0,[++w14]
 4169 0012a0  00 00 04 	        goto    PLUS
 4169         00 00 00 
 4170              	
 4171              	; #     ud1 -- ud2     convert 1 digit of output
 4172              	;   BASE @ Ud/MOD rot >digit HOLD ;
 4173 0012a4  00 48 00 	        .pword  paddr(TODIGIT_L)+PFLASH
 4174              	NUM_L:
 4175 0012a6  81       	        .byte   NFA|1
 4176            23 00 	        .ascii  "#"
 4177              	        .align  2
 4178              	NUM:
 4179 0012a8  00 00 07 	        rcall   BASE
 4180 0012aa  00 00 07 	        rcall   FETCH
 4181 0012ac  00 00 07 	        rcall   UDSLASHMOD
 4182 0012ae  00 00 07 	        rcall   ROT
 4183 0012b0  00 00 07 	        rcall   TODIGIT
 4184 0012b2  00 00 04 	        goto    HOLD
 4184         00 00 00 
 4185              	
 4186              	; #S    u1 -- u2      convert remaining digits
 4187              	;   begin # dup 0= until ;
 4188 0012b6  00 48 00 	        .pword  paddr(NUM_L)+PFLASH
 4189              	NUMS_L:
 4190 0012b8  82       	        .byte   NFA|2
 4191            23 00 	        .ascii  "#s"
 4191 0012ba  73 
 4192            00 00 	        .align  2
 4193              	NUMS:
 4194 0012bc  00 00 07 	        rcall   NUM
 4195 0012be  00 00 07 	        rcall   TWODUP
 4196 0012c0  00 00 07 	        rcall   OR
 4197 0012c2  2E 00 E0 	        cp0     [W14--]
MPLAB ASM30 Listing:  ../src/ff-pic24-30-33.s 			page 98


 4198 0012c4  00 00 3A 	        bra     nz, NUMS
 4199 0012c6  00 00 06 	        return
 4200              	
 4201              	; #>    u1 -- c-addr u    end conv., get string
 4202              	;   DROP HP @ HA OVER - ;
 4203 0012c8  00 48 00 	        .pword  paddr(NUMS_L)+PFLASH
 4204              	NUMGREATER_L:
 4205 0012ca  82       	        .byte   NFA|2
 4206            23 00 	        .ascii  "#>"
 4206 0012cc  3E 
 4207            00 00 	        .align  2
 4208              	NUMGREATER:
 4209 0012ce  64 07 57 	        sub     W14, #4, W14
 4210 0012d0  00 00 07 	        rcall   HP
 4211 0012d2  00 00 07 	        rcall   FETCH
 4212 0012d4  00 00 07 	        rcall   PAD
 4213 0012d6  00 00 07 	        rcall   OVER
 4214 0012d8  00 00 04 	        goto    MINUS
 4214         00 00 00 
 4215              	
 4216              	; SIGN  n --               add minus sign if n<0
 4217              	;   0< IF 2D HOLD THEN ; 
 4218 0012dc  00 48 00 	        .pword  paddr(NUMGREATER_L)+PFLASH
 4219              	SIGN_L:
 4220 0012de  84       	        .byte   NFA|4
 4221            73 00 	        .ascii  "sign"
 4221 0012e0  69 67 00 
 4221         6E 
 4222            00 00 	        .align  2
 4223              	SIGN:   
 4224 0012e4  00 00 07 	        rcall   ZEROLESS
 4225 0012e6  2E 00 E0 	        cp0     [W14--]
 4226 0012e8  00 00 32 	        bra     z, SIGN1
 4227              	        mlit    #0x2D
 4227 0012ea  D0 02 20 	> mov ##0x2D,w0
 4227 0012ec  00 2F 78 	> mov w0,[++w14]
 4228 0012ee  00 00 07 	        rcall   HOLD
 4229              	SIGN1:
 4230 0012f0  00 00 06 	        return
 4231              	
 4232              	; U.    u --                  display u unsigned
 4233              	;   <# #S #> TYPE SPACE ;
 4234 0012f2  00 48 00 	        .pword  paddr(SIGN_L)+PFLASH
 4235              	UDOT_L:
 4236 0012f4  82       	        .byte   NFA|2
 4237            75 00 	        .ascii  "u."
 4237 0012f6  2E 
 4238            00 00 	        .align  2
 4239              	UDOT:
 4240 0012f8  00 00 07 	        rcall   LESSNUM
 4241 0012fa  00 00 07 	        rcall   FALSE_
 4242 0012fc  00 00 07 	        rcall   NUMS
 4243 0012fe  00 00 07 	        rcall   NUMGREATER
 4244 001300  00 00 07 	        rcall   TYPE
 4245 001302  00 00 04 	        goto    SPACE_
 4245         00 00 00 
 4246              	
MPLAB ASM30 Listing:  ../src/ff-pic24-30-33.s 			page 99


 4247              	; U.R    u +n --      display u unsigned in field of n.
 4248              	;     <# 1- for # next #s #> type space ;
 4249 001306  00 48 00 	        .pword  paddr(UDOT_L)+PFLASH
 4250              	UDOTR_L:
 4251 001308  83       	        .byte   NFA|3
 4252            75 00 	        .ascii  "u.r"
 4252 00130a  2E 72 00 
 4253              	        .align  2
 4254              	UDOTR:
 4255 00130c  00 00 07 	        rcall   LESSNUM
 4256 00130e  1E 0F E9 	        dec     [W14], [W14]
 4257 001310  AE 1F 78 	        push    [W14--]
 4258 001312  00 00 07 	        rcall   FALSE_
 4259 001314  00 00 37 	        bra     UDOTR2
 4260              	UDOTR1: 
 4261 001316  00 00 07 	        rcall   NUM
 4262              	UDOTR2: 
 4263 001318  CF 1F E9 	        dec     [--W15], [W15++] ; XNEXT
 4264 00131a  00 00 31 	        bra     c, UDOTR1
 4265 00131c  4F 00 78 	        pop     W0                ; UNNEXT
 4266 00131e  00 00 07 	        rcall   NUMS
 4267 001320  00 00 07 	        rcall   NUMGREATER
 4268 001322  00 00 07 	        rcall   TYPE
 4269 001324  00 00 04 	        goto    SPACE_
 4269         00 00 00 
 4270              	
 4271              	; .     n --                    display n signed
 4272 001328  00 48 00 	        .pword  paddr(UDOTR_L)+PFLASH
 4273              	DOT_L:
 4274 00132a  81       	        .byte   NFA|1
 4275            2E 00 	        .ascii  "."
 4276              	        .align  2
 4277              	DOT:
 4278 00132c  00 00 07 	        rcall   LESSNUM
 4279 00132e  3E 0F 78 	        mov     [W14++], [W14]      ; dup
 4280 001330  00 00 07 	        rcall   ABS
 4281 001332  00 00 07 	        rcall   FALSE_
 4282 001334  00 00 07 	        rcall   NUMS
 4283 001336  00 00 07 	        rcall   ROT
 4284 001338  00 00 07 	        rcall   SIGN
 4285 00133a  00 00 07 	        rcall   NUMGREATER
 4286 00133c  00 00 07 	        rcall   TYPE
 4287 00133e  00 00 04 	        goto    SPACE_
 4287         00 00 00 
 4288              	
 4289              	; UD.    ud --                  display ud unsigned
 4290 001342  00 48 00 	        .pword  paddr(DOT_L)+PFLASH
 4291              	UDDOT_L:
 4292 001344  83       	        .byte   NFA|3
 4293            75 00 	        .ascii  "ud."
 4293 001346  64 2E 00 
 4294              	        .align  2
 4295              	UDDOT:
 4296 001348  00 00 07 	        rcall   LESSNUM
 4297 00134a  00 00 07 	        rcall   NUMS
 4298 00134c  00 00 07 	        rcall   NUMGREATER
 4299 00134e  00 00 07 	        rcall   TYPE
MPLAB ASM30 Listing:  ../src/ff-pic24-30-33.s 			page 100


 4300 001350  00 00 04 	        goto    SPACE_
 4300         00 00 00 
 4301              	
 4302              	; .     d --                    display d signed
 4303              	;   <# dup >r dabs #s r> sign #> type space ;
 4304 001354  00 48 00 	        .pword  paddr(UDDOT_L)+PFLASH
 4305              	DDOT_L:
 4306 001356  82       	        .byte   NFA|2
 4307            64 00 	        .ascii  "d."
 4307 001358  2E 
 4308            00 00 	        .align  2
 4309              	DDOT:
 4310 00135a  00 00 07 	        rcall   LESSNUM
 4311 00135c  9E 1F 78 	        push    [W14]
 4312 00135e  00 00 07 	        rcall   DABS
 4313 001360  00 00 07 	        rcall   NUMS
 4314 001362  4F 2F 78 	        pop     [++W14]
 4315 001364  00 00 07 	        rcall   SIGN
 4316 001366  00 00 07 	        rcall   NUMGREATER
 4317 001368  00 00 07 	        rcall   TYPE
 4318 00136a  00 00 04 	        goto    SPACE_
 4318         00 00 00 
 4319              	
 4320 00136e  00 48 00 	        .pword  paddr(DDOT_L)+PFLASH
 4321              	MEMHI_L:
 4322 001370  82       	        .byte   NFA|2
 4323            68 00 	        .ascii  "hi"
 4323 001372  69 
 4324            00 00 	        .align  2
 4325              	MEMHI:
 4326              	        mlit    handle(FLASHHI)+PFLASH
 4326 001374  00 80 24 	> mov #handle(FLASHHI)+PFLASH,w0
 4326 001376  00 2F 78 	> mov w0,[++w14]
 4327 001378  00 00 02 	        call    CSE
 4327         00 00 00 
 4328 00137c  00 00 02 	        call    PLUS
 4328         00 00 00 
 4329 001380  00 00 04 	        goto    FETCH
 4329         00 00 00 
 4330              	FLASHHI:
 4331 001384  FF 47 00 	        .word   PFLASH-1
 4332 001386  FF FF 00 	        .word   0xffff
 4333 001388  FF FF 00 	        .word   FLASH_HI
 4334              	
 4335              	; DECIMAL  --         set number base to decimal
 4336              	;   #10 BASE ! ;
 4337 00138a  00 48 00 	        .pword  paddr(MEMHI_L)+PFLASH
 4338              	DECIMAL_L:
 4339 00138c  87       	        .byte   NFA|7
 4340            64 00 	        .ascii  "decimal"
 4340 00138e  65 63 00 
 4340         69 6D 00 
 4340         61 6C 00 
 4341              	        .align  2
 4342              	DECIMAL: 
 4343              	        mlit    #10
 4343 001394  A0 00 20 	> mov ##10,w0
MPLAB ASM30 Listing:  ../src/ff-pic24-30-33.s 			page 101


 4343 001396  00 2F 78 	> mov w0,[++w14]
 4344 001398  00 00 07 	        rcall   BASE
 4345 00139a  00 00 04 	        goto    STORE
 4345         00 00 00 
 4346              	
 4347              	; HEX     --              set number base to hex
 4348 00139e  00 48 00 	        .pword  paddr(DECIMAL_L)+PFLASH
 4349              	HEX_L:
 4350 0013a0  83       	        .byte   NFA|3
 4351            68 00 	        .ascii  "hex"
 4351 0013a2  65 78 00 
 4352              	        .align  2
 4353              	HEX:
 4354              	        mlit    #0x10
 4354 0013a4  00 01 20 	> mov ##0x10,w0
 4354 0013a6  00 2F 78 	> mov w0,[++w14]
 4355 0013a8  00 00 07 	        rcall   BASE
 4356 0013aa  00 00 04 	        goto    STORE
 4356         00 00 00 
 4357              	
 4358              	; BIN     --              set number base to binary
 4359 0013ae  00 48 00 	        .pword  paddr(HEX_L)+PFLASH
 4360              	BIN_L:
 4361 0013b0  83       	        .byte   NFA|3
 4362            62 00 	        .ascii  "bin"
 4362 0013b2  69 6E 00 
 4363              	        .align  2
 4364              	BIN:
 4365 0013b4  00 00 07 	        rcall   CELL
 4366 0013b6  00 00 07 	        rcall   BASE
 4367 0013b8  00 00 04 	        goto    STORE
 4367         00 00 00 
 4368              	
 4369              	; ULINK   -- a-addr     link to next task
 4370 0013bc  00 48 00 	        .pword  paddr(BIN_L)+PFLASH
 4371              	ULINK_L:
 4372 0013be  85       	        .byte   NFA|5
 4373            75 00 	        .ascii  "ulink"
 4373 0013c0  6C 69 00 
 4373         6E 6B 00 
 4374              	        .align  2
 4375              	ULINK:
 4376 0013c4  00 00 07 	        rcall   DOUSER
 4377 0013c6  EA FF 00 	        .word   ulink
 4378              	
 4379              	; RSAVE   -- a-addr     Return stack save area
 4380 0013c8  00 48 00 	        .pword  paddr(ULINK_L)+PFLASH
 4381              	RSAVE_L:
 4382 0013ca  85       	        .byte   NFA|5
 4383            72 00 	        .ascii  "rsave"
 4383 0013cc  73 61 00 
 4383         76 65 00 
 4384              	        .align  2
 4385              	RSAVE:
 4386 0013d0  00 00 07 	        rcall   DOUSER
 4387 0013d2  F4 FF 00 	        .word   ursave
 4388              	
MPLAB ASM30 Listing:  ../src/ff-pic24-30-33.s 			page 102


 4389              	; SSAVE   -- a-addr     Saved parameter stack pointer
 4390 0013d4  00 48 00 	        .pword  paddr(RSAVE_L)+PFLASH
 4391              	SSAVE_L:
 4392 0013d6  85       	        .byte   NFA|5
 4393            73 00 	        .ascii  "ssave"
 4393 0013d8  73 61 00 
 4393         76 65 00 
 4394              	        .align  2
 4395              	SSAVE:
 4396 0013dc  00 00 07 	        rcall   DOUSER
 4397 0013de  F6 FF 00 	        .word   ussave
 4398              	
 4399              	; TASK   -- a-addr     Pointer to task area
 4400 0013e0  00 48 00 	        .pword  paddr(SSAVE_L)+PFLASH
 4401              	TASK_L:
 4402 0013e2  84       	        .byte   NFA|4
 4403            74 00 	        .ascii  "task"
 4403 0013e4  61 73 00 
 4403         6B 
 4404            00 00 	        .align  2
 4405              	TASK:
 4406 0013e8  00 00 07 	        rcall   DOUSER
 4407 0013ea  F0 FF 00 	        .word   utask
 4408              	
 4409              	; HP       -- a-addr                HOLD pointer
 4410 0013ec  00 48 00 	        .pword  paddr(TASK_L)+PFLASH
 4411              	HP_L:
 4412 0013ee  82       	        .byte   NFA|2
 4413            68 00 	        .ascii  "hp"
 4413 0013f0  70 
 4414            00 00 	        .align  2
 4415              	HP:
 4416 0013f2  00 00 07 	        rcall   DOUSER
 4417 0013f4  00 00 00 	        .word   uhp
 4418              	
 4419              	; PAD     -- a-addr        User PAD buffer
 4420 0013f6  00 48 00 	        .pword  paddr(HP_L)+PFLASH
 4421              	PAD_L:
 4422 0013f8  83       	        .byte   NFA|3
 4423            70 00 	        .ascii  "pad"
 4423 0013fa  61 64 00 
 4424              	        .align  2
 4425              	PAD:
 4426 0013fc  00 00 07 	        rcall   TIB
 4427 0013fe  00 00 07 	        rcall   TIBSIZE
 4428 001400  00 00 04 	        goto    PLUS
 4428         00 00 00 
 4429              	
 4430              	; BASE    -- a-addr       holds conversion radix
 4431 001404  00 48 00 	        .pword  paddr(PAD_L)+PFLASH
 4432              	BASE_L:
 4433 001406  84       	        .byte   NFA|4
 4434            62 00 	        .ascii  "base"
 4434 001408  61 73 00 
 4434         65 
 4435            00 00 	        .align  2
 4436              	BASE:
MPLAB ASM30 Listing:  ../src/ff-pic24-30-33.s 			page 103


 4437 00140c  00 00 07 	        rcall   DOUSER
 4438 00140e  EC FF 00 	        .word   ubase
 4439              	
 4440              	; SOURCE   -- adr n         current input buffer
 4441              	;   'SOURCE 2@ ;        length is at higher adrs
 4442 001410  00 48 00 	        .pword  paddr(BASE_L)+PFLASH
 4443              	SOURCE_L:
 4444 001412  86       	        .byte   NFA|6
 4445            73 00 	        .ascii  "source"
 4445 001414  6F 75 00 
 4445         72 63 00 
 4445         65 
 4446            00 00 	        .align  2
 4447              	SOURCE:
 4448 00141a  00 00 07 	        rcall   TICKSOURCE
 4449 00141c  00 00 04 	        goto    TWOFETCH
 4449         00 00 00 
 4450              	
 4451              	; /STRING  a u n -- a+n u-n          trim string
 4452              	;   swap over - >r + r>
 4453 001420  00 48 00 	        .pword  paddr(SOURCE_L)+PFLASH
 4454              	SLASHSTRING_L:
 4455 001422  87       	        .byte   NFA|7
 4456            2F 00 	        .ascii  "/string"
 4456 001424  73 74 00 
 4456         72 69 00 
 4456         6E 67 00 
 4457              	        .align  2
 4458              	SLASHSTRING:
 4459 00142a  00 00 07 	        rcall   SWOP
 4460 00142c  00 00 07 	        rcall   OVER
 4461 00142e  00 00 07 	        rcall   MINUS
 4462 001430  AE 1F 78 	        push    [W14--]
 4463 001432  00 00 07 	        rcall   PLUS
 4464 001434  4F 2F 78 	        pop     [++W14]
 4465 001436  00 00 06 	        return
 4466              	
 4467              	; \     Skip the rest of the line
 4468 001438  00 48 00 	        .pword  paddr(SLASHSTRING_L)+PFLASH
 4469              	BSLASH_L:
 4470 00143a  C1       	        .byte   NFA|IMMED|1
 4471            5C 00 	        .byte   0x5c
 4472              	        .align  2
 4473              	BSLASH:
 4474 00143c  00 00 07 	        rcall   SOURCE
 4475 00143e  00 00 07 	        rcall   TOIN
 4476 001440  00 00 07 	        rcall   STORE
 4477 001442  62 07 57 	        sub     W14, #2, W14
 4478 001444  00 00 06 	        return
 4479              	
 4480              	
 4481              	; PARSE  char -- c-addr u
 4482 001446  00 48 00 	        .pword  paddr(BSLASH_L)+PFLASH
 4483              	PARSE_L:
 4484 001448  85       	        .byte   NFA|5
 4485            70 00 	        .ascii  "parse"
 4485 00144a  61 72 00 
MPLAB ASM30 Listing:  ../src/ff-pic24-30-33.s 			page 104


 4485         73 65 00 
 4486              	        .align  2
 4487              	PARSE:
 4488 00144e  3E 0F 78 	        mov     [W14++], [W14]      ; dup
 4489 001450  00 00 07 	        rcall   SOURCE
 4490 001452  00 00 07 	        rcall   TOIN
 4491 001454  00 00 07 	        rcall   FETCH
 4492 001456  00 00 07 	        rcall   SLASHSTRING
 4493 001458  3E 0F 78 	        mov     [W14++], [W14]      ; dup
 4494 00145a  AE 1F 78 	        push    [W14--]
 4495 00145c  00 00 07 	        rcall   ROT
 4496 00145e  00 00 07 	        rcall   SKIP
 4497 001460  00 00 07 	        rcall   OVER
 4498 001462  AE 1F 78 	        push    [W14--]
 4499 001464  00 00 07 	        rcall   ROT
 4500 001466  00 00 07 	        rcall   SCAN
 4501 001468  1E 00 E0 	        cp0     [W14]
 4502 00146a  00 00 32 	        bra     z, PARSE1
 4503 00146c  1E 0F E9 	        dec     [W14], [W14]
 4504              	PARSE1:
 4505 00146e  4F 2F 78 	        pop     [++W14]     ; R>
 4506 001470  4F 2F 78 	        pop     [++W14]     ; R>
 4507 001472  00 00 07 	        rcall   ROT
 4508 001474  00 00 07 	        rcall   MINUS
 4509 001476  00 00 07 	        rcall   TOIN
 4510 001478  00 00 07 	        rcall   PLUSSTORE
 4511 00147a  00 00 07 	        rcall   TUCK
 4512 00147c  00 00 04 	        goto    MINUS
 4512         00 00 00 
 4513              	
 4514              	; WORD   char -- c-addr        word delimited by char
 4515              	; Length byte is written to the input buffer.
 4516 001480  00 48 00 	        .pword  paddr(PARSE_L)+PFLASH
 4517              	WORD_L:
 4518 001482  84       	        .byte   NFA|4
 4519            77 00 	        .ascii  "word"
 4519 001484  6F 72 00 
 4519         64 
 4520            00 00 	        .align  2
 4521              	WORD:
 4522 001488  00 00 07 	        rcall   PARSE
 4523 00148a  00 00 07 	        rcall   SWOP
 4524 00148c  00 00 07 	        rcall   ONEMINUS
 4525 00148e  00 00 07 	        rcall   TUCK
 4526 001490  00 00 04 	        goto    CSTORE
 4526         00 00 00 
 4527              	
 4528 001494  00 48 00 	        .pword  paddr(WORD_L)+PFLASH
 4529              	ERASE_L:
 4530 001496  85       	        .byte   NFA|5
 4531            65 00 	        .ascii  "erase"
 4531 001498  72 61 00 
 4531         73 65 00 
 4532              	        .align  2
 4533              	ERASE_:
 4534              	        mlit    0
 4534 00149c  00 00 20 	> mov #0,w0
MPLAB ASM30 Listing:  ../src/ff-pic24-30-33.s 			page 105


 4534 00149e  00 2F 78 	> mov w0,[++w14]
 4535 0014a0  00 00 04 	        goto    FILL
 4535         00 00 00 
 4536              	       
 4537 0014a4  00 48 00 	        .pword  paddr(ERASE_L)+PFLASH
 4538              	BLANKS_L:
 4539 0014a6  86       	        .byte   NFA|6
 4540            62 00 	        .ascii  "blanks"
 4540 0014a8  6C 61 00 
 4540         6E 6B 00 
 4540         73 
 4541            00 00 	        .align  2
 4542              	BLANKS:
 4543              	        mlit    ' '
 4543 0014ae  00 02 20 	> mov #32,w0
 4543 0014b0  00 2F 78 	> mov w0,[++w14]
 4544 0014b2  00 00 04 	        goto    FILL
 4544         00 00 00 
 4545              	
 4546              	; FILL  addr n c --  copy u bytes from src to dst
 4547              	; fill rot !p>r swap for dup pc! p+ next r>p drop ;
 4548 0014b6  00 48 00 	        .pword  paddr(BLANKS_L)+PFLASH
 4549              	FILL_L:
 4550 0014b8  84       	        .byte   NFA|4
 4551            66 00 	        .ascii  "fill"
 4551 0014ba  69 6C 00 
 4551         6C 
 4552            00 00 	        .align  2
 4553              	FILL:
 4554 0014be  8D 1F 78 	        push    W13             ; P to return stack
 4555 0014c0  AE 00 78 	        mov     [W14--], W1
 4556 0014c2  AE 1F 78 	        push    [W14--]         ; Count to return stack
 4557 0014c4  9E 06 78 	        mov     [W14], W13      ; addr to P
 4558 0014c6  01 0F 78 	        mov     W1, [W14]       ; Char to parameter stack
 4559 0014c8  00 00 37 	        bra     FILL2
 4560              	FILL1:
 4561 0014ca  3E 0F 78 	        mov     [W14++],[W14]
 4562 0014cc  00 00 07 	        rcall   PCSTORE
 4563 0014ce  8D 06 E8 	        inc     W13, W13
 4564              	FILL2:
 4565 0014d0  CF 1F E9 	        dec     [--W15], [W15++] ; XNEXT
 4566 0014d2  00 00 31 	        bra     c, FILL1
 4567 0014d4  4F 00 78 	        pop     W0               ; UNNEXT
 4568 0014d6  CF 06 78 	        pop     W13
 4569 0014d8  62 07 57 	        sub     W14, #2, W14 
 4570 0014da  00 00 06 	        return
 4571              	
 4572              	; CMOVE  src dst u --  copy u bytes from src to dst
 4573              	; cmove swap !p>r for c@+ pc! p+ next r>p drop ;
 4574 0014dc  00 48 00 	        .pword  paddr(FILL_L)+PFLASH
 4575              	CMOVE_L:
 4576 0014de  85       	        .byte   NFA|5
 4577            63 00 	        .ascii  "cmove"
 4577 0014e0  6D 6F 00 
 4577         76 65 00 
 4578              	        .align  2
 4579              	CMOVE:
MPLAB ASM30 Listing:  ../src/ff-pic24-30-33.s 			page 106


 4580 0014e4  8D 1F 78 	        push    W13             ; P to return stack
 4581 0014e6  AE 1F 78 	        push    [W14--]         ; Count to return stack 
 4582 0014e8  AE 06 78 	        mov     [W14--], W13    ; dst to P
 4583 0014ea  00 00 37 	        bra     CMOVE2
 4584              	CMOVE1:
 4585 0014ec  00 00 07 	        rcall   CFETCHPP
 4586 0014ee  00 00 07 	        rcall   PCSTORE
 4587 0014f0  8D 06 E8 	        inc     W13, W13
 4588              	CMOVE2:
 4589 0014f2  CF 1F E9 	        dec     [--W15], [W15++] ; XNEXT
 4590 0014f4  00 00 31 	        bra     c, CMOVE1
 4591 0014f6  4F 00 78 	        pop     W0               ; UNNEXT
 4592 0014f8  CF 06 78 	        pop     W13
 4593 0014fa  62 07 57 	        sub     W14, #2, W14
 4594 0014fc  00 00 06 	        return
 4595              	
 4596              	; WMOVE  src dst u --  copy u words (cells) from src to dst
 4597              	; wmove swap !p for @+ p! p2+ next drop ;
 4598 0014fe  00 48 00 	        .pword  paddr(CMOVE_L)+PFLASH
 4599              	WMOVE_L:
 4600 001500  85       	        .byte   NFA|5
 4601            77 00 	        .ascii  "wmove"
 4601 001502  6D 6F 00 
 4601         76 65 00 
 4602              	        .align  2
 4603              	WMOVE:
 4604 001506  8D 1F 78 	        push    W13
 4605 001508  AE 1F 78 	        push    [W14--]              ; Count
 4606 00150a  AE 06 78 	        mov     [W14--], W13         ; dst 
 4607 00150c  00 00 37 	        bra     WMOVE2
 4608              	WMOVE1:
 4609 00150e  00 00 07 	        rcall   FETCHPP
 4610 001510  00 00 07 	        rcall   PSTORE
 4611 001512  8D 86 E8 	        inc2    W13, W13
 4612              	WMOVE2:
 4613 001514  CF 1F E9 	        dec     [--W15], [W15++] ; XNEXT
 4614 001516  00 00 31 	        bra     c, WMOVE1
 4615 001518  4F 00 78 	        pop     W0               ; UNNEXT
 4616 00151a  CF 06 78 	        pop     W13
 4617 00151c  62 07 57 	        sub     W14, #2, W14
 4618 00151e  00 00 06 	        return
 4619              	
 4620              	; place  src n dst --     place as counted str
 4621 001520  00 48 00 	        .pword  paddr(WMOVE_L)+PFLASH
 4622              	PLACE_L:
 4623 001522  85       	        .byte   NFA|5
 4624            70 00 	        .ascii  "place"
 4624 001524  6C 61 00 
 4624         63 65 00 
 4625              	        .align  2
 4626              	PLACE: 
 4627 001528  00 00 07 	        rcall   TWODUP
 4628 00152a  00 00 07 	        rcall   CSTORE
 4629 00152c  1E 0F E8 	        inc     [W14], [W14]        ; char+
 4630 00152e  00 00 07 	        rcall   SWOP
 4631 001530  00 00 04 	        goto    CMOVE
 4631         00 00 00 
MPLAB ASM30 Listing:  ../src/ff-pic24-30-33.s 			page 107


 4632              	
 4633              	; :     c@+ ( addr -- addr+1 n ) dup 1+ swap c@ ;
 4634 001534  00 48 00 	        .pword  paddr(PLACE_L)+PFLASH
 4635              	CFETCHPP_L:
 4636 001536  83       	        .byte   NFA|3
 4637            63 00 	        .ascii  "c@+"
 4637 001538  40 2B 00 
 4638              	        .align  2
 4639              	CFETCHPP:
 4640 00153a  3E 0F 78 	        mov     [W14++], [W14]      ; dup
 4641 00153c  00 00 07 	        rcall   CFETCH
 4642 00153e  7E B8 97 	        mov     [W14-0x2], W0
 4643 001540  00 00 E8 	        inc     W0, W0
 4644 001542  70 BF 9F 	        mov     W0, [W14-0x2]
 4645 001544  00 00 06 	        return
 4646              	
 4647              	; :     @+ ( addr -- addr+2 n ) dup 2+ swap @ ;
 4648 001546  00 48 00 	        .pword  paddr(CFETCHPP_L)+PFLASH
 4649              	FETCHPP_L:
 4650 001548  82       	        .byte   NFA|2
 4651            40 00 	        .ascii  "@+"
 4651 00154a  2B 
 4652            00 00 	        .align  2
 4653              	FETCHPP:
 4654 00154c  3E 0F 78 	        mov     [W14++], [W14]      ; dup
 4655 00154e  00 00 07 	        rcall   FETCH
 4656 001550  7E B8 97 	        mov     [W14-0x2], W0
 4657 001552  00 80 E8 	        inc2    W0, W0
 4658 001554  70 BF 9F 	        mov     W0, [W14-0x2]      
 4659 001556  00 00 06 	        return
 4660              	
 4661              	; NFA>CFA   nfa -- cfa    name adr -> code field
 4662 001558  00 48 00 	        .pword  paddr(FETCHPP_L)+PFLASH
 4663              	NFATOCFA_L:
 4664 00155a  83       	        .byte   NFA|3
 4665            6E 00 	        .ascii  "n>c"
 4665 00155c  3E 63 00 
 4666              	        .align  2
 4667              	NFATOCFA:
 4668 00155e  00 00 07 	        rcall   CFETCHPP
 4669              	        mlit    #NFL        ; nfu
 4669 001560  F0 00 20 	> mov ##NFL,w0
 4669 001562  00 2F 78 	> mov w0,[++w14]
 4670 001564  00 00 07 	        rcall   AND
 4671 001566  00 00 07 	        rcall   PLUS
 4672 001568  1E 0F E8 	        inc     [W14], [W14]
 4673              	        mlit    #0xfffe
 4673 00156a  E0 FF 2F 	> mov ##0xfffe,w0
 4673 00156c  00 2F 78 	> mov w0,[++w14]
 4674 00156e  00 00 04 	        goto    AND
 4674         00 00 00 
 4675              	
 4676              	; CFA>NFA   cfa -- nfa    code field addr -> name field addr
 4677 001572  00 48 00 	        .pword  paddr(NFATOCFA_L)+PFLASH
 4678              	CFATONFA_L:
 4679 001574  83       	        .byte   NFA|3
 4680            63 00 	        .ascii  "c>n"
MPLAB ASM30 Listing:  ../src/ff-pic24-30-33.s 			page 108


 4680 001576  3E 6E 00 
 4681              	        .align  2
 4682              	CFATONFA:
 4683 001578  1E 0F E9 	        dec     [W14], [W14]
 4684              	CFATONFA1:
 4685 00157a  1E 0F E9 	        dec     [W14], [W14]
 4686 00157c  3E 0F 78 	        mov     [W14++], [W14]      ; dup
 4687 00157e  00 00 07 	        rcall   CFETCH              ; nfu
 4688              	        mlit    #0x7F
 4688 001580  F0 07 20 	> mov ##0x7F,w0
 4688 001582  00 2F 78 	> mov w0,[++w14]
 4689 001584  00 00 07 	        rcall   GREATER
 4690 001586  2E 00 E0 	        cp0     [W14--]
 4691 001588  00 00 32 	        bra     z, CFATONFA1
 4692 00158a  00 00 06 	        return
 4693              	
 4694              	; findi   c-addr nfa -- c-addr 0   if not found
 4695              	;                          xt  1      if immediate
 4696              	;                          xt -1      if "normal"
 4697 00158c  00 48 00 	        .pword  paddr(CFATONFA_L)+PFLASH
 4698              	FINDI_L:
 4699 00158e  83       	        .byte   NFA|3
 4700            28 00 	        .ascii  "(f)"
 4700 001590  66 29 00 
 4701              	        .align  2
 4702              	findi:
 4703              	findi1:
 4704              	FIND_1: 
 4705 001592  00 00 07 	        rcall   TWODUP
 4706 001594  00 00 07 	        rcall   OVER
 4707 001596  00 00 07 	        rcall   CFETCH
 4708 001598  00 00 07 	        rcall   NEQUAL
 4709 00159a  1E 00 E0 	        cp0     [W14]
 4710 00159c  00 00 32 	        bra     z, findi2
 4711 00159e  62 07 57 	        sub     W14, #2, W14
 4712 0015a0  00 00 07 	        rcall   TWOMINUS
 4713 0015a2  00 00 07 	        rcall   FETCH
 4714 0015a4  1E 00 A1 	        bclr    [W14], #0           ; Compensate for bug in ASM30 site
 4715 0015a6  3E 0F 78 	        mov     [W14++], [W14]      ; dup
 4716              	findi2:
 4717 0015a8  2E 00 E0 	        cp0     [W14--]
 4718 0015aa  00 00 3A 	        bra     nz, findi1
 4719 0015ac  1E 00 E0 	        cp0     [W14]
 4720 0015ae  00 00 32 	        bra     z, findi3
 4721 0015b0  2E 0F 78 	        mov     [W14--], [W14]      ; nip
 4722 0015b2  3E 0F 78 	        mov     [W14++], [W14]      ; dup
 4723 0015b4  00 00 07 	        rcall   NFATOCFA
 4724 0015b6  00 00 07 	        rcall   SWOP
 4725 0015b8  00 00 07 	        rcall   IMMEDQ
 4726 0015ba  00 00 07 	        rcall   ZEROEQUAL
 4727 0015bc  00 00 07 	        rcall   ONE
 4728 0015be  00 00 07 	        rcall   OR
 4729              	findi3: 
 4730 0015c0  00 00 07 	        rcall   PAUSE
 4731 0015c2  00 00 06 	        return
 4732              	
 4733              	; IMMED?    nfa -- f        fetch immediate flag
MPLAB ASM30 Listing:  ../src/ff-pic24-30-33.s 			page 109


 4734 0015c4  00 48 00 	        .pword  paddr(FINDI_L)+PFLASH
 4735              	IMMEDQ_L:
 4736 0015c6  86       	        .byte   NFA|6
 4737            69 00 	        .ascii  "immed?"
 4737 0015c8  6D 6D 00 
 4737         65 64 00 
 4737         3F 
 4738            00 00 	        .align  2
 4739              	IMMEDQ: 
 4740 0015ce  00 00 07 	        rcall   CFETCH
 4741              	        mlit    handle(IMMED)+PFLASH
 4741 0015d0  00 84 24 	> mov #handle(IMMED)+PFLASH,w0
 4741 0015d2  00 2F 78 	> mov w0,[++w14]
 4742 0015d4  00 00 04 	        goto    AND
 4742         00 00 00 
 4743              	
 4744              	; FIND   c-addr -- c-addr 0   if not found
 4745              	;                  xt  1      if immediate
 4746              	;                  xt -1      if "normal"
 4747 0015d8  00 48 00 	        .pword  paddr(IMMEDQ_L)+PFLASH
 4748              	FIND_L:
 4749 0015da  84       	        .byte   NFA|4
 4750            66 00 	        .ascii  "find"
 4750 0015dc  69 6E 00 
 4750         64 
 4751            00 00 	        .align  2
 4752              	FIND:   
 4753              	        mlit    handle(kernellink)+PFLASH
 4753 0015e0  00 80 24 	> mov #handle(kernellink)+PFLASH,w0
 4753 0015e2  00 2F 78 	> mov w0,[++w14]
 4754 0015e4  00 00 07 	        rcall   findi
 4755 0015e6  1E 00 E0 	        cp0     [W14]
 4756 0015e8  00 00 3A 	        bra     nz, FIND1
 4757 0015ea  62 07 57 	        sub     W14, #2, W14
 4758 0015ec  00 00 07 	        rcall   LATEST
 4759 0015ee  00 00 07 	        rcall   FETCH
 4760 0015f0  00 00 07 	        rcall   findi
 4761              	FIND1:
 4762 0015f2  00 00 06 	        return
 4763              	
 4764              	; DIGIT?   c -- n -1   if c is a valid digit
 4765 0015f4  00 48 00 	        .pword  paddr(FIND_L)+PFLASH
 4766              	DIGITQ_L:
 4767 0015f6  86       	        .byte   NFA|6
 4768            64 00 	        .ascii  "digit?"
 4768 0015f8  69 67 00 
 4768         69 74 00 
 4768         3F 
 4769            00 00 	        .align  2
 4770              	DIGITQ:
 4771              	                                ; 1 = 31    A = 41
 4772 0015fe  3E 0F 78 	        mov     [W14++], [W14]  ; c c       c c
 4773              	        mlit    0x39            ; c c 39    c c 39
 4773 001600  90 03 20 	> mov #0x39,w0
 4773 001602  00 2F 78 	> mov w0,[++w14]
 4774 001604  00 00 07 	        rcall   GREATER         ; c 0       c ffff
 4775 001606  2E 00 E0 	        cp0     [W14--]
MPLAB ASM30 Listing:  ../src/ff-pic24-30-33.s 			page 110


 4776 001608  00 00 32 	        bra     z, DIGITQ1
 4777              	        mlit    0x27
 4777 00160a  70 02 20 	> mov #0x27,w0
 4777 00160c  00 2F 78 	> mov w0,[++w14]
 4778 00160e  00 00 07 	        rcall   MINUS
 4779              	DIGITQ1:
 4780              	        mlit    0x30            ; c 30
 4780 001610  00 03 20 	> mov #0x30,w0
 4780 001612  00 2F 78 	> mov w0,[++w14]
 4781 001614  00 00 07 	        rcall   MINUS           ; 1
 4782 001616  3E 0F 78 	        mov     [W14++], [W14]  ; 1 1
 4783 001618  00 00 07 	        rcall   BASE            ; 1 1 base
 4784 00161a  00 00 07 	        rcall   FETCH           ; 1 1 10
 4785 00161c  00 00 07 	        rcall   LESS            ; 1 ffff
 4786 00161e  00 00 07 	        rcall   OVER            ; 1 ffff 1
 4787 001620  00 00 07 	        rcall   ZEROLESS        ; 1 ffff 0
 4788 001622  1E 8F EA 	        com     [W14], [W14]
 4789 001624  00 00 04 	        goto    AND
 4789         00 00 00 
 4790              	
 4791              	; SIGN?   adr n -- adr' n' f   get optional sign
 4792 001628  00 48 00 	        .pword  paddr(DIGITQ_L)+PFLASH
 4793              	SIGNQ_L:
 4794 00162a  85       	        .byte   NFA|5
 4795            73 00 	        .ascii  "sign?"
 4795 00162c  69 67 00 
 4795         6E 3F 00 
 4796              	        .align  2
 4797              	SIGNQ:
 4798 001630  00 00 07 	        rcall   OVER
 4799 001632  00 00 07 	        rcall   CFETCH
 4800              	        mlit    ','
 4800 001634  C0 02 20 	> mov #44,w0
 4800 001636  00 2F 78 	> mov w0,[++w14]
 4801 001638  00 00 07 	        rcall   MINUS
 4802 00163a  3E 0F 78 	        mov     [W14++], [W14]      ; dup
 4803 00163c  00 00 07 	        rcall   ABS
 4804 00163e  00 00 07 	        rcall   ONE
 4805 001640  00 00 07 	        rcall   EQUAL
 4806 001642  00 00 07 	        rcall   AND
 4807 001644  1E 00 E0 	        cp0     [W14]
 4808 001646  00 00 32 	        bra     z, QSIGN1
 4809 001648  1E 0F E8 	        inc     [W14], [W14]
 4810 00164a  AE 1F 78 	        push    [W14--]
 4811 00164c  00 00 07 	        rcall   ONE
 4812 00164e  00 00 07 	        rcall   SLASHSTRING
 4813 001650  4F 2F 78 	        pop     [++W14]
 4814 001652  00 00 06 	QSIGN1: return
 4815              	
 4816              	; >NUMBER  0 0  adr u -- ud.l ud.h  adr' u'
 4817              	;                       convert string to number
 4818 001654  00 48 00 	        .pword  paddr(SIGNQ_L)+PFLASH
 4819              	TONUMBER_L:
 4820 001656  87       	        .byte   NFA|7
 4821            3E 00 	        .ascii  ">number"
 4821 001658  6E 75 00 
 4821         6D 62 00 
MPLAB ASM30 Listing:  ../src/ff-pic24-30-33.s 			page 111


 4821         65 72 00 
 4822              	        .align  2
 4823              	TONUMBER:
 4824              	TONUM1:
 4825 00165e  1E 00 E0 	        cp0     [W14]           ; ud.l ud.h  adr u
 4826 001660  00 00 32 	        bra     z, TONUM3
 4827 001662  AE 1F 78 	        push    [W14--]
 4828 001664  9E 1F 78 	        push    [W14]
 4829 001666  00 00 07 	        rcall   CFETCH
 4830 001668  00 00 07 	        rcall   DIGITQ
 4831 00166a  2E 00 E0 	        cp0     [W14--]
 4832 00166c  00 00 3A 	        bra     nz, TONUM2
 4833 00166e  62 07 57 	        sub     W14, #2, W14
 4834 001670  4F 2F 78 	        pop     [++W14]
 4835 001672  4F 2F 78 	        pop     [++W14]
 4836 001674  00 00 37 	        bra     TONUM3
 4837              	TONUM2:
 4838 001676  AE 1F 78 	        push    [W14--]            ; ud.l ud.h digit 
 4839 001678  00 00 07 	        rcall   BASE
 4840 00167a  00 00 07 	        rcall   FETCH
 4841 00167c  00 00 07 	        rcall   UDSTAR
 4842 00167e  4F 2F 78 	        pop     [++W14]
 4843 001680  00 00 07 	        rcall   MPLUS
 4844 001682  4F 2F 78 	        pop     [++W14]
 4845 001684  4F 2F 78 	        pop     [++W14]  
 4846 001686  00 00 07 	        rcall   ONE
 4847 001688  00 00 07 	        rcall   SLASHSTRING
 4848 00168a  00 00 37 	        bra     TONUM1
 4849              	TONUM3: 
 4850 00168c  00 00 06 	        return
 4851              	
 4852              	BASEQV:   
 4853 00168e  00 48 00 	        .word      handle(DECIMAL)+PFLASH
 4854 001690  00 48 00 	        .word      handle(HEX)+PFLASH
 4855 001692  00 48 00 	        .word      handle(BIN)+PFLASH
 4856              	; NUMBER?  c-addr -- n 1      string->number
 4857              	;                 -- dl du 2   string-> double number
 4858              	;                 -- c-addr 0  if convert error
 4859 001694  00 48 00 	        .pword  paddr(TONUMBER_L)+PFLASH
 4860              	NUMBERQ_L:
 4861 001696  87       	        .byte   NFA|7
 4862            6E 00 	        .ascii  "number?"
 4862 001698  75 6D 00 
 4862         62 65 00 
 4862         72 3F 00 
 4863              	        .align  2
 4864              	NUMBERQ:
 4865 00169e  3E 0F 78 	        mov     [W14++], [W14]  ; a a
 4866 0016a0  00 00 07 	        rcall   FALSE_          ; a a 0
 4867 0016a2  00 00 07 	        rcall   FALSE_          ; a a 0 0 
 4868 0016a4  00 00 07 	        rcall   ROT             ; a 0 0 a
 4869 0016a6  00 00 07 	        rcall   CFETCHPP        ; a 0 0 a' u
 4870 0016a8  00 00 07 	        rcall   SIGNQ           ; a 0 0 a' u f
 4871 0016aa  AE 1F 78 	        push    [W14--]         ; a 0 a' u
 4872 0016ac  00 00 07 	        rcall   BASE
 4873 0016ae  00 00 07 	        rcall   FETCH
 4874 0016b0  AE 1F 78 	        push    [W14--]        ; a 0 0 a' u
MPLAB ASM30 Listing:  ../src/ff-pic24-30-33.s 			page 112


 4875 0016b2  00 00 07 	        rcall   OVER
 4876 0016b4  00 00 07 	        rcall   CFETCH
 4877              	        mlit    '#'
 4877 0016b6  30 02 20 	> mov #35,w0
 4877 0016b8  00 2F 78 	> mov w0,[++w14]
 4878 0016ba  00 00 07 	        rcall   MINUS
 4879 0016bc  3E 0F 78 	        mov     [W14++], [W14]      ; dup
 4880              	        mlit    3
 4880 0016be  30 00 20 	> mov #3,w0
 4880 0016c0  00 2F 78 	> mov w0,[++w14]
 4881 0016c2  00 00 07 	        rcall   ULESS
 4882 0016c4  2E 00 E0 	        cp0     [W14--]
 4883 0016c6  00 00 32 	        bra     z, BASEQ1
 4884 0016c8  1E 0F D0 	        sl      [W14], [W14]        ; CELLS
 4885              	        mlit    handle(BASEQV)+PFLASH
 4885 0016ca  00 80 24 	> mov #handle(BASEQV)+PFLASH,w0
 4885 0016cc  00 2F 78 	> mov w0,[++w14]
 4886 0016ce  00 00 07 	        rcall   PLUS
 4887 0016d0  00 00 07 	        rcall   FEXECUTE
 4888 0016d2  00 00 07 	        rcall   ONE
 4889 0016d4  00 00 07 	        rcall   SLASHSTRING
 4890 0016d6  00 00 37 	        bra     BASEQ2
 4891              	BASEQ1:
 4892 0016d8  62 07 57 	        sub     W14, #2, W14
 4893              	BASEQ2: 
 4894 0016da  00 00 07 	        rcall   TONUMBER        ; a ud.l ud.h  a' u
 4895 0016dc  4F 2F 78 	        pop     [++W14]         ; a ud.l ud.h  a' u oldbase
 4896 0016de  00 00 07 	        rcall   BASE            ; a ud.l ud.h  a' u oldbase addr
 4897 0016e0  00 00 07 	        rcall   STORE           ; a ud.l ud.h  a' u
 4898              	        
 4899 0016e2  3E 0F 78 	        mov     [W14++], [W14]
 4900 0016e4  1E 8F E9 	        dec2    [W14], [W14]
 4901 0016e6  00 00 07 	        rcall   ZEROLESS
 4902 0016e8  2E 00 E0 	        cp0     [W14--]         ; a ud.l ud.h  a' u
 4903 0016ea  00 00 3A 	        bra     nz, QNUMD
 4904              	        
 4905              	QNUM_ERR:                       ; Not a number
 4906 0016ec  4F 2F 78 	        pop     [++W14]         ; a ud.l ud.h a' u sign
 4907 0016ee  66 07 57 	        sub     W14, #6, W14
 4908              	QNUM_ERR1:      
 4909 0016f0  64 07 57 	        sub     W14, #4, W14
 4910 0016f2  00 00 07 	        rcall   FALSE_          ; a 0           Not a number
 4911 0016f4  00 00 37 	        bra     QNUM3
 4912              	
 4913              	QNUMD:                          ; Double number
 4914              	                                ; a ud.l ud.h a' u
 4915 0016f6  00 00 07 	        rcall   TWOSWAP         ; a a' u ud.l ud.h 
 4916 0016f8  4F 2F 78 	        pop     [++W14]         ; a a' u ud.l ud.d sign
 4917 0016fa  2E 00 E0 	        cp0     [W14--]
 4918 0016fc  00 00 32 	        bra     z, QNUMD1
 4919 0016fe  00 00 07 	        rcall   DNEGATE
 4920              	QNUMD1: 
 4921 001700  00 00 07 	        rcall   TWOSWAP         ; a d.l d.h a' u
 4922 001702  2E 00 E0 	        cp0     [W14--]         ; a d.l d.h a'
 4923 001704  00 00 32 	        bra     z, QNUM1
 4924 001706  00 00 07 	        rcall   CFETCH
 4925              	        mlit    '.'
MPLAB ASM30 Listing:  ../src/ff-pic24-30-33.s 			page 113


 4925 001708  E0 02 20 	> mov #46,w0
 4925 00170a  00 2F 78 	> mov w0,[++w14]
 4926 00170c  00 00 07 	        rcall   MINUS
 4927 00170e  2E 00 E0 	        cp0     [W14--]         ; a d.l d.h
 4928 001710  00 00 3A 	        bra     nz, QNUM_ERR1
 4929 001712  00 00 07 	        rcall   ROT             ; d.l d.h a
 4930 001714  62 07 57 	        sub     W14, #2, W14    ; d.l d.h
 4931              	        mlit    2               ; d.l ud.h 2    Double number
 4931 001716  20 00 20 	> mov #2,w0
 4931 001718  00 2F 78 	> mov w0,[++w14]
 4932 00171a  00 00 37 	        bra     QNUM3
 4933              	QNUM1:                          ; single precision dumber
 4934              	                                ; a ud.l ud.h  a'
 4935 00171c  00 00 07 	        rcall   TWODROP         ; a n
 4936 00171e  00 00 07 	        rcall   NIP             ; n
 4937 001720  00 00 07 	        rcall   ONE             ; n 1           Single number
 4938              	QNUM3:  
 4939 001722  00 00 06 	        return
 4940              	
 4941              	; TIBSIZE  -- n                      size of TIB
 4942              	; CONSTANT
 4943 001724  00 48 00 	        .pword  paddr(NUMBERQ_L)+PFLASH
 4944              	TIBSIZE_L:
 4945 001726  83       	        .byte   NFA|3
 4946            74 00 	        .ascii  "ti#"
 4946 001728  69 23 00 
 4947              	        .align  2
 4948              	TIBSIZE:
 4949 00172a  00 00 07 	        rcall   TASK
 4950 00172c  00 00 07 	        rcall   FETCH
 4951              	        mlit    0x5
 4951 00172e  50 00 20 	> mov #0x5,w0
 4951 001730  00 2F 78 	> mov w0,[++w14]
 4952 001732  00 00 07 	        rcall   PLUS
 4953 001734  00 00 04 	        goto    CFETCH
 4953         00 00 00 
 4954              	
 4955              	; TIU     -- a-addr        Terminal Input Buffer Pointer
 4956 001738  00 48 00 	        .pword  paddr(TIBSIZE_L)+PFLASH
 4957              	TIB_L:
 4958 00173a  83       	        .byte   NFA|3
 4959            74 00 	        .ascii  "tib"
 4959 00173c  69 62 00 
 4960              	        .align  2
 4961              	TIB:
 4962 00173e  00 00 07 	        rcall   TIU
 4963 001740  00 00 04 	        goto    FETCH      ; pointer to Terminal input buffer pointer
 4963         00 00 00 
 4964              	
 4965              	; TIU     -- a-addr        Terminal Input Buffer Pointer
 4966 001744  00 48 00 	        .pword  paddr(TIB_L)+PFLASH
 4967              	TIU_L:
 4968 001746  83       	        .byte   NFA|3
 4969            74 00 	        .ascii  "tiu"
 4969 001748  69 75 00 
 4970              	        .align  2
 4971              	TIU:
MPLAB ASM30 Listing:  ../src/ff-pic24-30-33.s 			page 114


 4972 00174a  00 00 07 	        rcall   DOUSER
 4973 00174c  EE FF 00 	        .word   utib             ; pointer to Terminal input buffer pointer
 4974              	
 4975              	; >IN     -- a-addr        holds offset into TIB
 4976              	; In RAM
 4977 00174e  00 48 00 	        .pword  paddr(TIU_L)+PFLASH
 4978              	TOIN_L:
 4979 001750  83       	        .byte   NFA|3
 4980            3E 00 	        .ascii  ">in"
 4980 001752  69 6E 00 
 4981              	        .align  2
 4982              	TOIN:
 4983 001754  00 00 07 	        rcall   DOUSER
 4984 001756  FE FF 00 	        .word   utoin
 4985              	
 4986              	; 'SOURCE  -- a-addr        two cells: len, adrs
 4987 001758  00 48 00 	        .pword  paddr(TOIN_L)+PFLASH
 4988              	TICKSOURCE_L:
 4989 00175a  87       	        .byte   NFA|7
 4990            27 00 	        .ascii  "'source"
 4990 00175c  73 6F 00 
 4990         75 72 00 
 4990         63 65 00 
 4991              	        .align  2
 4992              	TICKSOURCE:
 4993 001762  00 00 07 	        rcall   DOUSER
 4994 001764  FA FF 00 	        .word   usource           ; two cells !!!!!!
 4995              	
 4996              	
 4997              	; Check the inline bit.
 4998              	; IN? ( nfa -- flag )
 4999 001766  00 48 00 	        .pword  paddr(TICKSOURCE_L)+PFLASH
 5000              	INQ_L:
 5001 001768  83       	        .byte   NFA|3
 5002            69 00 	        .ascii  "in?"
 5002 00176a  6E 3F 00 
 5003              	        .align  2
 5004              	INQ:
 5005 00176c  00 00 07 	        rcall   CFETCH
 5006              	        mlit    INLINE
 5006 00176e  00 02 20 	> mov #INLINE,w0
 5006 001770  00 2F 78 	> mov w0,[++w14]
 5007 001772  00 00 04 	        goto    AND
 5007         00 00 00 
 5008              	
 5009              	; DEBUG-------------------------------------------------
 5010              	.if 0
 5011              	DBG1:
 5012              	        rcall   CR
 5013              	        mov     [W15-4], W0
 5014              	        mov     W0, [++W14]
 5015              	        dec2    [W14], [W14]
 5016              	        rcall   UDOT
 5017              	        mlit    #':'
 5018              	        rcall   EMIT
 5019              	        goto    DOTS
 5020              	.endif
MPLAB ASM30 Listing:  ../src/ff-pic24-30-33.s 			page 115


 5021              	; ------------------------------------------------------
 5022              	;  INTERPRET  i*x c-addr u -- j*x   interpret given buffer
 5023 001776  00 48 00 	        .pword  paddr(INQ_L)+PFLASH
 5024              	INTERPRET_L:
 5025 001778  89       	        .byte   NFA|9
 5026            69 00 	        .ascii  "interpret"
 5026 00177a  6E 74 00 
 5026         65 72 00 
 5026         70 72 00 
 5026         65 74 00 
 5027              	        .align  2
 5028              	INTERPRET: 
 5029 001782  00 00 07 	        rcall   TICKSOURCE
 5030 001784  00 00 07 	        rcall   TWOSTORE
 5031 001786  00 00 07 	        rcall   FALSE_
 5032 001788  00 00 07 	        rcall   TOIN
 5033 00178a  00 00 07 	        rcall   STORE
 5034              	INTER1: 
 5035 00178c  00 00 07 	        rcall   BL
 5036 00178e  00 00 07 	        rcall   WORD
 5037 001790  3E 0F 78 	        mov     [W14++], [W14]      ; dup
 5038 001792  00 00 07 	        rcall   CFETCH
 5039 001794  2E 00 E0 	        cp0     [W14--]
 5040 001796  00 00 32 	        bra     z, INTER6
 5041 001798  00 00 07 	        rcall   FIND
 5042 00179a  1E 00 E0 	        cp0     [W14]
 5043 00179c  00 00 32 	        bra     z, INUMBER
 5044 00179e  1E 0F E8 	        inc     [W14], [W14]
 5045 0017a0  00 00 07 	        rcall   STATE
 5046 0017a2  00 00 07 	        rcall   ZEROEQUAL
 5047 0017a4  00 00 07 	        rcall   OR
 5048 0017a6  2E 00 E0 	        cp0     [W14--]
 5049 0017a8  00 00 32 	        bra     z, INTER2
 5050              	                            ; Compiling immediate or interpret state
 5051 0017aa  3E 0F 78 	        mov     [W14++], [W14]      ; dup
 5052 0017ac  00 00 07 	        rcall   CFATONFA
 5053 0017ae  00 00 07 	        rcall   CFETCH
 5054              	        mlit    COMPILE
 5054 0017b0  00 01 20 	> mov #COMPILE,w0
 5054 0017b2  00 2F 78 	> mov w0,[++w14]
 5055 0017b4  00 00 07 	        rcall   AND 
 5056 0017b6  2E 00 E0 	        cp0     [W14--]
 5057 0017b8  00 00 32 	        bra     z, INTER11  ; Interpretable word
 5058 0017ba  00 00 07 	        rcall   STATE       ; Compile only word
 5059 0017bc  00 00 07 	        rcall   XSQUOTE
 5060 0017be  0C       	        .byte   12
 5061            43 00 	        .ascii  "COMPILE ONLY"
 5061 0017c0  4F 4D 00 
 5061         50 49 00 
 5061         4C 45 00 
 5061         20 4F 00 
 5061         4E 4C 00 
 5061         59 
 5062            00 00 	        .align  2
 5063 0017cc  00 00 07 	        rcall   QABORT
 5064              	INTER11:
 5065 0017ce  3E 0F 78 	        mov     [W14++], [W14]      ; dup
MPLAB ASM30 Listing:  ../src/ff-pic24-30-33.s 			page 116


 5066              	        mlit    handle(SEMICOLON)+PFLASH
 5066 0017d0  00 80 24 	> mov #handle(SEMICOLON)+PFLASH,w0
 5066 0017d2  00 2F 78 	> mov w0,[++w14]
 5067 0017d4  00 00 07 	        rcall   EQUAL
 5068 0017d6  2E 00 E0 	        cp0     [W14--]
 5069 0017d8  00 20 AF 	        btsc    SRL, #Z
 5070 0017da  D9 06 A9 	        bclr    iflags, #tailcall   ; allow tailcall optimisation
 5071 0017dc  D8 C6 A9 	        bclr    iflags, #noclear    ; dont clear flags in case of \
 5072 0017de  3E 0F 78 	        mov     [W14++], [W14]      ; dup
 5073              	        mlit    handle(BSLASH)+PFLASH
 5073 0017e0  00 80 24 	> mov #handle(BSLASH)+PFLASH,w0
 5073 0017e2  00 2F 78 	> mov w0,[++w14]
 5074 0017e4  00 00 07 	        rcall   EQUAL
 5075 0017e6  2E 00 E0 	        cp0     [W14--]
 5076 0017e8  00 20 AF 	        btsc    SRL, #Z
 5077 0017ea  D8 C6 A8 	        bset    iflags, #noclear
 5078 0017ec  00 00 07 	        rcall   EXECUTE         ; Execute a word
 5079 0017ee  D8 C6 AE 	        btss    iflags, #noclear
 5080 0017f0  00 00 37 	        bra     INTER1
 5081 0017f2  D8 86 A9 	        bclr    iflags, #izeroeq ; Clear 0= encountered in compilation
 5082 0017f4  D8 A6 A9 	        bclr    iflags, #idup    ; Clear DUP encountered in compilation
 5083 0017f6  00 00 37 	        bra     INTER1
 5084              	INTER2:
 5085 0017f8  D9 06 A9 	        bclr    iflags, #tailcall  ; allow tailcall optimisation
 5086 0017fa  D8 86 A9 	        bclr    iflags, #izeroeq ; Clear 0= encountered in compilation
 5087 0017fc  3E 0F 78 	        mov     [W14++], [W14]      ; dup
 5088              	        mlit    handle(ZEROEQUAL)+PFLASH ; Check for 0=, modifies IF and UNTIL to use bnz
 5088 0017fe  00 80 24 	> mov #handle(ZEROEQUAL)+PFLASH,w0
 5088 001800  00 2F 78 	> mov w0,[++w14]
 5089 001802  00 00 07 	        rcall   EQUAL
 5090 001804  2E 00 E0 	        cp0     [W14--]
 5091 001806  00 00 32 	        bra     z, INTER3
 5092 001808  D8 86 A8 	        bset    iflags, #izeroeq ; Mark 0= encountered in compilation
 5093 00180a  00 00 37 	        bra     INTERCALL
 5094              	INTER3:
 5095 00180c  3E 0F 78 	        mov     [W14++], [W14]      ; dup
 5096              	        mlit    handle(DUP)+PFLASH
 5096 00180e  00 80 24 	> mov #handle(DUP)+PFLASH,w0
 5096 001810  00 2F 78 	> mov w0,[++w14]
 5097 001812  00 00 07 	        rcall   EQUAL
 5098 001814  2E 00 E0 	        cp0     [W14--]
 5099 001816  00 00 32 	        bra     z, INTERDUPCLR
 5100 001818  D8 A6 A8 	        bset    iflags, #idup    ; Mark DUP encountered during compilation
 5101 00181a  00 00 37 	        bra     INTERXT
 5102              	INTERDUPCLR:
 5103 00181c  D8 A6 A9 	        bclr    iflags, #idup    ; Clear DUP encountered in compilation
 5104              	INTERXT:
 5105 00181e  3E 0F 78 	        mov     [W14++], [W14]      ; dup
 5106 001820  00 00 07 	        rcall   CFATONFA
 5107 001822  00 00 07 	        rcall   INQ
 5108 001824  2E 00 E0 	        cp0     [W14--]
 5109 001826  00 00 32 	        bra     z, INTERCALL
 5110 001828  00 00 07 	        rcall   INLINE_0           ; Inline the word
 5111 00182a  00 00 37 	        bra     INTER1
 5112              	
 5113              	INTERCALL:
 5114 00182c  00 00 07 	        rcall   COMMAXT           ; Compile a call
MPLAB ASM30 Listing:  ../src/ff-pic24-30-33.s 			page 117


 5115 00182e  00 00 37 	        bra     INTER1
 5116              	
 5117              	INUMBER:                           ; Convert to number
 5118 001830  D9 06 A9 	        bclr    iflags, #tailcall  ; allow tailcall optimisation
 5119 001832  D8 86 A9 	        bclr    iflags, #izeroeq   ; Clear 0= encountered in compilation
 5120 001834  D8 A6 A9 	        bclr    iflags, #idup      ; Clear DUP encountered in compilation
 5121 001836  62 07 57 	        sub     W14, #2, W14
 5122 001838  00 00 07 	        rcall   NUMBERQ
 5123 00183a  1E 00 E0 	        cp0     [W14]
 5124 00183c  00 00 32 	        bra     z, IUNKNOWN
 5125 00183e  00 00 07 	        rcall   STATE
 5126 001840  2E 00 E0 	        cp0     [W14--]
 5127 001842  00 00 32 	        bra     z, INUMBER1
 5128 001844  2E 10 A6 	        btss    [W14--], #1
 5129 001846  00 00 37 	        bra     ISINGLE
 5130              	IDOUBLE:
 5131 001848  00 00 07 	        rcall   SWOP
 5132 00184a  00 00 07 	        rcall   LITERAL
 5133              	ISINGLE:
 5134 00184c  00 00 07 	        rcall   LITERAL
 5135 00184e  00 00 37 	        bra     INTER1
 5136              	INUMBER1:
 5137 001850  62 07 57 	        sub     W14, #2, W14
 5138 001852  00 00 37 	        bra     INTER1
 5139              	IUNKNOWN:                        ; ?????
 5140 001854  0E 87 E9 	        dec2    W14, W14
 5141 001856  00 00 07 	        rcall   CFETCHPP
 5142 001858  00 00 07 	        rcall   TYPE
 5143 00185a  00 00 07 	        rcall   FALSE_
 5144 00185c  00 00 07 	        rcall   QABORTQ
 5145              	;        bra     INTER1
 5146              	INTER6: 
 5147 00185e  62 07 57 	        sub     W14, #2, W14
 5148 001860  00 00 06 	        return
 5149              	;nop
 5150 001862  00 48 00 	        .pword  paddr(INTERPRET_L)+PFLASH
 5151              	SHB_L:
 5152 001864  83       	        .byte   NFA|3
 5153            73 00 	        .ascii  "shb"     ; Set header bit
 5153 001866  68 62 00 
 5154              	        .align  2
 5155              	SHB:
 5156 001868  00 00 07 	        rcall   LATEST
 5157 00186a  00 00 07 	        rcall   FETCH
 5158 00186c  3E 0F 78 	        mov     [W14++], [W14]      ; dup
 5159 00186e  00 00 07 	        rcall   CFETCH              ; nfu
 5160 001870  00 00 07 	        rcall   ROT
 5161 001872  00 00 07 	        rcall   OR
 5162 001874  00 00 07 	        rcall   SWOP
 5163 001876  00 00 04 	        goto    CSTORE
 5163         00 00 00 
 5164              	
 5165 00187a  00 48 00 	        .pword  paddr(SHB_L)+PFLASH
 5166              	IMMEDIATE_L:
 5167 00187c  89       	        .byte   NFA|9
 5168            69 00 	        .ascii  "immediate" ; 
 5168 00187e  6D 6D 00 
MPLAB ASM30 Listing:  ../src/ff-pic24-30-33.s 			page 118


 5168         65 64 00 
 5168         69 61 00 
 5168         74 65 00 
 5169              	        .align  2
 5170              	IMMEDIATE:
 5171              	        mlit    IMMED
 5171 001886  00 04 20 	> mov #IMMED,w0
 5171 001888  00 2F 78 	> mov w0,[++w14]
 5172 00188a  00 00 04 	        goto    SHB
 5172         00 00 00 
 5173              	
 5174 00188e  00 48 00 	        .pword  paddr(IMMEDIATE_L)+PFLASH
 5175              	INLINED_L:
 5176 001890  87       	        .byte   NFA|7
 5177            69 00 	        .ascii  "inlined" ; 
 5177 001892  6E 6C 00 
 5177         69 6E 00 
 5177         65 64 00 
 5178              	        .align  2
 5179              	INLINED:
 5180              	        mlit    INLINE
 5180 001898  00 02 20 	> mov #INLINE,w0
 5180 00189a  00 2F 78 	> mov w0,[++w14]
 5181 00189c  00 00 04 	        goto    SHB
 5181         00 00 00 
 5182              	
 5183              	;; .st ( -- ) output a string with current data section and current base info
 5184              	;;; : .st base @ dup decimal <#  [char] , hold #s  [char] < hold #> type 
 5185              	;;;     <# [char] > hold cse #s #> type base ! ;
 5186 0018a0  00 48 00 	        .pword  paddr(INLINED_L)+PFLASH
 5187              	DOTSTATUS_L:
 5188 0018a2  83       	        .byte   NFA|3
 5189            2E 00 	        .ascii  ".st"
 5189 0018a4  73 74 00 
 5190              	        .align  2
 5191              	DOTSTATUS:
 5192              	        mlit    0x3c
 5192 0018a6  C0 03 20 	> mov #0x3c,w0
 5192 0018a8  00 2F 78 	> mov w0,[++w14]
 5193 0018aa  00 00 07 	        rcall   EMIT
 5194 0018ac  00 00 07 	        rcall   DOTBASE
 5195 0018ae  00 00 07 	        rcall   EMIT
 5196              	        mlit    0x2C
 5196 0018b0  C0 02 20 	> mov #0x2C,w0
 5196 0018b2  00 2F 78 	> mov w0,[++w14]
 5197 0018b4  00 00 07 	        rcall   EMIT
 5198 0018b6  00 00 07 	        rcall   MEMQ
 5199 0018b8  00 00 07 	        rcall   TYPE
 5200              	        mlit    0x3e
 5200 0018ba  E0 03 20 	> mov #0x3e,w0
 5200 0018bc  00 2F 78 	> mov w0,[++w14]
 5201 0018be  00 00 07 	        rcall   EMIT
 5202 0018c0  00 00 07 	        rcall   SPACE_
 5203 0018c2  00 00 04 	        goto    DOTS
 5203         00 00 00 
 5204              	
 5205              	.ifndef PEEPROM
MPLAB ASM30 Listing:  ../src/ff-pic24-30-33.s 			page 119


 5206              	FTURNKEY_A:
 5207 0018c6  00 00 07 	        rcall   DOCREATE
 5208 0018c8  00 48 00 	        .word   PFLASH + CONFIG_DATA
 5209              	FRAM_A:
 5210 0018ca  00 00 07 	        rcall   DOCREATE
 5211 0018cc  00 4C 00 	        .word   PFLASH + CONFIG_DATA + IBUFSIZEL
 5212              	FLATEST_A:
 5213 0018ce  00 00 07 	        rcall   DOCREATE
 5214 0018d0  00 50 00 	        .word   PFLASH + CONFIG_DATA + IBUFSIZEL*2
 5215              	FFLASH_A:
 5216 0018d2  00 00 07 	        rcall   DOCREATE
 5217 0018d4  00 54 00 	        .word   PFLASH + CONFIG_DATA + IBUFSIZEL*3
 5218              	
 5219              	; dp0 ( -- ) Initialize turnkey, DPs and latest in flash
 5220              	;        dw      link
 5221              	;link    set     $
 5222              	;        db      NFA|3,"dp0"
 5223              	DP_COLD:
 5224              	        
 5225              	        mlit    handle(STARTV)+PFLASH
 5225 0018d6  00 80 24 	> mov #handle(STARTV)+PFLASH,w0
 5225 0018d8  00 2F 78 	> mov w0,[++w14]
 5226 0018da  00 00 07 	        rcall   FETCHPP
 5227 0018dc  00 00 07 	        rcall   FTURNKEY_A
 5228 0018de  00 00 07 	        rcall   EEINIT
 5229              	        
 5230 0018e0  00 00 07 	        rcall   FETCHPP
 5231 0018e2  00 00 07 	        rcall   FRAM_A
 5232 0018e4  00 00 07 	        rcall   EEINIT
 5233              	        
 5234 0018e6  00 00 07 	        rcall   FETCHPP
 5235 0018e8  00 00 07 	        rcall   FLATEST_A
 5236 0018ea  00 00 07 	        rcall   EEINIT
 5237              	        
 5238 0018ec  00 00 07 	        rcall   FETCH
 5239 0018ee  00 00 07 	        rcall   FFLASH_A
 5240 0018f0  00 00 37 	        bra     EEINIT
 5241              	.endif
 5242              	
 5243              	; dp> ( -- ) Copy ini, dps and latest from eeprom to ram
 5244              	;        dw      link
 5245              	; link    set     $
 5246 0018f2  00 48 00 	        .pword  paddr(DOTSTATUS_L)+PFLASH
 5247              	DP_TO_RAM_L:
 5248 0018f4  83       	        .byte   NFA|3
 5249            64 00 	        .ascii  "dp>"
 5249 0018f6  70 3E 00 
 5250              	        .align  2
 5251              	DP_TO_RAM:
 5252              	.ifdef PEEPROM
 5253              	        mlit    dp_start
 5254              	        mlit    dpSTART
 5255              	        mlit    5
 5256              	        goto    WMOVE
 5257              	.else
 5258 0018f8  8D 1F 78 	        push    W13             ; P to return stack
 5259 0018fa  0D 00 20 	        mov     #dpSTART, W13   ; dst to P
MPLAB ASM30 Listing:  ../src/ff-pic24-30-33.s 			page 120


 5260 0018fc  00 00 07 	        rcall   FTURNKEY_A
 5261              	        mlit    4
 5261 0018fe  40 00 20 	> mov #4,w0
 5261 001900  00 2F 78 	> mov w0,[++w14]
 5262 001902  AE 1F 78 	        push    [W14--]
 5263              	DP_TO_RAM1:
 5264 001904  00 00 07 	        rcall   DUP
 5265 001906  00 00 07 	        rcall   EEREAD
 5266 001908  00 00 07 	        rcall   PSTORE
 5267 00190a  00 00 07 	        rcall   PPLUS2
 5268 00190c  00 00 07 	        rcall   PLUS0x400
 5269 00190e  CF 1F E9 	        dec     [--W15], [W15++] ; XNEXT
 5270 001910  00 00 3A 	        bra     nz, DP_TO_RAM1
 5271              	DP_TO_RAM2:
 5272 001912  4F 00 78 	        pop     W0               ; UNNEXT
 5273 001914  CF 06 78 	        pop     W13
 5274 001916  00 00 04 	        goto    DROP
 5274         00 00 00 
 5275              	
 5276              	PLUS0x400:
 5277              	        mlit    0x400
 5277 00191a  00 40 20 	> mov #0x400,w0
 5277 00191c  00 2F 78 	> mov w0,[++w14]
 5278 00191e  00 00 37 	        bra     PLUS
 5279              	.endif
 5280              	
 5281              	; >dp ( -- ) Copy only changed ini, dp's and latest from ram to eeprom
 5282 001920  00 48 00 	        .pword  paddr(DP_TO_RAM_L)+PFLASH
 5283              	DP_TO_EEPROM_L:
 5284 001922  83       	        .byte   NFA|3
 5285            3E 00 	        .ascii  ">dp"
 5285 001924  64 70 00 
 5286              	        .align  2
 5287              	DP_TO_EEPROM:
 5288              	.ifdef  PEEPROM
 5289              	        mlit    dp_start
 5290              	        push    W13
 5291              	        mov     [W14--], W13
 5292              	        mlit    dpSTART
 5293              	        mlit    5
 5294              	        push    [W14--]
 5295              	        bra     DP_TO_EEPROM_3
 5296              	DP_TO_EEPROM_0:
 5297              	        rcall   FETCHPP
 5298              	        mov     [W14++], [W14]      ; dup
 5299              	        rcall   PFETCH
 5300              	        rcall   NOTEQUAL
 5301              	        cp0     [W14--]
 5302              	        bra     z, DP_TO_EEPROM_1
 5303              	        rcall   PSTORE
 5304              	.if DEBUG_FLASH == 1
 5305              	        mov     #'E', W2
 5306              	        mov     W2, U1TXREG
 5307              	.endif
 5308              	        bra     DP_TO_EEPROM_2
 5309              	DP_TO_EEPROM_1:
 5310              	        sub     W14, #2, W14
MPLAB ASM30 Listing:  ../src/ff-pic24-30-33.s 			page 121


 5311              	DP_TO_EEPROM_2:
 5312              	        inc2    W13, W13
 5313              	DP_TO_EEPROM_3:
 5314              	        dec     [--W15], [W15++] ; XNEXT
 5315              	        bra     c, DP_TO_EEPROM_0
 5316              	        pop     W0
 5317              	        pop     W13
 5318              	        sub     W14, #2, W14
 5319              	        return
 5320              	.else
 5321              	        mlit    dpSTART
 5321 001926  00 00 20 	> mov #dpSTART,w0
 5321 001928  00 2F 78 	> mov w0,[++w14]
 5322 00192a  8D 1F 78 	        push    W13             ; P to return stack
 5323 00192c  AE 06 78 	        mov     [W14--], W13    ; src in ram
 5324 00192e  00 00 07 	        rcall   FTURNKEY_A      ; dst in flash
 5325              	        mlit    4
 5325 001930  40 00 20 	> mov #4,w0
 5325 001932  00 2F 78 	> mov w0,[++w14]
 5326 001934  AE 1F 78 	        push    [W14--]
 5327              	DP_TO_EEPROM_0:
 5328 001936  00 00 07 	        rcall   DUP
 5329 001938  00 00 07 	        rcall   EEREAD
 5330 00193a  00 00 07 	        rcall   PFETCH
 5331 00193c  00 00 07 	        rcall   EQUAL
 5332 00193e  2E 00 E0 	        cp0     [W14--]
 5333 001940  00 00 3A 	        bra     nz, DP_TO_EEPROM_1
 5334 001942  00 00 07 	        rcall   PFETCH
 5335 001944  00 00 07 	        rcall   OVER
 5336 001946  00 00 07 	        rcall   EEWRITE
 5337              	.if DEBUG_FLASH == 1
 5338              	        mov     #'E', W2
 5339              	        mov     W2, U1TXREG
 5340              	.endif
 5341              	DP_TO_EEPROM_1:
 5342 001948  00 00 07 	        rcall   PLUS0x400
 5343 00194a  00 00 07 	        rcall   PPLUS2
 5344 00194c  CF 1F E9 	        dec     [--W15], [W15++] ; XNEXT
 5345 00194e  00 00 3A 	        bra     nz, DP_TO_EEPROM_0
 5346 001950  4F 00 78 	        pop     W0
 5347 001952  CF 06 78 	        pop     W13
 5348 001954  62 07 57 	        sub     W14, #2, W14
 5349 001956  00 00 06 	        return
 5350              	.endif
 5351              	
 5352              	;;; Check parameter stack pointer
 5353 001958  83       	        .byte   NFA|3
 5354            73 00 	        .ascii  "sp?"
 5354 00195a  70 3F 00 
 5355              	        .align  2
 5356              	check_sp:
 5357 00195c  00 00 07 	        rcall   SPFETCH
 5358 00195e  00 00 07 	        rcall   S0
 5359 001960  00 00 07 	        rcall   FETCH
 5360 001962  00 00 07 	        rcall   TIB
 5361 001964  00 00 07 	        rcall   WITHIN
 5362 001966  00 00 07 	        rcall   XSQUOTE
MPLAB ASM30 Listing:  ../src/ff-pic24-30-33.s 			page 122


 5363 001968  03       	        .byte   3
 5364            53 00 	        .ascii  "SP?"
 5364 00196a  50 3F 00 
 5365              	        .align  2
 5366 00196c  00 00 07 	        rcall   QABORT
 5367 00196e  00 00 06 	        return
 5368              	; QUIT     --    R: i*x --    interpret from kbd
 5369 001970  00 48 00 	        .pword  paddr(DP_TO_EEPROM_L)+PFLASH
 5370              	QUIT_L:
 5371 001972  84       	        .byte   NFA|4
 5372            71 00 	        .ascii  "quit"
 5372 001974  75 69 00 
 5372         74 
 5373            00 00 	        .align  2
 5374              	QUIT:
 5375 001978  00 00 07 	        rcall   RPEMPTY         ; Empty the return stack
 5376 00197a  00 00 07 	        rcall   LEFTBRACKET
 5377 00197c  00 00 07 	        rcall   RAM
 5378              	QUIT0:  
 5379 00197e  00 00 07 	        rcall   IFLUSH
 5380              	        ;; Copy INI and DP's from eeprom to ram
 5381 001980  00 00 07 	        rcall   DP_TO_RAM 
 5382              	QUIT1: 
 5383 001982  00 00 07 	        rcall   check_sp
 5384 001984  00 00 07 	        rcall   CR
 5385 001986  00 00 07 	        rcall   TIB
 5386 001988  3E 0F 78 	        mov     [W14++], [W14]      ; dup
 5387 00198a  00 00 07 	        rcall   TIBSIZE
 5388              	        mlit    HOLD_SIZE             ; Reserve  for hold buffer
 5388 00198c  A0 00 20 	> mov #HOLD_SIZE,w0
 5388 00198e  00 2F 78 	> mov w0,[++w14]
 5389 001990  00 00 07 	        rcall   MINUS
 5390 001992  00 00 07 	        rcall   ACCEPT
 5391 001994  00 00 07 	        rcall   SPACE_
 5392 001996  00 00 07 	        rcall   INTERPRET
 5393 001998  00 00 07 	        rcall   STATE
 5394 00199a  2E 00 E0 	        cp0     [W14--]
 5395 00199c  00 00 3A 	        bra     nz, QUIT1
 5396 00199e  00 00 07 	        rcall   DP_TO_EEPROM   
 5397 0019a0  00 00 07 	        rcall   XSQUOTE
 5398 0019a2  03       	        .byte   3
 5399            20 00 	        .ascii  " ok"
 5399 0019a4  6F 6B 00 
 5400              	        .align  2
 5401 0019a6  00 00 07 	        rcall   TYPE
 5402 0019a8  00 00 07 	        rcall   PROMPT
 5403 0019aa  00 00 37 	        bra     QUIT0
 5404 0019ac  00 00 06 	        return
 5405              	
 5406 0019ae  00 48 00 	        .pword  paddr(QUIT_L)+PFLASH
 5407              	PROMPT_L:
 5408 0019b0  86       	        .byte   NFA|6
 5409            70 00 	        .ascii  "prompt"
 5409 0019b2  72 6F 00 
 5409         6D 70 00 
 5409         74 
 5410            00 00 	        .align  2
MPLAB ASM30 Listing:  ../src/ff-pic24-30-33.s 			page 123


 5411              	PROMPT:
 5412 0019b8  00 00 07 	        rcall   DEFER_DOES
 5413 0019ba  00 00 00 	        .word   prompt
 5414              	
 5415              	; ABORT    i*x --   R: j*x --   clear stk & QUIT
 5416 0019bc  00 48 00 	        .pword  paddr(PROMPT_L)+PFLASH
 5417              	ABORT_L:
 5418 0019be  85       	        .byte   NFA|5
 5419            61 00 	        .ascii  "abort"
 5419 0019c0  62 6F 00 
 5419         72 74 00 
 5420              	        .align  2
 5421              	ABORT:
 5422 0019c4  00 00 07 	        rcall   S0
 5423 0019c6  00 00 07 	        rcall   FETCH
 5424 0019c8  00 00 07 	        rcall   SPSTORE
 5425 0019ca  00 00 04 	        goto    QUIT            ; QUIT never returns
 5425         00 00 00 
 5426              	
 5427              	; ?ABORT   f --       abort & print ?
 5428 0019ce  00 48 00 	        .pword  paddr(ABORT_L)+PFLASH
 5429              	QABORTQ_L:
 5430 0019d0  87       	        .byte   NFA|7
 5431            3F 00 	        .ascii  "?abort?"
 5431 0019d2  61 62 00 
 5431         6F 72 00 
 5431         74 3F 00 
 5432              	        .align  2
 5433              	QABORTQ:
 5434 0019d8  00 00 07 	        rcall   XSQUOTE
 5435 0019da  01       	        .byte   1
 5436            3F 00 	        .ascii  "?"
 5437              	        .align  2
 5438 0019dc  00 00 37 	        bra     QABORT
 5439              	
 5440              	; ?ABORT   f c-addr u --       abort & print msg
 5441 0019de  00 48 00 	        .pword  paddr(QABORTQ_L)+PFLASH
 5442              	QABORT_L:
 5443 0019e0  86       	        .byte   NFA|6
 5444            3F 00 	        .ascii  "?abort"
 5444 0019e2  61 62 00 
 5444         6F 72 00 
 5444         74 
 5445            00 00 	        .align  2
 5446              	QABORT:
 5447 0019e8  00 00 07 	        rcall   ROT
 5448 0019ea  2E 00 E0 	        cp0     [W14--]
 5449 0019ec  00 00 3A 	        bra     nz, QABO1
 5450              	QABORT1:        
 5451 0019ee  00 00 07 	        rcall   SPACE_
 5452 0019f0  00 00 07 	        rcall   TYPE
 5453 0019f2  00 00 07 	        rcall   ABORT  ; ABORT never returns
 5454 0019f4  64 07 57 	QABO1:  sub     W14, #4, W14        ; 2drop
 5455 0019f6  00 00 06 	        return
 5456              	
 5457              	; ABORT"  i*x 0  -- i*x   R: j*x -- j*x  x1=0
 5458              	;         i*x x1 --       R: j*x --      x1<>0
MPLAB ASM30 Listing:  ../src/ff-pic24-30-33.s 			page 124


 5459 0019f8  00 48 00 	        .pword  paddr(QABORT_L)+PFLASH
 5460              	ABORTQUOTE_L:
 5461 0019fa  D6       	        .byte   NFA|IMMED|COMPILE|6
 5462            61 00 	        .ascii  "abort\""
 5462 0019fc  62 6F 00 
 5462         72 74 00 
 5462         22 
 5463            00 00 	        .align  2
 5464              	ABORTQUOTE:
 5465 001a02  00 00 07 	        rcall   SQUOTE
 5466 001a04  00 00 07 	        rcall   DOCOMMAXT
 5467 001a06  00 48 00 	        .word   handle(QABORT)+PFLASH
 5468 001a08  00 00 06 	        return
 5469              	
 5470              	; '    -- xt             find word in dictionary
 5471 001a0a  00 48 00 	        .pword  paddr(ABORTQUOTE_L)+PFLASH
 5472              	TICK_L:
 5473 001a0c  81       	        .byte   NFA|1
 5474            27 00 	        .byte   0x27
 5475              	        .align  2
 5476              	TICK:
 5477 001a0e  00 00 07 	        rcall   BL
 5478 001a10  00 00 07 	        rcall   WORD
 5479 001a12  00 00 07 	        rcall   FIND
 5480 001a14  00 00 04 	        goto    QABORTQ
 5480         00 00 00 
 5481              	
 5482              	; CHAR   -- char           parse ASCII character
 5483 001a18  00 48 00 	        .pword  paddr(TICK_L)+PFLASH
 5484              	CHAR_L:
 5485 001a1a  84       	        .byte   NFA|4
 5486            63 00 	        .ascii  "char"
 5486 001a1c  68 61 00 
 5486         72 
 5487            00 00 	        .align  2
 5488              	CHAR:
 5489 001a20  00 00 07 	        rcall   BL
 5490 001a22  00 00 07 	        rcall   PARSE
 5491 001a24  0E 87 E9 	        dec2    W14, W14
 5492 001a26  00 00 04 	        goto    CFETCH
 5492         00 00 00 
 5493              	
 5494              	; (    --                     skip input until )
 5495 001a2a  00 48 00 	        .pword  paddr(CHAR_L)+PFLASH
 5496              	PAREN_L:
 5497 001a2c  C1       	        .byte   NFA|IMMED|1
 5498            28 00 	        .ascii  "("
 5499              	        .align  2
 5500              	PAREN:
 5501              	        mlit    0x29
 5501 001a2e  90 02 20 	> mov #0x29,w0
 5501 001a30  00 2F 78 	> mov w0,[++w14]
 5502 001a32  00 00 07 	        rcall   PARSE
 5503 001a34  64 07 57 	        sub     W14, #4, W14
 5504 001a36  D8 C6 A9 	        bclr    iflags, #noclear ; dont clear flags in case of (
 5505 001a38  00 00 06 	        return
 5506              	
MPLAB ASM30 Listing:  ../src/ff-pic24-30-33.s 			page 125


 5507              	; IHERE    -- a-addr    return Code dictionary ptr
 5508              	;   IDP @ ;
 5509              	;        .pword  paddr(PAREN_L)+PFLASH
 5510              	IHERE_L:
 5511 001a3a  85       	        .byte   NFA|5
 5512            69 00 	        .ascii  "ihere"
 5512 001a3c  68 65 00 
 5512         72 65 00 
 5513              	        .align  2
 5514              	IHERE:
 5515 001a40  00 00 80 	        mov     dpFLASH, W0
 5516 001a42  00 2F 78 	        mov     W0, [++W14]     ; IHERE must not trash W12=hibyte
 5517 001a44  00 00 06 	        return
 5518              	;        rcall   IDP
 5519              	;        goto    FETCH
 5520              	
 5521              	; [CHAR]   --          compile character literal
 5522 001a46  00 48 00 	        .pword  paddr(PAREN_L)+PFLASH
 5523              	BRACCHAR_L:
 5524 001a48  D6       	        .byte   NFA|IMMED|COMPILE|6
 5525            5B 00 	        .ascii  "[char]"
 5525 001a4a  63 68 00 
 5525         61 72 00 
 5525         5D 
 5526            00 00 	        .align  2
 5527              	BRACCHAR:
 5528 001a50  00 00 07 	        rcall   CHAR
 5529 001a52  00 00 04 	        goto    LITERAL
 5529         00 00 00 
 5530              	
 5531              	; CREATE   --         create an empty definition
 5532              	; Create a definition header and append 
 5533              	; doCREATE and the current data space dictionary pointer
 5534              	; in FLASH.
 5535              	;  Examples :   
 5536              	; : table create 10 cells allot does> swap cells + ;
 5537              	; ram table table_a     flash table table_b    eeprom table table_c
 5538              	; ram variable  qqq
 5539              	; eeprom variable www ram
 5540              	; flash variable  rrr ram 
 5541              	; eeprom create calibrationtable 30 allot ram
 5542              	; 
 5543 001a56  00 48 00 	        .pword  paddr(BRACCHAR_L)+PFLASH
 5544              	CREATE_L:
 5545 001a58  86       	        .byte   NFA|6
 5546            63 00 	        .ascii  "create"
 5546 001a5a  72 65 00 
 5546         61 74 00 
 5546         65 
 5547            00 00 	        .align  2
 5548              	CREATE:
 5549 001a60  00 00 07 	        rcall   BL
 5550 001a62  00 00 07 	        rcall   WORD
 5551 001a64  3E 0F 78 	        mov     [W14++], [W14]      ; Remember word
 5552 001a66  00 00 07 	        rcall   FIND
 5553 001a68  00 00 07 	        rcall   NIP
 5554 001a6a  00 00 07 	        rcall   ZEROEQUAL
MPLAB ASM30 Listing:  ../src/ff-pic24-30-33.s 			page 126


 5555 001a6c  00 00 07 	        rcall   XSQUOTE
 5556 001a6e  0F       	        .byte   15
 5557            41 00 	        .ascii  "ALREADY DEFINED"
 5557 001a70  4C 52 00 
 5557         45 41 00 
 5557         44 59 00 
 5557         20 44 00 
 5557         45 46 00 
 5557         49 4E 00 
 5557         45 44 00 
 5558              	        .align  2
 5559 001a7e  00 00 07 	        rcall   QABORT           ; ABORT if word has already been defined
 5560 001a80  3E 0F 78 	        mov     [W14++], [W14]      ; Remember word
 5561 001a82  00 00 07 	        rcall   CFETCH
 5562 001a84  00 00 07 	        rcall   ONE
 5563              	        mlit    #16
 5563 001a86  00 01 20 	> mov ##16,w0
 5563 001a88  00 2F 78 	> mov w0,[++w14]
 5564 001a8a  00 00 07 	        rcall   WITHIN
 5565 001a8c  00 00 07 	        rcall   QABORTQ          ; Abort if there is no name for create
 5566              	
 5567 001a8e  00 00 07 	        rcall   LATEST
 5568 001a90  00 00 07 	        rcall   FETCH
 5569 001a92  00 00 07 	        rcall   ICOMMA          ; Link field
 5570 001a94  00 00 07 	        rcall   CFETCHPP        ; str len
 5571 001a96  00 00 07 	        rcall   IHERE
 5572 001a98  3E 0F 78 	        mov     [W14++], [W14]      ; dup             
 5573 001a9a  00 00 07 	        rcall   LATEST          ; new 'latest' link
 5574 001a9c  00 00 07 	        rcall   STORE           ; str len ihere
 5575 001a9e  00 00 07 	        rcall   PLACE           ; 
 5576 001aa0  00 00 07 	        rcall   IHERE           ; ihere
 5577 001aa2  00 00 07 	        rcall   CFETCH
 5578              	        mlit    NFA             ; nfa
 5578 001aa4  00 08 20 	> mov #NFA,w0
 5578 001aa6  00 2F 78 	> mov w0,[++w14]
 5579 001aa8  00 00 07 	        rcall   SHB
 5580 001aaa  1E 0F E8 	        inc     [W14], [W14]
 5581 001aac  00 00 07 	        rcall   ALIGNED
 5582 001aae  00 00 07 	        rcall   IALLOT          ; The header has now been created
 5583 001ab0  00 00 07 	        rcall   DOCOMMAXT       ; Append an exeution token
 5584 001ab2  00 48 00 	        .word   handle(DOCREATE)+PFLASH
 5585              	                                ; compiles the runtime routine to fetch the next dictionary cell to
 5586 001ab4  00 00 07 	        rcall   ALIGN
 5587 001ab6  00 00 07 	        rcall   HERE            ; compiles the current dataspace dp into the dictionary
 5588 001ab8  00 00 80 	        mov     cse, W0
 5589 001aba  40 00 B1 	        sub     #4, W0
 5590 001abc  00 00 3A 	        bra     nz, CREATE2
 5591 001abe  1E 8F E8 	        inc2    [W14], [W14]
 5592              	CREATE2:
 5593 001ac0  00 00 04 	        goto    ICOMMA          ; dp now points to a free cell
 5593         00 00 00 
 5594              	
 5595              	;***************************************************************
 5596              	; POSTPONE
 5597 001ac4  00 48 00 	        .pword  paddr(CREATE_L)+PFLASH
 5598              	POSTPONE_L:
 5599 001ac6  D8       	        .byte   NFA|IMMED|COMPILE|8
MPLAB ASM30 Listing:  ../src/ff-pic24-30-33.s 			page 127


 5600            70 00 	        .ascii  "postpone"
 5600 001ac8  6F 73 00 
 5600         74 70 00 
 5600         6F 6E 00 
 5600         65 
 5601            00 00 	        .align  2
 5602              	POSTPONE:
 5603 001ad0  00 00 07 	        rcall   BL
 5604 001ad2  00 00 07 	        rcall   WORD
 5605 001ad4  00 00 07 	        rcall   FIND
 5606 001ad6  3E 0F 78 	        mov     [W14++], [W14]      ; dup
 5607 001ad8  00 00 07 	        rcall   QABORTQ
 5608 001ada  00 00 07 	        rcall   ZEROLESS
 5609 001adc  2E 00 E0 	        cp0     [W14--]
 5610 001ade  00 00 32 	        bra     z, POSTPONE1
 5611 001ae0  00 00 07 	        rcall   DOCOMMAXT
 5612 001ae2  00 48 00 	        .word   handle(DOCOMMAXT)+PFLASH
 5613 001ae4  00 00 04 	        goto    ICOMMA
 5613         00 00 00 
 5614              	POSTPONE1:
 5615 001ae8  00 00 04 	        goto    COMMAXT
 5615         00 00 00 
 5616              	
 5617              	;***************************************************************
 5618              	; (DOES>)  --      run-time action of DOES>
 5619              	;        dw     link
 5620              	;link   set     $
 5621              	XDOES_L:
 5622 001aec  87       	        .byte   NFA|7
 5623            28 00 	        .ascii  "(does>)"
 5623 001aee  64 6F 00 
 5623         65 73 00 
 5623         3E 29 00 
 5624              	        .align  2
 5625              	XDOES:
 5626 001af4  4F 00 78 	        pop     W0
 5627 001af6  4F 00 78 	        pop     W0
 5628 001af8  01 80 24 	        mov     #PFLASH, W1
 5629 001afa  01 2F 40 	        add     W0, W1, [++W14]     ; a
 5630 001afc  00 00 07 	        rcall   LATEST      ; a a
 5631 001afe  00 00 07 	        rcall   FETCH       ; a nfa
 5632 001b00  00 00 07 	        rcall   NFATOCFA    ; a cfa
 5633 001b02  00 00 07 	        rcall   IHERE       ; a cfa ihere
 5634 001b04  AE 1F 78 	        push    [W14--]     ; a cfa
 5635 001b06  00 00 07 	        rcall   IDP         ; a cfa idp
 5636 001b08  00 00 07 	        rcall   STORE       ; a
 5637 001b0a  00 00 07 	        rcall   COMMAXT
 5638 001b0c  4F 2F 78 	        pop     [++W14]     ; ihere
 5639 001b0e  00 00 07 	        rcall   IDP         ; ihere idp
 5640 001b10  00 00 07 	        rcall   STORE       ;
 5641 001b12  00 00 06 	        return
 5642              	
 5643              	; DOES>    --      change action of latest def'n
 5644 001b14  00 48 00 	        .pword  paddr(POSTPONE_L)+PFLASH
 5645              	DOES_L:
 5646 001b16  D5       	        .byte   NFA|IMMED|COMPILE|5
 5647            64 00 	        .ascii  "does>"
MPLAB ASM30 Listing:  ../src/ff-pic24-30-33.s 			page 128


 5647 001b18  6F 65 00 
 5647         73 3E 00 
 5648              	        .align  2
 5649              	DOES:
 5650 001b1c  00 00 07 	        rcall   DOCOMMAXT
 5651 001b1e  00 48 00 	        .word   handle(XDOES)+PFLASH
 5652 001b20  00 00 07 	        rcall   DOCOMMAXT
 5653 001b22  00 48 00 	        .word   handle(DODOES)+PFLASH
 5654 001b24  00 00 06 	        return
 5655              	
 5656              	;*****************************************************************
 5657              	; [        --      enter interpretive state
 5658 001b26  00 48 00 	        .pword  paddr(DOES_L)+PFLASH
 5659              	LEFTBRACKET_L:
 5660 001b28  C1       	        .byte   NFA|IMMED|1
 5661            5B 00 	        .ascii  "["
 5662              	        .align  2
 5663              	LEFTBRACKET:
 5664 001b2a  78 27 EF 	        clr     state
 5665 001b2c  00 00 06 	        return
 5666              	
 5667              	; ]        --      enter compiling state
 5668 001b2e  00 48 00 	        .pword  paddr(LEFTBRACKET_L)+PFLASH
 5669              	RIGHTBRACKET_L:
 5670 001b30  81       	        .byte   NFA|1
 5671            5D 00 	        .ascii  "]"
 5672              	        .align  2
 5673              	RIGHTBRACKET:
 5674 001b32  78 A7 EF 	        setm    state
 5675 001b34  00 00 06 	        return
 5676              	
 5677              	; :        --           begin a colon definition
 5678 001b36  00 48 00 	        .pword  paddr(RIGHTBRACKET_L)+PFLASH
 5679              	COLON_L:
 5680 001b38  81       	        .byte   NFA|1
 5681            3A 00 	        .ascii  ":"
 5682              	        .align  2
 5683              	COLON:
 5684 001b3a  00 00 07 	        rcall   CREATE
 5685 001b3c  00 00 07 	        rcall   RIGHTBRACKET
 5686              	        mlit    0xfffc      ; -4
 5686 001b3e  C0 FF 2F 	> mov #0xfffc,w0
 5686 001b40  00 2F 78 	> mov w0,[++w14]
 5687 001b42  00 00 04 	        goto    IALLOT
 5687         00 00 00 
 5688              	
 5689              	; :noname        -- a          define headerless forth code
 5690 001b46  00 48 00 	        .pword  paddr(COLON_L)+PFLASH
 5691              	NONAME_L:
 5692 001b48  87       	        .byte   NFA|7
 5693            3A 00 	        .ascii  ":noname"
 5693 001b4a  6E 6F 00 
 5693         6E 61 00 
 5693         6D 65 00 
 5694              	        .align  2
 5695              	NONAME:
 5696 001b50  00 00 07 	        rcall   IHERE
MPLAB ASM30 Listing:  ../src/ff-pic24-30-33.s 			page 129


 5697 001b52  00 00 04 	        goto   RIGHTBRACKET
 5697         00 00 00 
 5698              	
 5699              	; ;        --             end a colon definition
 5700              	;   return, [
 5701 001b56  00 48 00 	        .pword  paddr(NONAME_L)+PFLASH
 5702              	SEMICOLON_L:
 5703 001b58  D1       	        .byte   NFA|IMMED|COMPILE|1
 5704            3B 00 	        .ascii  ";"
 5705              	        .align  2
 5706              	                              ; Tail call optimisation
 5707              	SEMICOLON:
 5708 001b5a  D9 06 AB 	        btst    iflags, #tailcall
 5709 001b5c  00 00 3A 	        bra     nz, SEMICOLON2
 5710 001b5e  00 00 07 	        rcall   IHERE
 5711 001b60  1E 8F E9 	        dec2    [W14], [W14]      ; 2-
 5712 001b62  3E 0F 78 	        mov     [W14++], [W14]    ; DUP
 5713 001b64  00 00 07 	        rcall   CF_FETCH
 5714              	        mlit    7
 5714 001b66  70 00 20 	> mov #7,w0
 5714 001b68  00 2F 78 	> mov w0,[++w14]
 5715 001b6a  00 00 07 	        rcall   EQUAL
 5716 001b6c  2E 00 E0 	        cp0     [W14--]
 5717 001b6e  00 00 32 	        bra     z, SEMICOLON1
 5718 001b70  1E 0F D0 	        sl      [W14], [W14]        ; 2*
 5719 001b72  00 00 07 	        rcall   IHERE
 5720 001b74  00 00 07 	        rcall   PLUS
 5721              	        mlit    PFLASH
 5721 001b76  00 80 24 	> mov #PFLASH,w0
 5721 001b78  00 2F 78 	> mov w0,[++w14]
 5722 001b7a  00 00 07 	        rcall   MINUS
 5723              	        mlit    4
 5723 001b7c  40 00 20 	> mov #4,w0
 5723 001b7e  00 2F 78 	> mov w0,[++w14]
 5724 001b80  00 00 07 	        rcall   ROT
 5725 001b82  00 00 07 	        rcall   CF_STORE
 5726 001b84  00 2F EB 	        clr     [++W14]
 5727 001b86  00 2F EB 	        clr     [++W14]
 5728 001b88  00 00 07 	        rcall   IHERE
 5729 001b8a  00 00 07 	        rcall   CF_STORE
 5730 001b8c  00 00 07 	        rcall   CELL
 5731 001b8e  00 00 07 	        rcall   IALLOT
 5732 001b90  00 00 37 	        bra     SEMICOLON3
 5733              	SEMICOLON1:
 5734 001b92  64 07 57 	        sub     W14, #4, W14
 5735              	SEMICOLON2:
 5736 001b94  D9 06 A9 	        bclr    iflags, #tailcall
 5737 001b96  00 00 07 	        rcall   RETURN_
 5738              	SEMICOLON3:
 5739 001b98  00 00 04 	        goto    LEFTBRACKET
 5739         00 00 00 
 5740              	
 5741              	; ;i        --             end a interrupt colon definition
 5742              	
 5743 001b9c  00 48 00 	        .pword  paddr(SEMICOLON_L)+PFLASH
 5744              	SEMICOLONI_L:
 5745 001b9e  D2       	        .byte   NFA|IMMED|COMPILE|2
MPLAB ASM30 Listing:  ../src/ff-pic24-30-33.s 			page 130


 5746            3B 00 	        .ascii  ";i"
 5746 001ba0  69 
 5747            00 00 	        .align  2
 5748              	SEMICOLONI:
 5749              	.ifdecl INTTREG
 5750              	        mlit    handle(ALT_INT_EXIT)+PFLASH
 5750 001ba2  00 80 24 	> mov #handle(ALT_INT_EXIT)+PFLASH,w0
 5750 001ba4  00 2F 78 	> mov w0,[++w14]
 5751 001ba6  00 00 07 	        rcall   AGAINC
 5752              	.else
 5753              	        rcall   RETFIE_
 5754              	.endif
 5755 001ba8  00 00 04 	        goto    LEFTBRACKET
 5755         00 00 00 
 5756              	
 5757              	; [']  --         find word & compile as literal
 5758 001bac  00 48 00 	        .pword  paddr(SEMICOLONI_L)+PFLASH
 5759              	BRACTICK_L:
 5760 001bae  D3       	        .byte   NFA|IMMED|COMPILE|3
 5761            5B 00 	        .ascii  "[']"
 5761 001bb0  27 5D 00 
 5762              	        .align  2
 5763              	BRACTICK:
 5764 001bb2  00 00 07 	        rcall   TICK       ; get xt of 'xxx'
 5765 001bb4  00 00 04 	        goto    LITERAL
 5765         00 00 00 
 5766              	
 5767              	; ,?0=    -- addr  Compile ?0= and make make place for a branch instruction
 5768              	COMMAZEROSENSE_L:
 5769 001bb8  84       	        .byte   NFA|4
 5770            2C 00 	        .ascii  ",?0="
 5770 001bba  3F 30 00 
 5770         3D 
 5771            00 00 	        .align  2
 5772              	COMMAZEROSENSE:
 5773 001bbe  D8 A6 AB 	        btst    iflags, #idup
 5774 001bc0  00 00 3A 	        bra     nz, COMMAZEROSENSE1
 5775              	        mlit    handle(ZEROSENSE)+PFLASH
 5775 001bc2  00 80 24 	> mov #handle(ZEROSENSE)+PFLASH,w0
 5775 001bc4  00 2F 78 	> mov w0,[++w14]
 5776 001bc6  00 00 37 	        bra     COMMAZEROSENSE2
 5777              	COMMAZEROSENSE1:
 5778 001bc8  00 00 07 	        rcall   IDPMINUS
 5779              	        mlit    handle(DUPZEROSENSE)+PFLASH
 5779 001bca  00 80 24 	> mov #handle(DUPZEROSENSE)+PFLASH,w0
 5779 001bcc  00 2F 78 	> mov w0,[++w14]
 5780              	COMMAZEROSENSE2:
 5781 001bce  D8 A6 A9 	        bclr    iflags, #idup
 5782 001bd0  00 00 37 	        bra     INLINE_0
 5783              	ZEROSENSE:
 5784 001bd2  2E 00 E0 	        cp0     [W14--]
 5785 001bd4  00 00 06 	        return
 5786              	DUPZEROSENSE:
 5787 001bd6  1E 00 E0 	        cp0     [W14]
 5788 001bd8  00 00 06 	        return
 5789              	
 5790 001bda  00 48 00 	        .pword  paddr(BRACTICK_L)+PFLASH
MPLAB ASM30 Listing:  ../src/ff-pic24-30-33.s 			page 131


 5791              	INLINE_L:
 5792 001bdc  D6       	        .byte   NFA|IMMED|COMPILE|6
 5793            69 00 	        .ascii  "inline"
 5793 001bde  6E 6C 00 
 5793         69 6E 00 
 5793         65 
 5794            00 00 	        .align  2
 5795 001be4  D8 86 A9 	        bclr    iflags, #izeroeq
 5796 001be6  D8 A6 A9 	        bclr    iflags, #idup
 5797 001be8  00 00 07 	        rcall   TICK
 5798 001bea  00 00 04 	        goto    INLINE_0
 5798         00 00 00 
 5799              	
 5800              	; in, ( cfa -- ) begin dup cf@ dup $0006 <> while as, 2+ repeat 3drop ;
 5801 001bee  00 48 00 	        .pword  paddr(INLINE_L)+PFLASH
 5802              	INC_L:
 5803 001bf0  83       	        .byte   NFA|3
 5804            69 00 	        .ascii  "in,"
 5804 001bf2  6E 2C 00 
 5805              	        .align  2
 5806              	INLINE_0:
 5807 001bf4  3E 0F 78 	        mov     [W14++], [W14]      ; dup
 5808 001bf6  00 00 07 	        rcall   CF_FETCH
 5809 001bf8  3E 0F 78 	        mov     [W14++], [W14]      ; dup
 5810              	        mlit    #6
 5810 001bfa  60 00 20 	> mov ##6,w0
 5810 001bfc  00 2F 78 	> mov w0,[++w14]
 5811 001bfe  00 00 07 	        rcall   NOTEQUAL
 5812 001c00  2E 00 E0 	        cp0     [W14--]
 5813 001c02  00 00 32 	        bra     z, INLINE1
 5814 001c04  00 00 07 	        rcall   AS_COMMA
 5815 001c06  1E 8F E8 	        inc2    [W14], [W14]
 5816 001c08  00 00 37 	        bra     INLINE_0
 5817              	INLINE1:
 5818 001c0a  66 07 57 	        sub     W14, #6, W14        ; 3drop
 5819 001c0c  00 00 06 	        return
 5820              	
 5821              	; un, ( -- cc)   Unconditional
 5822 001c0e  00 48 00 	        .pword  paddr(INC_L)+PFLASH
 5823              	UNC_L:
 5824 001c10  83       	        .byte   NFA|3
 5825            75 00 	        .ascii  "un,"
 5825 001c12  6E 2C 00 
 5826              	        .align  2
 5827              	UNC:
 5828 001c14  00 00 07 	        rcall   DOCREATE
 5829 001c16  07 00 00 	        .word   7
 5830              	
 5831              	; z,  ( -- cc)   Zero
 5832 001c18  00 48 00 	        .pword  paddr(UNC_L)+PFLASH
 5833              	ZC_L:
 5834 001c1a  82       	        .byte   NFA|2
 5835            7A 00 	        .ascii  "z,"
 5835 001c1c  2C 
 5836            00 00 	        .align  2
 5837              	ZC:
 5838 001c1e  00 00 07 	        rcall   DOCREATE
MPLAB ASM30 Listing:  ../src/ff-pic24-30-33.s 			page 132


 5839 001c20  02 00 00 	        .word   2
 5840              	
 5841              	; nc, ( -- cc) Carry
 5842 001c22  00 48 00 	        .pword  paddr(ZC_L)+PFLASH
 5843              	NC_L:
 5844 001c24  83       	        .byte   NFA|3
 5845            6E 00 	        .ascii  "nc,"
 5845 001c26  63 2C 00 
 5846              	        .align  2
 5847              	NC:
 5848 001c28  00 00 07 	        rcall   DOCREATE
 5849 001c2a  09 00 00 	        .word   9
 5850              	
 5851              	; not, ( cc -- opposite-cc)  Reverse the condition code
 5852 001c2c  00 48 00 	        .pword  paddr(NC_L)+PFLASH
 5853              	NOTC_L:
 5854 001c2e  84       	        .byte   NFA|4
 5855            6E 00 	        .ascii  "not,"
 5855 001c30  6F 74 00 
 5855         2C 
 5856            00 00 	        .align  2
 5857              	NOTC:
 5858              	        mlit    8
 5858 001c34  80 00 20 	> mov #8,w0
 5858 001c36  00 2F 78 	> mov w0,[++w14]
 5859 001c38  00 00 04 	        goto    XOR
 5859         00 00 00 
 5860              	
 5861              	; if, ( cc -- here)  Assembler if
 5862 001c3c  00 48 00 	        .pword  paddr(NOTC_L)+PFLASH
 5863              	IFC_L:
 5864 001c3e  83       	        .byte   NFA|3
 5865            69 00 	        .ascii  "if,"
 5865 001c40  66 2C 00 
 5866              	        .align  2
 5867              	IFC:
 5868 001c42  00 00 07 	        rcall   NOTC
 5869 001c44  00 00 07 	        rcall   IHERE
 5870 001c46  00 00 07 	        rcall   SWOP
 5871 001c48  00 00 07 	        rcall   FALSE_
 5872 001c4a  00 00 04 	        goto    BRA_
 5872         00 00 00 
 5873              	
 5874              	; then, ( back-addr -- )  Assembler then
 5875 001c4e  00 48 00 	        .pword  paddr(IFC_L)+PFLASH
 5876              	THENC_L:
 5877 001c50  85       	        .byte   NFA|5
 5878            74 00 	        .ascii  "then,"
 5878 001c52  68 65 00 
 5878         6E 2C 00 
 5879              	        .align  2
 5880              	THENC:
 5881 001c56  D9 06 A8 	        bset    iflags, #tailcall  ; Disable tailcall optimisation
 5882 001c58  00 00 07 	        rcall   IHERE
 5883 001c5a  00 00 07 	        rcall   OVER
 5884 001c5c  00 00 07 	        rcall   MINUS
 5885 001c5e  1E 8F E9 	        dec2    [W14], [W14]
MPLAB ASM30 Listing:  ../src/ff-pic24-30-33.s 			page 133


 5886 001c60  1E 8F D1 	        asr     [W14], [W14]        ; 2/
 5887 001c62  00 00 07 	        rcall   SWOP
 5888 001c64  9E 1F 78 	        push    [W14]
 5889 001c66  00 00 07 	        rcall   CF_FETCH
 5890 001c68  2E 0F 78 	        mov     [W14--], [W14]      ; nip
 5891 001c6a  4F 2F 78 	        pop     [++W14]
 5892 001c6c  00 00 04 	        goto    CF_STORE
 5892         00 00 00 
 5893              	
 5894              	; else, ( back-addr -- here )  Assembler else
 5895 001c70  00 48 00 	        .pword  paddr(THENC_L)+PFLASH
 5896              	ELSEC_L:
 5897 001c72  85       	        .byte   NFA|5
 5898            65 00 	        .ascii  "else,"
 5898 001c74  6C 73 00 
 5898         65 2C 00 
 5899              	        .align  2
 5900              	ELSEC:
 5901 001c78  00 00 07 	        rcall   IHERE
 5902 001c7a  00 00 07 	        rcall   UNC
 5903 001c7c  00 00 07 	        rcall   FALSE_
 5904 001c7e  00 00 07 	        rcall   BRA_
 5905 001c80  00 00 07 	        rcall   SWOP
 5906 001c82  00 00 04 	        goto    THENC
 5906         00 00 00 
 5907              	
 5908              	; begin,    -- adrs        target for bwd. branch
 5909 001c86  00 48 00 	        .pword  paddr(ELSEC_L)+PFLASH
 5910              	BEGINC_L:
 5911 001c88  86       	        .byte   NFA|6
 5912            62 00 	        .ascii  "begin,"
 5912 001c8a  65 67 00 
 5912         69 6E 00 
 5912         2C 
 5913            00 00 	        .align  2
 5914              	BEGINC:
 5915 001c90  00 00 04 	        goto    IHERE
 5915         00 00 00 
 5916              	
 5917              	; again,    adrs --      uncond'l backward branch
 5918              	;   unconditional backward branch
 5919 001c94  00 48 00 	        .pword  paddr(BEGINC_L)+PFLASH
 5920              	AGAINC_L:
 5921 001c96  86       	        .byte   NFA|6
 5922            61 00 	        .ascii  "again,"
 5922 001c98  67 61 00 
 5922         69 6E 00 
 5922         2C 
 5923            00 00 	        .align  2
 5924              	AGAINC:
 5925 001c9e  00 00 07 	        rcall   IHERE
 5926 001ca0  00 00 07 	        rcall   MINUS
 5927 001ca2  1E 8F E9 	        dec2    [W14], [W14]
 5928 001ca4  00 00 07 	        rcall   UNC
 5929 001ca6  00 00 07 	        rcall   SWOP
 5930 001ca8  00 00 04 	        goto    BRA_
 5930         00 00 00 
MPLAB ASM30 Listing:  ../src/ff-pic24-30-33.s 			page 134


 5931              	
 5932              	; until,    adrs cc --   Branch bakwards if cc
 5933 001cac  00 48 00 	        .pword  paddr(AGAINC_L)+PFLASH
 5934              	UNTILC_L:
 5935 001cae  86       	        .byte   NFA|6
 5936            75 00 	        .ascii  "until,"
 5936 001cb0  6E 74 00 
 5936         69 6C 00 
 5936         2C 
 5937            00 00 	        .align  2
 5938              	UNTILC:
 5939 001cb6  D9 06 A8 	        bset    iflags, #tailcall  ; Disable tailcall optimisation
 5940 001cb8  00 00 07 	        rcall   NOTC
 5941 001cba  00 00 07 	        rcall   SWOP
 5942 001cbc  00 00 07 	        rcall   IHERE
 5943 001cbe  00 00 07 	        rcall   MINUS
 5944 001cc0  1E 8F E9 	        dec2    [W14], [W14]
 5945 001cc2  00 00 04 	        goto    BRA_
 5945         00 00 00 
 5946              	
 5947              	;;; Forget the latest compiled one cell instruction
 5948 001cc6  81       	        .byte   NFA|1
 5949            20 00 	        .ascii  " "
 5950              	        .align  2
 5951              	IDPMINUS:
 5952              	        mlit    -2
 5952 001cc8  E0 FF 2F 	> mov #-2,w0
 5952 001cca  00 2F 78 	> mov w0,[++w14]
 5953 001ccc  00 00 04 	        goto     IALLOT
 5953         00 00 00 
 5954              	
 5955              	; IF       -- adrs   conditional forward branch
 5956              	; Leaves address of branch instruction 
 5957 001cd0  00 48 00 	        .pword  paddr(UNTILC_L)+PFLASH
 5958              	IF_L:
 5959 001cd2  D2       	        .byte   NFA|IMMED|COMPILE|2
 5960            69 00 	        .ascii  "if"
 5960 001cd4  66 
 5961            00 00 	        .align  2
 5962              	IF_:
 5963 001cd6  D8 86 AF 	        btsc    iflags, #izeroeq
 5964 001cd8  00 00 07 	        rcall   IDPMINUS
 5965 001cda  00 00 07 	        rcall   COMMAZEROSENSE
 5966 001cdc  00 00 07 	        rcall   ZC
 5967 001cde  D8 86 AE 	        btss    iflags, #izeroeq
 5968 001ce0  00 00 07 	        rcall   NOTC
 5969 001ce2  D8 86 A9 	        bclr    iflags, #izeroeq
 5970 001ce4  00 00 04 	        goto    IFC
 5970         00 00 00 
 5971              	
 5972              	; THEN     adrs  --        resolve forward branch
 5973 001ce8  00 48 00 	        .pword  paddr(IF_L)+PFLASH
 5974              	THEN_L:
 5975 001cea  D4       	        .byte   NFA|IMMED|COMPILE|4
 5976            74 00 	        .ascii  "then"
 5976 001cec  68 65 00 
 5976         6E 
MPLAB ASM30 Listing:  ../src/ff-pic24-30-33.s 			page 135


 5977            00 00 	        .align  2
 5978              	THEN_:
 5979 001cf0  00 00 04 	        goto    THENC
 5979         00 00 00 
 5980              	
 5981              	; ELSE     adrs1 -- adrs2    branch for IF..ELSE
 5982              	; Leave adrs2 of bra instruction and store bz in adrs1
 5983              	; Leave adress of branch instruction and FALSE flag on stack
 5984 001cf4  00 48 00 	        .pword  paddr(THEN_L)+PFLASH
 5985              	ELSE_L:
 5986 001cf6  D4       	        .byte   NFA|IMMED|COMPILE|4
 5987            65 00 	        .ascii  "else"
 5987 001cf8  6C 73 00 
 5987         65 
 5988            00 00 	        .align  2
 5989              	ELSE_:
 5990 001cfc  00 00 04 	        goto    ELSEC
 5990         00 00 00 
 5991              	
 5992              	; BEGIN    -- adrs        target for bwd. branch
 5993 001d00  00 48 00 	        .pword  paddr(ELSE_L)+PFLASH
 5994              	BEGIN_L:
 5995 001d02  D5       	        .byte   NFA|IMMED|COMPILE|5
 5996            62 00 	        .ascii  "begin"
 5996 001d04  65 67 00 
 5996         69 6E 00 
 5997              	        .align  2
 5998              	BEGIN:
 5999 001d08  00 00 04 	        goto   IHERE
 5999         00 00 00 
 6000              	
 6001              	; UNTIL    adrs --   Branch bakwards if true
 6002 001d0c  00 48 00 	        .pword  paddr(BEGIN_L)+PFLASH
 6003              	UNTIL_L:
 6004 001d0e  D5       	        .byte   NFA|IMMED|COMPILE|5
 6005            75 00 	        .ascii  "until"
 6005 001d10  6E 74 00 
 6005         69 6C 00 
 6006              	        .align  2
 6007              	UNTIL:
 6008 001d14  D8 86 AF 	        btsc    iflags, #izeroeq
 6009 001d16  00 00 07 	        rcall   IDPMINUS
 6010 001d18  00 00 07 	        rcall   COMMAZEROSENSE
 6011 001d1a  00 00 07 	        rcall   ZC
 6012 001d1c  D8 86 AE 	        btss    iflags, #izeroeq
 6013 001d1e  00 00 07 	        rcall   NOTC
 6014 001d20  D8 86 A9 	        bclr    iflags, #izeroeq
 6015 001d22  00 00 04 	        goto    UNTILC
 6015         00 00 00 
 6016              	
 6017              	; AGAIN    adrs --      uncond'l backward branch
 6018              	;   unconditional backward branch
 6019 001d26  00 48 00 	        .pword  paddr(UNTIL_L)+PFLASH
 6020              	AGAIN_L:
 6021 001d28  D5       	        .byte   NFA|IMMED|COMPILE|5
 6022            61 00 	        .ascii  "again"
 6022 001d2a  67 61 00 
MPLAB ASM30 Listing:  ../src/ff-pic24-30-33.s 			page 136


 6022         69 6E 00 
 6023              	        .align  2
 6024              	AGAIN:
 6025 001d2e  00 00 04 	        goto    AGAINC
 6025         00 00 00 
 6026              	
 6027              	; WHILE    addr1 -- addr2 addr1         branch for WHILE loop
 6028              	; addr1 : address of BEGIN
 6029              	; addr2 : address where to store bz instruction
 6030 001d32  00 48 00 	        .pword  paddr(AGAIN_L)+PFLASH
 6031              	WHILE_L:
 6032 001d34  D5       	        .byte   NFA|IMMED|COMPILE|5
 6033            77 00 	        .ascii  "while"
 6033 001d36  68 69 00 
 6033         6C 65 00 
 6034              	        .align  2
 6035              	WHILE_:
 6036 001d3a  00 00 07 	        rcall   IF_
 6037 001d3c  00 00 04 	        goto    SWOP
 6037         00 00 00 
 6038              	
 6039              	; REPEAT   addr2 addr1 --     resolve WHILE loop
 6040 001d40  00 48 00 	        .pword  paddr(WHILE_L)+PFLASH
 6041              	REPEAT_L:
 6042 001d42  D6       	        .byte   NFA|IMMED|COMPILE|6
 6043            72 00 	        .ascii  "repeat"
 6043 001d44  65 70 00 
 6043         65 61 00 
 6043         74 
 6044            00 00 	        .align  2
 6045              	REPEAT_:
 6046 001d4a  00 00 07 	        rcall   AGAIN
 6047 001d4c  00 00 04 	        goto    THEN_
 6047         00 00 00 
 6048              	
 6049              	; FOR   -- bc-addr bra-addr
 6050 001d50  00 48 00 	        .pword  paddr(REPEAT_L)+PFLASH
 6051              	FOR_L:
 6052 001d52  D3       	        .byte   NFA|IMMED|COMPILE|3
 6053            66 00 	        .ascii  "for"
 6053 001d54  6F 72 00 
 6054              	        .align  2
 6055              	FOR:
 6056              	        mlit    handle(TOR)+PFLASH
 6056 001d56  00 80 24 	> mov #handle(TOR)+PFLASH,w0
 6056 001d58  00 2F 78 	> mov w0,[++w14]
 6057 001d5a  00 00 07 	        rcall   INLINE_0
 6058 001d5c  00 00 07 	        rcall   IHERE
 6059 001d5e  00 00 07 	        rcall   UNC
 6060 001d60  00 00 07 	        rcall   FALSE_
 6061 001d62  00 00 07 	        rcall   BRA_
 6062 001d64  00 00 07 	        rcall   IHERE
 6063 001d66  00 00 04 	        goto    SWOP
 6063         00 00 00 
 6064              	
 6065              	; NEXT bc-addr bra-addr --
 6066              	
MPLAB ASM30 Listing:  ../src/ff-pic24-30-33.s 			page 137


 6067 001d6a  00 48 00 	        .pword  paddr(FOR_L)+PFLASH
 6068              	NEXT_L:
 6069 001d6c  D4       	        .byte   NFA|IMMED|COMPILE|4
 6070            6E 00 	        .ascii  "next"
 6070 001d6e  65 78 00 
 6070         74 
 6071            00 00 	        .align  2
 6072              	NEXT:
 6073 001d72  00 00 07 	        rcall   THENC
 6074              	        mlit    handle(XNEXT)+PFLASH
 6074 001d74  00 80 24 	> mov #handle(XNEXT)+PFLASH,w0
 6074 001d76  00 2F 78 	> mov w0,[++w14]
 6075 001d78  00 00 07 	        rcall   INLINE_0
 6076 001d7a  00 00 07 	        rcall   NC
 6077 001d7c  00 00 07 	        rcall   UNTILC
 6078              	        mlit    handle(RDROP)+PFLASH
 6078 001d7e  00 80 24 	> mov #handle(RDROP)+PFLASH,w0
 6078 001d80  00 2F 78 	> mov w0,[++w14]
 6079 001d82  00 00 04 	        goto    INLINE_0  
 6079         00 00 00 
 6080              	
 6081              	; (next) decrement top of return stack
 6082              	; Works only if inlined.
 6083              	XNEXT:  
 6084 001d86  CF 1F E9 	        dec     [--W15], [W15++] ; XNEXT
 6085 001d88  00 00 06 	        return
 6086              	
 6087              	; leave clear top of return stack
 6088 001d8a  00 48 00 	        .pword  paddr(NEXT_L)+PFLASH
 6089              	LEAVE_L:
 6090 001d8c  B5       	        .byte   NFA|INLINE|COMPILE|5
 6091            65 00 	        .ascii  "endit"
 6091 001d8e  6E 64 00 
 6091         69 74 00 
 6092              	        .align  2
 6093              	LEAVE:
 6094 001d92  4F 00 78 	        pop     W0  
 6095 001d94  80 1F EB 	        clr     [W15++]
 6096 001d96  00 00 06 	        return
 6097              	
 6098              	; unnext compile a pop
 6099 001d98  00 48 00 	        .pword  paddr(LEAVE_L)+PFLASH
 6100              	RDROP_L:
 6101 001d9a  B5       	        .byte   NFA|INLINE|COMPILE|5
 6102            72 00 	        .ascii  "rdrop"
 6102 001d9c  64 72 00 
 6102         6F 70 00 
 6103              	        .align  2
 6104              	RDROP:
 6105 001da0  4F 00 78 	        pop     W0
 6106 001da2  00 00 06 	        return
 6107              	
 6108              	; leave clear top of return stack
 6109              	
 6110              	; BL      -- char                 an ASCII space
 6111 001da4  00 48 00 	        .pword  paddr(RDROP_L)+PFLASH
 6112              	BL_L:
MPLAB ASM30 Listing:  ../src/ff-pic24-30-33.s 			page 138


 6113 001da6  A2       	        .byte   NFA|INLINE|2
 6114            62 00 	        .ascii  "bl"
 6114 001da8  6C 
 6115            00 00 	        .align  2
 6116              	BL:
 6117              	        mlit    0x20
 6117 001daa  00 02 20 	> mov #0x20,w0
 6117 001dac  00 2F 78 	> mov w0,[++w14]
 6118 001dae  00 00 06 	        return
 6119              	
 6120              	; STATE   -- a-addr             holds compiler state
 6121              	; In RAM
 6122 001db0  00 48 00 	        .pword  paddr(BL_L)+PFLASH
 6123              	STATE_L:
 6124 001db2  85       	        .byte   NFA|5
 6125            73 00 	        .ascii  "state"
 6125 001db4  74 61 00 
 6125         74 65 00 
 6126              	        .align  2
 6127              	STATE:
 6128 001db8  00 00 80 	        mov     state, W0
 6129 001dba  00 2F 78 	        mov     W0, [++W14]
 6130 001dbc  00 00 06 	        return
 6131              	
 6132              	; RHERE      -- a-addr          For variables in ram
 6133              	; In RAM
 6134 001dbe  00 48 00 	        .pword  paddr(STATE_L)+PFLASH
 6135              	RHERE_L:
 6136 001dc0  85       	        .byte   NFA|5
 6137            72 00 	        .ascii  "rhere"
 6137 001dc2  68 65 00 
 6137         72 65 00 
 6138              	        .align  2
 6139              	RHERE:
 6140              	        mlit    dpRAM
 6140 001dc6  00 00 20 	> mov #dpRAM,w0
 6140 001dc8  00 2F 78 	> mov w0,[++w14]
 6141 001dca  00 00 04 	        goto    FETCH
 6141         00 00 00 
 6142              	
 6143              	; LATEST    -- a-addr           For variables in ram
 6144              	; In EEPROM
 6145 001dce  00 48 00 	        .pword  paddr(RHERE_L)+PFLASH
 6146              	LATEST_L:
 6147 001dd0  86       	        .byte   NFA|6
 6148            6C 00 	        .ascii  "latest"
 6148 001dd2  61 74 00 
 6148         65 73 00 
 6148         74 
 6149            00 00 	        .align  2
 6150              	LATEST:
 6151 001dd8  00 00 07 	        rcall   DOCREATE
 6152 001dda  00 00 00 	        .word   dpLATEST
 6153              	
 6154              	; S0       -- a-addr      start of parameter stack
 6155 001ddc  00 48 00 	        .pword  paddr(LATEST_L)+PFLASH
 6156              	S0_L:
MPLAB ASM30 Listing:  ../src/ff-pic24-30-33.s 			page 139


 6157 001dde  82       	        .byte   NFA|2
 6158            73 00 	        .ascii  "s0"
 6158 001de0  30 
 6159            00 00 	        .align  2
 6160              	S0:
 6161 001de2  00 00 07 	        rcall   DOUSER
 6162 001de4  E0 FF 00 	        .word   us0
 6163              	
 6164              	; R0       -- a-addr      start of return stack
 6165 001de6  00 48 00 	        .pword  paddr(S0_L)+PFLASH
 6166              	R0_L:
 6167 001de8  82       	        .byte   NFA|2
 6168            72 00 	        .ascii  "r0"
 6168 001dea  30 
 6169            00 00 	        .align  2
 6170              	R0:
 6171 001dec  00 00 07 	        rcall   DOUSER
 6172 001dee  E2 FF 00 	        .word   ur0
 6173              	
 6174              	; ticks  -- u      system ticks (0-ffff) in milliseconds
 6175 001df0  00 48 00 	        .pword  paddr(R0_L)+PFLASH
 6176              	TICKS_L:
 6177 001df2  A5       	        .byte   NFA|INLINE|5
 6178            74 00 	        .ascii  "ticks"
 6178 001df4  69 63 00 
 6178         6B 73 00 
 6179              	        .align  2
 6180              	TICKS:
 6181 001df8  00 00 80 	        mov     ms_count, W0
 6182 001dfa  00 2F 78 	        mov     W0, [++w14]
 6183 001dfc  00 00 06 	        return
 6184              	
 6185              	; ms  +n --      Pause for n millisconds
 6186              	; : ms ( +n -- )     
 6187              	;   ticks -
 6188              	;   begin
 6189              	;     pause dup ticks - 0<
 6190              	;   until drop ;
 6191              	;
 6192 001dfe  00 48 00 	        .pword  paddr(TICKS_L)+PFLASH
 6193              	MS_L:
 6194 001e00  82       	        .byte   NFA|2
 6195            6D 00 	        .ascii  "ms"
 6195 001e02  73 
 6196            00 00 	        .align  2
 6197              	MS:
 6198 001e04  00 00 07 	        rcall   TICKS
 6199 001e06  00 00 07 	        rcall   PLUS
 6200              	MS1:    
 6201 001e08  00 00 07 	        rcall   PAUSE
 6202 001e0a  9E 00 78 	        mov     [W14], W1
 6203 001e0c  00 00 80 	        mov     ms_count, W0
 6204 001e0e  00 80 50 	        sub     W1, W0, W0         ; time - ticks
 6205 001e10  00 00 3B 	        bra     nn, MS1
 6206 001e12  62 07 57 	        sub     W14, #2, W14
 6207 001e14  00 00 06 	        return
 6208              	
MPLAB ASM30 Listing:  ../src/ff-pic24-30-33.s 			page 140


 6209              	 ; WORDS    --          list all words in dict.
 6210 001e16  00 48 00 	        .pword  paddr(MS_L)+PFLASH
 6211              	WORDS_L:
 6212 001e18  85       	        .byte   NFA|5
 6213            77 00 	        .ascii  "words"
 6213 001e1a  6F 72 00 
 6213         64 73 00 
 6214              	        .align  2
 6215              	WORDS:
 6216 001e1e  00 00 07 	        rcall   FALSE_
 6217 001e20  00 00 07 	        rcall   CR
 6218              	        mlit    handle(kernellink)+PFLASH
 6218 001e22  00 80 24 	> mov #handle(kernellink)+PFLASH,w0
 6218 001e24  00 2F 78 	> mov w0,[++w14]
 6219 001e26  00 00 07 	        rcall   WDS1
 6220 001e28  00 00 07 	        rcall   FALSE_
 6221 001e2a  00 00 07 	        rcall   CR
 6222 001e2c  00 00 07 	        rcall   LATEST
 6223 001e2e  00 00 07 	        rcall   FETCH
 6224 001e30  3E 0F 78 	WDS1:   mov     [W14++], [W14]      ; dup
 6225 001e32  00 00 07 	        rcall   DOTID
 6226 001e34  00 00 07 	        rcall   SWOP
 6227 001e36  1E 0F E8 	        inc     [W14], [W14]
 6228 001e38  3E 0F 78 	        mov     [W14++], [W14]      ; dup
 6229              	        mlit    7
 6229 001e3a  70 00 20 	> mov #7,w0
 6229 001e3c  00 2F 78 	> mov w0,[++w14]
 6230 001e3e  00 00 07 	        rcall   AND
 6231 001e40  2E 00 E0 	        cp0     [W14--]
 6232 001e42  00 00 32 	        bra     z, WDS2
 6233              	        mlit    9
 6233 001e44  90 00 20 	> mov #9,w0
 6233 001e46  00 2F 78 	> mov w0,[++w14]
 6234 001e48  00 00 07 	        rcall   EMIT
 6235 001e4a  00 00 37 	        bra     WDS3
 6236              	WDS2:   
 6237 001e4c  00 00 07 	        rcall   CR
 6238              	WDS3:
 6239 001e4e  00 00 07 	        rcall   SWOP
 6240              	
 6241 001e50  00 00 07 	        rcall   TWOMINUS
 6242 001e52  00 00 07 	        rcall   FETCH
 6243 001e54  1E 00 A1 	        bclr    [W14], #0           ; Compensate for bug in ASM30 site
 6244 001e56  1E 00 E0 	        cp0     [W14]
 6245 001e58  00 00 3A 	        bra     nz, WDS1
 6246 001e5a  64 07 57 	        sub     W14, #4, W14        ; 2drop
 6247 001e5c  00 00 06 	        return
 6248              	
 6249              	; .S      --           print stack contents
 6250              	; : .s sp@ s0 @ 2+ begin 2dup < 0= while @+ u. repeat 2drop ;
 6251 001e5e  00 48 00 	        .pword  paddr(WORDS_L)+PFLASH
 6252              	DOTS_L:
 6253 001e60  82       	        .byte   NFA|2
 6254            2E 00 	        .ascii  ".s"
 6254 001e62  73 
 6255            00 00 	        .align  2
 6256              	DOTS:
MPLAB ASM30 Listing:  ../src/ff-pic24-30-33.s 			page 141


 6257 001e64  00 00 07 	        rcall   SPFETCH
 6258 001e66  00 00 07 	        rcall   S0
 6259 001e68  00 00 07 	        rcall   FETCH
 6260 001e6a  1E 8F E8 	        inc2    [W14], [W14]
 6261              	DOTS1:
 6262 001e6c  00 00 07 	        rcall   TWODUP
 6263 001e6e  00 00 07 	        rcall   LESS
 6264 001e70  2E 00 E0 	        cp0     [W14--]
 6265 001e72  00 00 3A 	        bra     nz, DOTS2
 6266 001e74  00 00 07 	        rcall   FETCHPP
 6267 001e76  00 00 07 	        rcall   UDOT
 6268 001e78  00 00 37 	        bra     DOTS1
 6269              	DOTS2:  
 6270 001e7a  64 07 57 	        sub     W14, #4, W14        ; 2drop
 6271 001e7c  00 00 06 	        return
 6272              	
 6273              	; IALLOT   n --    allocate n bytes in ROM
 6274              	;        .pword  paddr(DOTS_L)+PFLASH
 6275              	;IALLOT_L:
 6276 001e7e  86       	        .byte   NFA|6
 6277            69 00 	        .ascii  "iallot"
 6277 001e80  61 6C 00 
 6277         6C 6F 00 
 6277         74 
 6278            00 00 	        .align  2
 6279              	IALLOT:
 6280 001e86  00 00 07 	        rcall   IDP
 6281 001e88  00 00 04 	        goto    PLUSSTORE
 6281         00 00 00 
 6282              	
 6283              	; ALLOT   n --    allocate n bytes in current data section
 6284 001e8c  00 48 00 	        .pword  paddr(DOTS_L)+PFLASH
 6285              	ALLOT_L:
 6286 001e8e  85       	        .byte   NFA|5
 6287            61 00 	        .ascii  "allot"
 6287 001e90  6C 6C 00 
 6287         6F 74 00 
 6288              	        .align  2
 6289              	ALLOT:
 6290 001e94  00 00 07 	        rcall   DP
 6291 001e96  00 00 04 	        goto    PLUSSTORE
 6291         00 00 00 
 6292              	
 6293              	;   DUMP  ADDR U --       DISPLAY MEMORY
 6294 001e9a  00 48 00 	        .pword  paddr(ALLOT_L)+PFLASH
 6295              	DUMP_L:
 6296 001e9c  84       	        .byte   NFA|4
 6297            64 00 	        .ascii  "dump"
 6297 001e9e  75 6D 00 
 6297         70 
 6298            00 00 	        .align  2
 6299              	DUMP:
 6300              	        mlit    0x10
 6300 001ea2  00 01 20 	> mov #0x10,w0
 6300 001ea4  00 2F 78 	> mov w0,[++w14]
 6301 001ea6  00 00 07 	        rcall   USLASH
 6302 001ea8  AE 1F 78 	        push    [W14--]
MPLAB ASM30 Listing:  ../src/ff-pic24-30-33.s 			page 142


 6303 001eaa  00 00 37 	        bra     DUMP7
 6304              	DUMP1:  
 6305 001eac  00 00 07 	        rcall   CR
 6306 001eae  3E 0F 78 	        mov     [W14++], [W14]      ; dup
 6307              	        mlit    4
 6307 001eb0  40 00 20 	> mov #4,w0
 6307 001eb2  00 2F 78 	> mov w0,[++w14]
 6308 001eb4  00 00 07 	        rcall   UDOTR
 6309              	        mlit    0x3a
 6309 001eb6  A0 03 20 	> mov #0x3a,w0
 6309 001eb8  00 2F 78 	> mov w0,[++w14]
 6310 001eba  00 00 07 	        rcall   EMIT
 6311              	        mlit    0x10
 6311 001ebc  00 01 20 	> mov #0x10,w0
 6311 001ebe  00 2F 78 	> mov w0,[++w14]
 6312 001ec0  AE 1F 78 	        push    [W14--]
 6313              	DUMP2:
 6314 001ec2  00 00 07 	        rcall   CFETCHPP
 6315 001ec4  00 00 07 	        rcall   CELL
 6316 001ec6  00 00 07 	        rcall   UDOTR
 6317 001ec8  CF 1F E9 	        dec     [--W15], [W15++] ; XNEXT
 6318 001eca  00 00 3A 	        bra     nz, DUMP2
 6319 001ecc  4F 00 78 	        pop     W0
 6320              	
 6321              	        mlit    0x10
 6321 001ece  00 01 20 	> mov #0x10,w0
 6321 001ed0  00 2F 78 	> mov w0,[++w14]
 6322 001ed2  00 00 07 	        rcall   MINUS
 6323              	        mlit    0x10
 6323 001ed4  00 01 20 	> mov #0x10,w0
 6323 001ed6  00 2F 78 	> mov w0,[++w14]
 6324 001ed8  AE 1F 78 	        push    [W14--]
 6325              	DUMP4:  
 6326 001eda  00 00 07 	        rcall   CFETCHPP
 6327 001edc  00 00 07 	        rcall   TO_PR
 6328 001ede  00 00 07 	        rcall   EMIT
 6329 001ee0  CF 1F E9 	        dec     [--W15], [W15++] ; XNEXT
 6330 001ee2  00 00 3A 	        bra     nz, DUMP4
 6331 001ee4  4F 00 78 	        pop     W0
 6332              	DUMP7:
 6333 001ee6  CF 1F E9 	        dec     [--W15], [W15++] ; XNEXT
 6334 001ee8  00 00 31 	        bra     c, DUMP1
 6335 001eea  4F 00 78 	        pop     W0
 6336 001eec  62 07 57 	        sub     W14, #2, W14
 6337 001eee  00 00 06 	        return
 6338              	
 6339              	;***************************************************************
 6340              	; Fcy   ( -- ) The CPU clock ( Fcy in PIC datasheet ) 
 6341 001ef0  00 48 00 	        .pword   paddr(DUMP_L)+PFLASH
 6342              	CPU_CLK_L:
 6343 001ef2  A3       	        .byte   NFA|INLINE|3
 6344            46 00 	        .ascii  "Fcy"
 6344 001ef4  63 79 00 
 6345              	        .align  2
 6346              	FCY_:
 6347 001ef6  D0 AB 29 	        mov     #(FCY/1000), W0
 6348 001ef8  00 2F 78 	        mov     W0, [++W14]
MPLAB ASM30 Listing:  ../src/ff-pic24-30-33.s 			page 143


 6349 001efa  00 00 06 	        return
 6350 001efc  00 48 00 	        .pword  paddr(CPU_CLK_L)+PFLASH
 6351              	
 6352              	; C functions include file
 6353              	.if C_EXAMPLE == 1
 6354              	.include "Cfloats.s"
   1              	; float add
   2              	CFADD_L:
   3 001efe  82       	        .byte   NFA|2
   4            66 00 	        .ascii  "f+"
   4 001f00  2B 
   5            00 00 	        .align  2
   6              	CFADD_:
   7 001f02  AE 01 78 	        mov     [W14--], W3
   8 001f04  2E 01 78 	        mov     [W14--], W2
   9 001f06  AE 00 78 	        mov     [W14--], W1
  10 001f08  1E 00 78 	        mov     [W14], W0
  11              	        .extern Cfadd
  12 001f0a  00 00 02 	        call    _Cfadd
  12         00 00 00 
  13 001f0e  00 1F 78 	        mov     W0, [W14++]
  14 001f10  01 0F 78 	        mov     W1, [W14]
  15 001f12  00 00 06 	        return
  16              	
  17 001f14  00 48 00 	        .pword  paddr(CFADD_L)+PFLASH
  18              	
  19              	; float sub
  20              	CFSUB_L:
  21 001f16  82       	        .byte   NFA|2
  22            66 00 	        .ascii  "f-"
  22 001f18  2D 
  23            00 00 	        .align  2
  24              	CFSUB_:
  25 001f1a  AE 01 78 	        mov     [W14--], W3
  26 001f1c  2E 01 78 	        mov     [W14--], W2
  27 001f1e  AE 00 78 	        mov     [W14--], W1
  28 001f20  1E 00 78 	        mov     [W14], W0
  29              	        .extern Cfsub
  30 001f22  00 00 02 	        call    _Cfsub
  30         00 00 00 
  31 001f26  00 1F 78 	        mov     W0, [W14++]
  32 001f28  01 0F 78 	        mov     W1, [W14]
  33 001f2a  00 00 06 	        return
  34              	
  35 001f2c  00 48 00 	        .pword  paddr(CFSUB_L)+PFLASH
  36              	
  37              	; float mul
  38              	CFMUL_L:
  39 001f2e  82       	        .byte   NFA|2
  40            66 00 	        .ascii  "f*"
  40 001f30  2A 
  41            00 00 	        .align  2
  42              	CFMUL_:
  43 001f32  AE 01 78 	        mov     [W14--], W3
  44 001f34  2E 01 78 	        mov     [W14--], W2
  45 001f36  AE 00 78 	        mov     [W14--], W1
  46 001f38  1E 00 78 	        mov     [W14], W0
MPLAB ASM30 Listing:  ../src/ff-pic24-30-33.s 			page 144


  47              	        .extern Cfmul
  48 001f3a  00 00 02 	        call    _Cfmul
  48         00 00 00 
  49 001f3e  00 1F 78 	        mov     W0, [W14++]
  50 001f40  01 0F 78 	        mov     W1, [W14]
  51 001f42  00 00 06 	        return
  52              	
  53 001f44  00 48 00 	        .pword  paddr(CFMUL_L)+PFLASH
  54              	
  55              	; float div
  56              	CFDIV_L:
  57 001f46  82       	        .byte   NFA|2
  58            66 00 	        .ascii  "f/"
  58 001f48  2F 
  59            00 00 	        .align  2
  60              	CFDIV_:
  61 001f4a  AE 01 78 	        mov     [W14--], W3
  62 001f4c  2E 01 78 	        mov     [W14--], W2
  63 001f4e  AE 00 78 	        mov     [W14--], W1
  64 001f50  1E 00 78 	        mov     [W14], W0
  65              	        .extern Cfdiv
  66 001f52  00 00 02 	        call    _Cfdiv
  66         00 00 00 
  67 001f56  00 1F 78 	        mov     W0, [W14++]
  68 001f58  01 0F 78 	        mov     W1, [W14]
  69 001f5a  00 00 06 	        return
  70              	
  71 001f5c  00 48 00 	        .pword  paddr(CFDIV_L)+PFLASH
  72              			
  73              	; float pow
  74              	CFPOW_L:
  75 001f5e  84       	        .byte   NFA|4
  76            66 00 	        .ascii  "fpow"
  76 001f60  70 6F 00 
  76         77 
  77            00 00 	        .align  2
  78              	CFPOW_:
  79 001f64  AE 01 78 	        mov     [W14--], W3
  80 001f66  2E 01 78 	        mov     [W14--], W2
  81 001f68  AE 00 78 	        mov     [W14--], W1
  82 001f6a  1E 00 78 	        mov     [W14], W0
  83              	        .extern Cfpow
  84 001f6c  00 00 02 	        call    _Cfpow
  84         00 00 00 
  85 001f70  00 1F 78 	        mov     W0, [W14++]
  86 001f72  01 0F 78 	        mov     W1, [W14]
  87 001f74  00 00 06 	        return
  88              	
  89 001f76  00 48 00 	        .pword  paddr(CFPOW_L)+PFLASH		
  90              	
  91              	; float sin
  92              	CFSIN_L:
  93 001f78  84       	        .byte   NFA|4
  94            66 00 	        .ascii  "fsin"
  94 001f7a  73 69 00 
  94         6E 
  95            00 00 	        .align  2
MPLAB ASM30 Listing:  ../src/ff-pic24-30-33.s 			page 145


  96              	CFSIN_:
  97 001f7e  AE 00 78 	        mov     [W14--], W1
  98 001f80  1E 00 78 	        mov     [W14], W0
  99              	        .extern Cfsin
 100 001f82  00 00 02 	        call    _Cfsin
 100         00 00 00 
 101 001f86  00 1F 78 	        mov     W0, [W14++]
 102 001f88  01 0F 78 	        mov     W1, [W14]
 103 001f8a  00 00 06 	        return
 104              	
 105 001f8c  00 48 00 	        .pword  paddr(CFSIN_L)+PFLASH
 106              	
 107              	; float cos
 108              	CFCOS_L:
 109 001f8e  84       	        .byte   NFA|4
 110            66 00 	        .ascii  "fcos"
 110 001f90  63 6F 00 
 110         73 
 111            00 00 	        .align  2
 112              	CFCOS_:
 113 001f94  AE 00 78 	        mov     [W14--], W1
 114 001f96  1E 00 78 	        mov     [W14], W0
 115              	        .extern Cfcos
 116 001f98  00 00 02 	        call    _Cfcos
 116         00 00 00 
 117 001f9c  00 1F 78 	        mov     W0, [W14++]
 118 001f9e  01 0F 78 	        mov     W1, [W14]
 119 001fa0  00 00 06 	        return
 120              	
 121 001fa2  00 48 00 	        .pword  paddr(CFCOS_L)+PFLASH
 122              	
 123              	; float tan
 124              	CFTAN_L:
 125 001fa4  84       	        .byte   NFA|4
 126            66 00 	        .ascii  "ftan"
 126 001fa6  74 61 00 
 126         6E 
 127            00 00 	        .align  2
 128              	CFTAN_:
 129 001faa  AE 00 78 	        mov     [W14--], W1
 130 001fac  1E 00 78 	        mov     [W14], W0
 131              	        .extern Cftan
 132 001fae  00 00 02 	        call    _Cftan
 132         00 00 00 
 133 001fb2  00 1F 78 	        mov     W0, [W14++]
 134 001fb4  01 0F 78 	        mov     W1, [W14]
 135 001fb6  00 00 06 	        return
 136              	
 137 001fb8  00 48 00 	        .pword  paddr(CFTAN_L)+PFLASH
 138              			
 139              	; float sqrt
 140              	CFSQRT_L:
 141 001fba  85       	        .byte   NFA|5
 142            66 00 	        .ascii  "fsqrt"
 142 001fbc  73 71 00 
 142         72 74 00 
 143              	        .align  2
MPLAB ASM30 Listing:  ../src/ff-pic24-30-33.s 			page 146


 144              	CFSQRT_:
 145 001fc0  AE 00 78 	        mov     [W14--], W1
 146 001fc2  1E 00 78 	        mov     [W14], W0
 147              	        .extern Cfsqrt
 148 001fc4  00 00 02 	        call    _Cfsqrt
 148         00 00 00 
 149 001fc8  00 1F 78 	        mov     W0, [W14++]
 150 001fca  01 0F 78 	        mov     W1, [W14]
 151 001fcc  00 00 06 	        return
 152              	
 153 001fce  00 48 00 	        .pword  paddr(CFSQRT_L)+PFLASH	
 154              	
 155              	; float exp
 156              	CFEXP_L:
 157 001fd0  84       	        .byte   NFA|4
 158            66 00 	        .ascii  "fexp"
 158 001fd2  65 78 00 
 158         70 
 159            00 00 	        .align  2
 160              	CFEXP_:
 161 001fd6  AE 00 78 	        mov     [W14--], W1
 162 001fd8  1E 00 78 	        mov     [W14], W0
 163              	        .extern Cfexp
 164 001fda  00 00 02 	        call    _Cfexp
 164         00 00 00 
 165 001fde  00 1F 78 	        mov     W0, [W14++]
 166 001fe0  01 0F 78 	        mov     W1, [W14]
 167 001fe2  00 00 06 	        return
 168              	
 169 001fe4  00 48 00 	        .pword  paddr(CFEXP_L)+PFLASH	
 170              			
 171              	; float log
 172              	CFLOG_L:
 173 001fe6  84       	        .byte   NFA|4
 174            66 00 	        .ascii  "flog"
 174 001fe8  6C 6F 00 
 174         67 
 175            00 00 	        .align  2
 176              	CFLOG_:
 177 001fec  AE 00 78 	        mov     [W14--], W1
 178 001fee  1E 00 78 	        mov     [W14], W0
 179              	        .extern Cflog
 180 001ff0  00 00 02 	        call    _Cflog
 180         00 00 00 
 181 001ff4  00 1F 78 	        mov     W0, [W14++]
 182 001ff6  01 0F 78 	        mov     W1, [W14]
 183 001ff8  00 00 06 	        return
 184              	
 185 001ffa  00 48 00 	        .pword  paddr(CFLOG_L)+PFLASH
 186              			
 187              	; float log10
 188              	CFLOG10_L:
 189 001ffc  86       	        .byte   NFA|6
 190            66 00 	        .ascii  "flog10"
 190 001ffe  6C 6F 00 
 190         67 31 00 
 190         30 
MPLAB ASM30 Listing:  ../src/ff-pic24-30-33.s 			page 147


 191            00 00 	        .align  2
 192              	CFLoG10_:
 193 002004  AE 00 78 	        mov     [W14--], W1
 194 002006  1E 00 78 	        mov     [W14], W0
 195              	        .extern Cflog10
 196 002008  00 00 02 	        call    _Cflog10
 196         00 00 00 
 197 00200c  00 1F 78 	        mov     W0, [W14++]
 198 00200e  01 0F 78 	        mov     W1, [W14]
 199 002010  00 00 06 	        return
 200              	
 201 002012  00 48 00 	        .pword  paddr(CFLOG10_L)+PFLASH	
 202              	
 203              	; float atan
 204              	CFATAN_L:
 205 002014  85       	        .byte   NFA|5
 206            66 00 	        .ascii  "fatan"
 206 002016  61 74 00 
 206         61 6E 00 
 207              	        .align  2
 208              	CFATAN_:
 209 00201a  AE 00 78 	        mov     [W14--], W1
 210 00201c  1E 00 78 	        mov     [W14], W0
 211              	        .extern Cfatan
 212 00201e  00 00 02 	        call    _Cfatan
 212         00 00 00 
 213 002022  00 1F 78 	        mov     W0, [W14++]
 214 002024  01 0F 78 	        mov     W1, [W14]
 215 002026  00 00 06 	        return
 216              	
 217 002028  00 48 00 	        .pword  paddr(CFATAN_L)+PFLASH	
 218              			
 219              	; float asin
 220              	CFASIN_L:
 221 00202a  85       	        .byte   NFA|5
 222            66 00 	        .ascii  "fasin"
 222 00202c  61 73 00 
 222         69 6E 00 
 223              	        .align  2
 224              	CFASIN_:
 225 002030  AE 00 78 	        mov     [W14--], W1
 226 002032  1E 00 78 	        mov     [W14], W0
 227              	        .extern Cfasin
 228 002034  00 00 02 	        call    _Cfasin
 228         00 00 00 
 229 002038  00 1F 78 	        mov     W0, [W14++]
 230 00203a  01 0F 78 	        mov     W1, [W14]
 231 00203c  00 00 06 	        return
 232              	
 233 00203e  00 48 00 	        .pword  paddr(CFASIN_L)+PFLASH
 234              	
 235              	; float acos
 236              	CFACOS_L:
 237 002040  85       	        .byte   NFA|5
 238            66 00 	        .ascii  "facos"
 238 002042  61 63 00 
 238         6F 73 00 
MPLAB ASM30 Listing:  ../src/ff-pic24-30-33.s 			page 148


 239              	        .align  2
 240              	CFACOS_:
 241 002046  AE 00 78 	        mov     [W14--], W1
 242 002048  1E 00 78 	        mov     [W14], W0
 243              	        .extern Cfacos
 244 00204a  00 00 02 	        call    _Cfacos
 244         00 00 00 
 245 00204e  00 1F 78 	        mov     W0, [W14++]
 246 002050  01 0F 78 	        mov     W1, [W14]
 247 002052  00 00 06 	        return
 248              	
 249 002054  00 48 00 	        .pword  paddr(CFACOS_L)+PFLASH		
 250              	
 6355              	.endif
 6356              	
 6357              	FALSE_L:
 6358 002056  A5       	        .byte   NFA|INLINE|5
 6359            66 00 	        .ascii  "false"
 6359 002058  61 6C 00 
 6359         73 65 00 
 6360              	        .align  2
 6361              	FALSE_:                     ; TOS is 0000 (FALSE)
 6362 00205c  00 2F EB 	        clr     [++W14]
 6363 00205e  00 00 06 	        return
 6364              	
 6365 002060  00 48 00 	        .pword  paddr(FALSE_L)+PFLASH
 6366              	TRUE_L:
 6367              	kernellink:
 6368 002062  A4       	        .byte   NFA|INLINE|4
 6369            74 00 	        .ascii  "true"
 6369 002064  72 75 00 
 6369         65 
 6370            00 00 	        .align  2
 6371              	TRUE_:                      ; TOS is ffff (TRUE)
 6372 002068  00 AF EB 	        setm    [++W14]
 6373 00206a  00 00 06 	        return
 6374              	
 6375              	;        .pword  paddr(TRUE_L)+PFLASH
 6376              	DOTBASE_L:
 6377              	;        .byte   NFA|2
 6378              	;        .ascii  "b?"
 6379              	        .align  2
 6380              	DOTBASE:
 6381 00206c  00 00 07 	        rcall   BASE
 6382 00206e  00 00 07 	        rcall   FETCH
 6383 002070  1E 00 78 	        mov     [W14], W0
 6384 002072  F0 00 50 	        sub     W0, #0x10, W1
 6385 002074  00 00 3A 	        bra     nz, DOTBASE1
 6386 002076  40 02 20 	        mov     #'$', W0
 6387 002078  00 00 37 	        bra     DOTBASEEND
 6388              	DOTBASE1:
 6389 00207a  EA 00 50 	        sub     W0, #0xa, W1
 6390 00207c  00 00 3A 	        bra     nz, DOTBASE2
 6391 00207e  30 02 20 	        mov     #'#', W0
 6392 002080  00 00 37 	        bra     DOTBASEEND
 6393              	DOTBASE2:
 6394 002082  E2 00 50 	        sub     W0, #0x2, W1
MPLAB ASM30 Listing:  ../src/ff-pic24-30-33.s 			page 149


 6395 002084  00 00 3A 	        bra     nz, DOTBASE3
 6396 002086  50 02 20 	        mov     #'%', W0
 6397 002088  00 00 37 	        bra     DOTBASEEND
 6398              	DOTBASE3:
 6399 00208a  F0 03 20 	        mov     #'?', W0
 6400              	DOTBASEEND:
 6401 00208c  00 0F 78 	        mov     W0, [W14]
 6402 00208e  00 00 06 	        return
 6403              	
 6404              	MEMQADDR_N:
 6405 002090  00 48 00 	        .word   handle(RAM_L)+PFLASH
 6406              	.ifdef  PEEPROM
 6407              	        .word   handle(EEPROM_L)+PFLASH
 6408              	.else
 6409 002092  00 00 00 	        .word   0
 6410              	.endif
 6411 002094  00 48 00 	        .word   handle(FLASH_L)+PFLASH
 6412              	
 6413              	; -- caddr count    current data space string
 6414              	;        .word   handle(DOTBASE_L)+PFLASH
 6415              	MEMQ_L:
 6416              	;        .byte   NFA|2
 6417              	;        .ascii  "m?"
 6418              	        .align  2
 6419              	MEMQ:
 6420 002096  00 00 07 	        rcall   CSE
 6421              	        mlit    handle(MEMQADDR_N)+PFLASH
 6421 002098  00 80 24 	> mov #handle(MEMQADDR_N)+PFLASH,w0
 6421 00209a  00 2F 78 	> mov w0,[++w14]
 6422 00209c  00 00 07 	        rcall   PLUS
 6423 00209e  00 00 07 	        rcall   FETCH
 6424 0020a0  00 00 07 	        rcall   CFETCHPP
 6425              	        mlit    NFL
 6425 0020a2  F0 00 20 	> mov #NFL,w0
 6425 0020a4  00 2F 78 	> mov w0,[++w14]
 6426 0020a6  00 00 04 	        goto    AND
 6426         00 00 00 
 6427              	
 6428 0020aa  00 00 00 	        .pword  0
 6429              	MARKER_L:
 6430              	lastword:
 6431 0020ac  86       	        .byte   NFA|6
 6432            6D 00 	        .ascii  "marker"
 6432 0020ae  61 72 00 
 6432         6B 65 00 
 6432         72 
 6433            00 00 	        .align  2
 6434              	MARKER:
 6435              	        mlit    dpSTART
 6435 0020b4  00 00 20 	> mov #dpSTART,w0
 6435 0020b6  00 2F 78 	> mov w0,[++w14]
 6436              	        mlit    dpSAVE
 6436 0020b8  00 00 20 	> mov #dpSAVE,w0
 6436 0020ba  00 2F 78 	> mov w0,[++w14]
 6437              	        mlit    MARKER_LENGTH
 6437 0020bc  40 00 20 	> mov #MARKER_LENGTH,w0
 6437 0020be  00 2F 78 	> mov w0,[++w14]
MPLAB ASM30 Listing:  ../src/ff-pic24-30-33.s 			page 150


 6438 0020c0  00 00 07 	        rcall   WMOVE
 6439 0020c2  00 00 07 	        rcall   FLASH
 6440 0020c4  00 00 07 	        rcall   CREATE
 6441              	        mlit    dpSAVE
 6441 0020c6  00 00 20 	> mov #dpSAVE,w0
 6441 0020c8  00 2F 78 	> mov w0,[++w14]
 6442 0020ca  00 00 07 	        rcall   HERE
 6443              	        mlit    MARKER_LENGTH
 6443 0020cc  40 00 20 	> mov #MARKER_LENGTH,w0
 6443 0020ce  00 2F 78 	> mov w0,[++w14]
 6444 0020d0  00 00 07 	        rcall   WMOVE
 6445              	        mlit    MARKER_LENGTH*2
 6445 0020d2  80 00 20 	> mov #MARKER_LENGTH*2,w0
 6445 0020d4  00 2F 78 	> mov w0,[++w14]
 6446 0020d6  00 00 07 	        rcall   ALLOT
 6447 0020d8  00 00 07 	        rcall   RAM
 6448 0020da  00 00 07 	        rcall   XDOES
 6449              	MARKER_DOES:
 6450 0020dc  00 00 07 	        rcall   DODOES
 6451              	        mlit    dpSTART
 6451 0020de  00 00 20 	> mov #dpSTART,w0
 6451 0020e0  00 2F 78 	> mov w0,[++w14]
 6452              	        mlit    MARKER_LENGTH
 6452 0020e2  40 00 20 	> mov #MARKER_LENGTH,w0
 6452 0020e4  00 2F 78 	> mov w0,[++w14]
 6453 0020e6  00 00 04 	        goto    WMOVE
 6453         00 00 00 
 6454              	
 6455 0020ea  00 00 00 	.palign IBUFSIZEL
 6455         00 00 00 
 6455         00 00 00 
 6455         00 00 00 
 6455         00 00 00 
 6455         00 00 00 
 6455         00 00 00 
 6455         00 00 00 
 6455         00 00 00 
 6456              	.ifndef PEEPROM
 6457              	CONFIG_DATA:
 6458              	;.pspace IBUFSIZEL*4
 6459              	KERNEL_END1:
 6460              	.equ KERNEL_END, KERNEL_END1 + IBUFSIZEL*4
 6461              	.else
 6462              	KERNEL_END:
 6463              	.endif
 6464              	.end
MPLAB ASM30 Listing:  ../src/ff-pic24-30-33.s 			page 151


DEFINED SYMBOLS
                            *ABS*:00000000 D:/MyCode/Forth/ff50/PIC24-30-33/src/Cfloats.s
                            *ABS*:00000000 D:/MyCode/Forth/ff50/PIC24-30-33/src/p33_config.inc
                            *ABS*:00000000 d:/programfiles/microchip/xc16/v1.11/support/dsPIC33F/inc/p33FJ128GP802.inc
                            *ABS*:00000000 d:/programfiles/microchip/xc16/v1.11/support/dsPIC33F/inc/p33Fxxxx.inc
                            *ABS*:00000000 D:/MyCode/Forth/ff50/PIC24-30-33/src/ff30.inc
                            *ABS*:00000000 D:/MyCode/Forth/ff50/PIC24-30-33/src/ff-pic24-30-33.s
                            *ABS*:00000001 __MPLAB_BUILD
                            *ABS*:00000001 __33FJ128GP802
                            *ABS*:00000001 __dsPIC33F
                            *ABS*:00000001 __HAS_DSP
                            *ABS*:00000001 __HAS_DMA
                            *ABS*:00000001 __HAS_CODEGUARD
                            *ABS*:00000001 __HAS_PMP
                            *ABS*:00000001 __C30ELF
d:\programfiles\microchip\xc16\v1.11\bin\..\support\dsPIC33F\inc/p33FJ128GP802.inc:1471   *ABS*:00000000 C
d:\programfiles\microchip\xc16\v1.11\bin\..\support\dsPIC33F\inc/p33FJ128GP802.inc:1472   *ABS*:00000001 Z
d:\programfiles\microchip\xc16\v1.11\bin\..\support\dsPIC33F\inc/p33FJ128GP802.inc:1473   *ABS*:00000002 OV
d:\programfiles\microchip\xc16\v1.11\bin\..\support\dsPIC33F\inc/p33FJ128GP802.inc:1474   *ABS*:00000003 N
d:\programfiles\microchip\xc16\v1.11\bin\..\support\dsPIC33F\inc/p33FJ128GP802.inc:1475   *ABS*:00000004 RA
d:\programfiles\microchip\xc16\v1.11\bin\..\support\dsPIC33F\inc/p33FJ128GP802.inc:1476   *ABS*:00000008 DC
d:\programfiles\microchip\xc16\v1.11\bin\..\support\dsPIC33F\inc/p33FJ128GP802.inc:1477   *ABS*:00000009 DA
d:\programfiles\microchip\xc16\v1.11\bin\..\support\dsPIC33F\inc/p33FJ128GP802.inc:1478   *ABS*:0000000a SAB
d:\programfiles\microchip\xc16\v1.11\bin\..\support\dsPIC33F\inc/p33FJ128GP802.inc:1479   *ABS*:0000000b OAB
d:\programfiles\microchip\xc16\v1.11\bin\..\support\dsPIC33F\inc/p33FJ128GP802.inc:1480   *ABS*:0000000c SB
d:\programfiles\microchip\xc16\v1.11\bin\..\support\dsPIC33F\inc/p33FJ128GP802.inc:1481   *ABS*:0000000d SA
d:\programfiles\microchip\xc16\v1.11\bin\..\support\dsPIC33F\inc/p33FJ128GP802.inc:1482   *ABS*:0000000e OB
d:\programfiles\microchip\xc16\v1.11\bin\..\support\dsPIC33F\inc/p33FJ128GP802.inc:1483   *ABS*:0000000f OA
d:\programfiles\microchip\xc16\v1.11\bin\..\support\dsPIC33F\inc/p33FJ128GP802.inc:1485   *ABS*:00000005 IPL0
d:\programfiles\microchip\xc16\v1.11\bin\..\support\dsPIC33F\inc/p33FJ128GP802.inc:1486   *ABS*:00000006 IPL1
d:\programfiles\microchip\xc16\v1.11\bin\..\support\dsPIC33F\inc/p33FJ128GP802.inc:1487   *ABS*:00000007 IPL2
d:\programfiles\microchip\xc16\v1.11\bin\..\support\dsPIC33F\inc/p33FJ128GP802.inc:1491   *ABS*:00000000 IF
d:\programfiles\microchip\xc16\v1.11\bin\..\support\dsPIC33F\inc/p33FJ128GP802.inc:1492   *ABS*:00000001 RND
d:\programfiles\microchip\xc16\v1.11\bin\..\support\dsPIC33F\inc/p33FJ128GP802.inc:1493   *ABS*:00000002 PSV
d:\programfiles\microchip\xc16\v1.11\bin\..\support\dsPIC33F\inc/p33FJ128GP802.inc:1494   *ABS*:00000003 IPL3
d:\programfiles\microchip\xc16\v1.11\bin\..\support\dsPIC33F\inc/p33FJ128GP802.inc:1495   *ABS*:00000004 ACCSAT
d:\programfiles\microchip\xc16\v1.11\bin\..\support\dsPIC33F\inc/p33FJ128GP802.inc:1496   *ABS*:00000005 SATDW
d:\programfiles\microchip\xc16\v1.11\bin\..\support\dsPIC33F\inc/p33FJ128GP802.inc:1497   *ABS*:00000006 SATB
d:\programfiles\microchip\xc16\v1.11\bin\..\support\dsPIC33F\inc/p33FJ128GP802.inc:1498   *ABS*:00000007 SATA
d:\programfiles\microchip\xc16\v1.11\bin\..\support\dsPIC33F\inc/p33FJ128GP802.inc:1499   *ABS*:0000000b EDT
d:\programfiles\microchip\xc16\v1.11\bin\..\support\dsPIC33F\inc/p33FJ128GP802.inc:1500   *ABS*:0000000c US
d:\programfiles\microchip\xc16\v1.11\bin\..\support\dsPIC33F\inc/p33FJ128GP802.inc:1502   *ABS*:00000008 DL0
d:\programfiles\microchip\xc16\v1.11\bin\..\support\dsPIC33F\inc/p33FJ128GP802.inc:1503   *ABS*:00000009 DL1
d:\programfiles\microchip\xc16\v1.11\bin\..\support\dsPIC33F\inc/p33FJ128GP802.inc:1504   *ABS*:0000000a DL2
d:\programfiles\microchip\xc16\v1.11\bin\..\support\dsPIC33F\inc/p33FJ128GP802.inc:1508   *ABS*:0000000e YMODEN
d:\programfiles\microchip\xc16\v1.11\bin\..\support\dsPIC33F\inc/p33FJ128GP802.inc:1509   *ABS*:0000000f XMODEN
d:\programfiles\microchip\xc16\v1.11\bin\..\support\dsPIC33F\inc/p33FJ128GP802.inc:1511   *ABS*:00000000 XWM0
d:\programfiles\microchip\xc16\v1.11\bin\..\support\dsPIC33F\inc/p33FJ128GP802.inc:1512   *ABS*:00000001 XWM1
d:\programfiles\microchip\xc16\v1.11\bin\..\support\dsPIC33F\inc/p33FJ128GP802.inc:1513   *ABS*:00000002 XWM2
d:\programfiles\microchip\xc16\v1.11\bin\..\support\dsPIC33F\inc/p33FJ128GP802.inc:1514   *ABS*:00000003 XWM3
d:\programfiles\microchip\xc16\v1.11\bin\..\support\dsPIC33F\inc/p33FJ128GP802.inc:1515   *ABS*:00000004 YWM0
d:\programfiles\microchip\xc16\v1.11\bin\..\support\dsPIC33F\inc/p33FJ128GP802.inc:1516   *ABS*:00000005 YWM1
d:\programfiles\microchip\xc16\v1.11\bin\..\support\dsPIC33F\inc/p33FJ128GP802.inc:1517   *ABS*:00000006 YWM2
d:\programfiles\microchip\xc16\v1.11\bin\..\support\dsPIC33F\inc/p33FJ128GP802.inc:1518   *ABS*:00000007 YWM3
d:\programfiles\microchip\xc16\v1.11\bin\..\support\dsPIC33F\inc/p33FJ128GP802.inc:1519   *ABS*:00000008 BWM0
d:\programfiles\microchip\xc16\v1.11\bin\..\support\dsPIC33F\inc/p33FJ128GP802.inc:1520   *ABS*:00000009 BWM1
d:\programfiles\microchip\xc16\v1.11\bin\..\support\dsPIC33F\inc/p33FJ128GP802.inc:1521   *ABS*:0000000a BWM2
MPLAB ASM30 Listing:  ../src/ff-pic24-30-33.s 			page 152


d:\programfiles\microchip\xc16\v1.11\bin\..\support\dsPIC33F\inc/p33FJ128GP802.inc:1522   *ABS*:0000000b BWM3
d:\programfiles\microchip\xc16\v1.11\bin\..\support\dsPIC33F\inc/p33FJ128GP802.inc:1526   *ABS*:0000000f BREN
d:\programfiles\microchip\xc16\v1.11\bin\..\support\dsPIC33F\inc/p33FJ128GP802.inc:1528   *ABS*:00000000 XB0
d:\programfiles\microchip\xc16\v1.11\bin\..\support\dsPIC33F\inc/p33FJ128GP802.inc:1529   *ABS*:00000001 XB1
d:\programfiles\microchip\xc16\v1.11\bin\..\support\dsPIC33F\inc/p33FJ128GP802.inc:1530   *ABS*:00000002 XB2
d:\programfiles\microchip\xc16\v1.11\bin\..\support\dsPIC33F\inc/p33FJ128GP802.inc:1531   *ABS*:00000003 XB3
d:\programfiles\microchip\xc16\v1.11\bin\..\support\dsPIC33F\inc/p33FJ128GP802.inc:1532   *ABS*:00000004 XB4
d:\programfiles\microchip\xc16\v1.11\bin\..\support\dsPIC33F\inc/p33FJ128GP802.inc:1533   *ABS*:00000005 XB5
d:\programfiles\microchip\xc16\v1.11\bin\..\support\dsPIC33F\inc/p33FJ128GP802.inc:1534   *ABS*:00000006 XB6
d:\programfiles\microchip\xc16\v1.11\bin\..\support\dsPIC33F\inc/p33FJ128GP802.inc:1535   *ABS*:00000007 XB7
d:\programfiles\microchip\xc16\v1.11\bin\..\support\dsPIC33F\inc/p33FJ128GP802.inc:1536   *ABS*:00000008 XB8
d:\programfiles\microchip\xc16\v1.11\bin\..\support\dsPIC33F\inc/p33FJ128GP802.inc:1537   *ABS*:00000009 XB9
d:\programfiles\microchip\xc16\v1.11\bin\..\support\dsPIC33F\inc/p33FJ128GP802.inc:1538   *ABS*:0000000a XB10
d:\programfiles\microchip\xc16\v1.11\bin\..\support\dsPIC33F\inc/p33FJ128GP802.inc:1539   *ABS*:0000000b XB11
d:\programfiles\microchip\xc16\v1.11\bin\..\support\dsPIC33F\inc/p33FJ128GP802.inc:1540   *ABS*:0000000c XB12
d:\programfiles\microchip\xc16\v1.11\bin\..\support\dsPIC33F\inc/p33FJ128GP802.inc:1541   *ABS*:0000000d XB13
d:\programfiles\microchip\xc16\v1.11\bin\..\support\dsPIC33F\inc/p33FJ128GP802.inc:1542   *ABS*:0000000e XB14
d:\programfiles\microchip\xc16\v1.11\bin\..\support\dsPIC33F\inc/p33FJ128GP802.inc:1546   *ABS*:00000000 CN0IE
d:\programfiles\microchip\xc16\v1.11\bin\..\support\dsPIC33F\inc/p33FJ128GP802.inc:1547   *ABS*:00000001 CN1IE
d:\programfiles\microchip\xc16\v1.11\bin\..\support\dsPIC33F\inc/p33FJ128GP802.inc:1548   *ABS*:00000002 CN2IE
d:\programfiles\microchip\xc16\v1.11\bin\..\support\dsPIC33F\inc/p33FJ128GP802.inc:1549   *ABS*:00000003 CN3IE
d:\programfiles\microchip\xc16\v1.11\bin\..\support\dsPIC33F\inc/p33FJ128GP802.inc:1550   *ABS*:00000004 CN4IE
d:\programfiles\microchip\xc16\v1.11\bin\..\support\dsPIC33F\inc/p33FJ128GP802.inc:1551   *ABS*:00000005 CN5IE
d:\programfiles\microchip\xc16\v1.11\bin\..\support\dsPIC33F\inc/p33FJ128GP802.inc:1552   *ABS*:00000006 CN6IE
d:\programfiles\microchip\xc16\v1.11\bin\..\support\dsPIC33F\inc/p33FJ128GP802.inc:1553   *ABS*:00000007 CN7IE
d:\programfiles\microchip\xc16\v1.11\bin\..\support\dsPIC33F\inc/p33FJ128GP802.inc:1554   *ABS*:0000000b CN11IE
d:\programfiles\microchip\xc16\v1.11\bin\..\support\dsPIC33F\inc/p33FJ128GP802.inc:1555   *ABS*:0000000c CN12IE
d:\programfiles\microchip\xc16\v1.11\bin\..\support\dsPIC33F\inc/p33FJ128GP802.inc:1556   *ABS*:0000000d CN13IE
d:\programfiles\microchip\xc16\v1.11\bin\..\support\dsPIC33F\inc/p33FJ128GP802.inc:1557   *ABS*:0000000e CN14IE
d:\programfiles\microchip\xc16\v1.11\bin\..\support\dsPIC33F\inc/p33FJ128GP802.inc:1558   *ABS*:0000000f CN15IE
d:\programfiles\microchip\xc16\v1.11\bin\..\support\dsPIC33F\inc/p33FJ128GP802.inc:1562   *ABS*:00000000 CN16IE
d:\programfiles\microchip\xc16\v1.11\bin\..\support\dsPIC33F\inc/p33FJ128GP802.inc:1563   *ABS*:00000005 CN21IE
d:\programfiles\microchip\xc16\v1.11\bin\..\support\dsPIC33F\inc/p33FJ128GP802.inc:1564   *ABS*:00000006 CN22IE
d:\programfiles\microchip\xc16\v1.11\bin\..\support\dsPIC33F\inc/p33FJ128GP802.inc:1565   *ABS*:00000007 CN23IE
d:\programfiles\microchip\xc16\v1.11\bin\..\support\dsPIC33F\inc/p33FJ128GP802.inc:1566   *ABS*:00000008 CN24IE
d:\programfiles\microchip\xc16\v1.11\bin\..\support\dsPIC33F\inc/p33FJ128GP802.inc:1567   *ABS*:0000000b CN27IE
d:\programfiles\microchip\xc16\v1.11\bin\..\support\dsPIC33F\inc/p33FJ128GP802.inc:1568   *ABS*:0000000d CN29IE
d:\programfiles\microchip\xc16\v1.11\bin\..\support\dsPIC33F\inc/p33FJ128GP802.inc:1569   *ABS*:0000000e CN30IE
d:\programfiles\microchip\xc16\v1.11\bin\..\support\dsPIC33F\inc/p33FJ128GP802.inc:1573   *ABS*:00000000 CN0PUE
d:\programfiles\microchip\xc16\v1.11\bin\..\support\dsPIC33F\inc/p33FJ128GP802.inc:1574   *ABS*:00000001 CN1PUE
d:\programfiles\microchip\xc16\v1.11\bin\..\support\dsPIC33F\inc/p33FJ128GP802.inc:1575   *ABS*:00000002 CN2PUE
d:\programfiles\microchip\xc16\v1.11\bin\..\support\dsPIC33F\inc/p33FJ128GP802.inc:1576   *ABS*:00000003 CN3PUE
d:\programfiles\microchip\xc16\v1.11\bin\..\support\dsPIC33F\inc/p33FJ128GP802.inc:1577   *ABS*:00000004 CN4PUE
d:\programfiles\microchip\xc16\v1.11\bin\..\support\dsPIC33F\inc/p33FJ128GP802.inc:1578   *ABS*:00000005 CN5PUE
d:\programfiles\microchip\xc16\v1.11\bin\..\support\dsPIC33F\inc/p33FJ128GP802.inc:1579   *ABS*:00000006 CN6PUE
d:\programfiles\microchip\xc16\v1.11\bin\..\support\dsPIC33F\inc/p33FJ128GP802.inc:1580   *ABS*:00000007 CN7PUE
d:\programfiles\microchip\xc16\v1.11\bin\..\support\dsPIC33F\inc/p33FJ128GP802.inc:1581   *ABS*:0000000b CN11PUE
d:\programfiles\microchip\xc16\v1.11\bin\..\support\dsPIC33F\inc/p33FJ128GP802.inc:1582   *ABS*:0000000c CN12PUE
d:\programfiles\microchip\xc16\v1.11\bin\..\support\dsPIC33F\inc/p33FJ128GP802.inc:1583   *ABS*:0000000d CN13PUE
d:\programfiles\microchip\xc16\v1.11\bin\..\support\dsPIC33F\inc/p33FJ128GP802.inc:1584   *ABS*:0000000e CN14PUE
d:\programfiles\microchip\xc16\v1.11\bin\..\support\dsPIC33F\inc/p33FJ128GP802.inc:1585   *ABS*:0000000f CN15PUE
d:\programfiles\microchip\xc16\v1.11\bin\..\support\dsPIC33F\inc/p33FJ128GP802.inc:1589   *ABS*:00000000 CN16PUE
d:\programfiles\microchip\xc16\v1.11\bin\..\support\dsPIC33F\inc/p33FJ128GP802.inc:1590   *ABS*:00000005 CN21PUE
d:\programfiles\microchip\xc16\v1.11\bin\..\support\dsPIC33F\inc/p33FJ128GP802.inc:1591   *ABS*:00000006 CN22PUE
d:\programfiles\microchip\xc16\v1.11\bin\..\support\dsPIC33F\inc/p33FJ128GP802.inc:1592   *ABS*:00000007 CN23PUE
d:\programfiles\microchip\xc16\v1.11\bin\..\support\dsPIC33F\inc/p33FJ128GP802.inc:1593   *ABS*:00000008 CN24PUE
d:\programfiles\microchip\xc16\v1.11\bin\..\support\dsPIC33F\inc/p33FJ128GP802.inc:1594   *ABS*:0000000b CN27PUE
MPLAB ASM30 Listing:  ../src/ff-pic24-30-33.s 			page 153


d:\programfiles\microchip\xc16\v1.11\bin\..\support\dsPIC33F\inc/p33FJ128GP802.inc:1595   *ABS*:0000000d CN29PUE
d:\programfiles\microchip\xc16\v1.11\bin\..\support\dsPIC33F\inc/p33FJ128GP802.inc:1596   *ABS*:0000000e CN30PUE
d:\programfiles\microchip\xc16\v1.11\bin\..\support\dsPIC33F\inc/p33FJ128GP802.inc:1600   *ABS*:00000001 OSCFAIL
d:\programfiles\microchip\xc16\v1.11\bin\..\support\dsPIC33F\inc/p33FJ128GP802.inc:1601   *ABS*:00000002 STKERR
d:\programfiles\microchip\xc16\v1.11\bin\..\support\dsPIC33F\inc/p33FJ128GP802.inc:1602   *ABS*:00000003 ADDRERR
d:\programfiles\microchip\xc16\v1.11\bin\..\support\dsPIC33F\inc/p33FJ128GP802.inc:1603   *ABS*:00000004 MATHERR
d:\programfiles\microchip\xc16\v1.11\bin\..\support\dsPIC33F\inc/p33FJ128GP802.inc:1604   *ABS*:00000005 DMACERR
d:\programfiles\microchip\xc16\v1.11\bin\..\support\dsPIC33F\inc/p33FJ128GP802.inc:1605   *ABS*:00000006 DIV0ERR
d:\programfiles\microchip\xc16\v1.11\bin\..\support\dsPIC33F\inc/p33FJ128GP802.inc:1606   *ABS*:00000007 SFTACERR
d:\programfiles\microchip\xc16\v1.11\bin\..\support\dsPIC33F\inc/p33FJ128GP802.inc:1607   *ABS*:00000008 COVTE
d:\programfiles\microchip\xc16\v1.11\bin\..\support\dsPIC33F\inc/p33FJ128GP802.inc:1608   *ABS*:00000009 OVBTE
d:\programfiles\microchip\xc16\v1.11\bin\..\support\dsPIC33F\inc/p33FJ128GP802.inc:1609   *ABS*:0000000a OVATE
d:\programfiles\microchip\xc16\v1.11\bin\..\support\dsPIC33F\inc/p33FJ128GP802.inc:1610   *ABS*:0000000b COVBERR
d:\programfiles\microchip\xc16\v1.11\bin\..\support\dsPIC33F\inc/p33FJ128GP802.inc:1611   *ABS*:0000000c COVAERR
d:\programfiles\microchip\xc16\v1.11\bin\..\support\dsPIC33F\inc/p33FJ128GP802.inc:1612   *ABS*:0000000d OVBERR
d:\programfiles\microchip\xc16\v1.11\bin\..\support\dsPIC33F\inc/p33FJ128GP802.inc:1613   *ABS*:0000000e OVAERR
d:\programfiles\microchip\xc16\v1.11\bin\..\support\dsPIC33F\inc/p33FJ128GP802.inc:1614   *ABS*:0000000f NSTDIS
d:\programfiles\microchip\xc16\v1.11\bin\..\support\dsPIC33F\inc/p33FJ128GP802.inc:1618   *ABS*:00000000 INT0EP
d:\programfiles\microchip\xc16\v1.11\bin\..\support\dsPIC33F\inc/p33FJ128GP802.inc:1619   *ABS*:00000001 INT1EP
d:\programfiles\microchip\xc16\v1.11\bin\..\support\dsPIC33F\inc/p33FJ128GP802.inc:1620   *ABS*:00000002 INT2EP
d:\programfiles\microchip\xc16\v1.11\bin\..\support\dsPIC33F\inc/p33FJ128GP802.inc:1621   *ABS*:0000000e DISI
d:\programfiles\microchip\xc16\v1.11\bin\..\support\dsPIC33F\inc/p33FJ128GP802.inc:1622   *ABS*:0000000f ALTIVT
d:\programfiles\microchip\xc16\v1.11\bin\..\support\dsPIC33F\inc/p33FJ128GP802.inc:1626   *ABS*:00000000 INT0IF
d:\programfiles\microchip\xc16\v1.11\bin\..\support\dsPIC33F\inc/p33FJ128GP802.inc:1627   *ABS*:00000001 IC1IF
d:\programfiles\microchip\xc16\v1.11\bin\..\support\dsPIC33F\inc/p33FJ128GP802.inc:1628   *ABS*:00000002 OC1IF
d:\programfiles\microchip\xc16\v1.11\bin\..\support\dsPIC33F\inc/p33FJ128GP802.inc:1629   *ABS*:00000003 T1IF
d:\programfiles\microchip\xc16\v1.11\bin\..\support\dsPIC33F\inc/p33FJ128GP802.inc:1630   *ABS*:00000004 DMA0IF
d:\programfiles\microchip\xc16\v1.11\bin\..\support\dsPIC33F\inc/p33FJ128GP802.inc:1631   *ABS*:00000005 IC2IF
d:\programfiles\microchip\xc16\v1.11\bin\..\support\dsPIC33F\inc/p33FJ128GP802.inc:1632   *ABS*:00000006 OC2IF
d:\programfiles\microchip\xc16\v1.11\bin\..\support\dsPIC33F\inc/p33FJ128GP802.inc:1633   *ABS*:00000007 T2IF
d:\programfiles\microchip\xc16\v1.11\bin\..\support\dsPIC33F\inc/p33FJ128GP802.inc:1634   *ABS*:00000008 T3IF
d:\programfiles\microchip\xc16\v1.11\bin\..\support\dsPIC33F\inc/p33FJ128GP802.inc:1635   *ABS*:00000009 SPI1EIF
d:\programfiles\microchip\xc16\v1.11\bin\..\support\dsPIC33F\inc/p33FJ128GP802.inc:1636   *ABS*:0000000a SPI1IF
d:\programfiles\microchip\xc16\v1.11\bin\..\support\dsPIC33F\inc/p33FJ128GP802.inc:1637   *ABS*:0000000b U1RXIF
d:\programfiles\microchip\xc16\v1.11\bin\..\support\dsPIC33F\inc/p33FJ128GP802.inc:1638   *ABS*:0000000c U1TXIF
d:\programfiles\microchip\xc16\v1.11\bin\..\support\dsPIC33F\inc/p33FJ128GP802.inc:1639   *ABS*:0000000d AD1IF
d:\programfiles\microchip\xc16\v1.11\bin\..\support\dsPIC33F\inc/p33FJ128GP802.inc:1640   *ABS*:0000000e DMA1IF
d:\programfiles\microchip\xc16\v1.11\bin\..\support\dsPIC33F\inc/p33FJ128GP802.inc:1644   *ABS*:00000000 SI2C1IF
d:\programfiles\microchip\xc16\v1.11\bin\..\support\dsPIC33F\inc/p33FJ128GP802.inc:1645   *ABS*:00000001 MI2C1IF
d:\programfiles\microchip\xc16\v1.11\bin\..\support\dsPIC33F\inc/p33FJ128GP802.inc:1646   *ABS*:00000002 CMIF
d:\programfiles\microchip\xc16\v1.11\bin\..\support\dsPIC33F\inc/p33FJ128GP802.inc:1647   *ABS*:00000003 CNIF
d:\programfiles\microchip\xc16\v1.11\bin\..\support\dsPIC33F\inc/p33FJ128GP802.inc:1648   *ABS*:00000004 INT1IF
d:\programfiles\microchip\xc16\v1.11\bin\..\support\dsPIC33F\inc/p33FJ128GP802.inc:1649   *ABS*:00000006 IC7IF
d:\programfiles\microchip\xc16\v1.11\bin\..\support\dsPIC33F\inc/p33FJ128GP802.inc:1650   *ABS*:00000007 IC8IF
d:\programfiles\microchip\xc16\v1.11\bin\..\support\dsPIC33F\inc/p33FJ128GP802.inc:1651   *ABS*:00000008 DMA2IF
d:\programfiles\microchip\xc16\v1.11\bin\..\support\dsPIC33F\inc/p33FJ128GP802.inc:1652   *ABS*:00000009 OC3IF
d:\programfiles\microchip\xc16\v1.11\bin\..\support\dsPIC33F\inc/p33FJ128GP802.inc:1653   *ABS*:0000000a OC4IF
d:\programfiles\microchip\xc16\v1.11\bin\..\support\dsPIC33F\inc/p33FJ128GP802.inc:1654   *ABS*:0000000b T4IF
d:\programfiles\microchip\xc16\v1.11\bin\..\support\dsPIC33F\inc/p33FJ128GP802.inc:1655   *ABS*:0000000c T5IF
d:\programfiles\microchip\xc16\v1.11\bin\..\support\dsPIC33F\inc/p33FJ128GP802.inc:1656   *ABS*:0000000d INT2IF
d:\programfiles\microchip\xc16\v1.11\bin\..\support\dsPIC33F\inc/p33FJ128GP802.inc:1657   *ABS*:0000000e U2RXIF
d:\programfiles\microchip\xc16\v1.11\bin\..\support\dsPIC33F\inc/p33FJ128GP802.inc:1658   *ABS*:0000000f U2TXIF
d:\programfiles\microchip\xc16\v1.11\bin\..\support\dsPIC33F\inc/p33FJ128GP802.inc:1660   *ABS*:00000000 SI2CIF
d:\programfiles\microchip\xc16\v1.11\bin\..\support\dsPIC33F\inc/p33FJ128GP802.inc:1664   *ABS*:00000000 SPI2EIF
d:\programfiles\microchip\xc16\v1.11\bin\..\support\dsPIC33F\inc/p33FJ128GP802.inc:1665   *ABS*:00000001 SPI2IF
d:\programfiles\microchip\xc16\v1.11\bin\..\support\dsPIC33F\inc/p33FJ128GP802.inc:1666   *ABS*:00000002 C1RXIF
d:\programfiles\microchip\xc16\v1.11\bin\..\support\dsPIC33F\inc/p33FJ128GP802.inc:1667   *ABS*:00000003 C1IF
MPLAB ASM30 Listing:  ../src/ff-pic24-30-33.s 			page 154


d:\programfiles\microchip\xc16\v1.11\bin\..\support\dsPIC33F\inc/p33FJ128GP802.inc:1668   *ABS*:00000004 DMA3IF
d:\programfiles\microchip\xc16\v1.11\bin\..\support\dsPIC33F\inc/p33FJ128GP802.inc:1669   *ABS*:0000000d PMPIF
d:\programfiles\microchip\xc16\v1.11\bin\..\support\dsPIC33F\inc/p33FJ128GP802.inc:1670   *ABS*:0000000e DMA4IF
d:\programfiles\microchip\xc16\v1.11\bin\..\support\dsPIC33F\inc/p33FJ128GP802.inc:1674   *ABS*:0000000b DCIEIF
d:\programfiles\microchip\xc16\v1.11\bin\..\support\dsPIC33F\inc/p33FJ128GP802.inc:1675   *ABS*:0000000c DCIIF
d:\programfiles\microchip\xc16\v1.11\bin\..\support\dsPIC33F\inc/p33FJ128GP802.inc:1676   *ABS*:0000000d DMA5IF
d:\programfiles\microchip\xc16\v1.11\bin\..\support\dsPIC33F\inc/p33FJ128GP802.inc:1677   *ABS*:0000000e RTCIF
d:\programfiles\microchip\xc16\v1.11\bin\..\support\dsPIC33F\inc/p33FJ128GP802.inc:1681   *ABS*:00000001 U1EIF
d:\programfiles\microchip\xc16\v1.11\bin\..\support\dsPIC33F\inc/p33FJ128GP802.inc:1682   *ABS*:00000002 U2EIF
d:\programfiles\microchip\xc16\v1.11\bin\..\support\dsPIC33F\inc/p33FJ128GP802.inc:1683   *ABS*:00000003 CRCIF
d:\programfiles\microchip\xc16\v1.11\bin\..\support\dsPIC33F\inc/p33FJ128GP802.inc:1684   *ABS*:00000004 DMA6IF
d:\programfiles\microchip\xc16\v1.11\bin\..\support\dsPIC33F\inc/p33FJ128GP802.inc:1685   *ABS*:00000005 DMA7IF
d:\programfiles\microchip\xc16\v1.11\bin\..\support\dsPIC33F\inc/p33FJ128GP802.inc:1686   *ABS*:00000006 C1TXIF
d:\programfiles\microchip\xc16\v1.11\bin\..\support\dsPIC33F\inc/p33FJ128GP802.inc:1687   *ABS*:0000000e DAC1RIF
d:\programfiles\microchip\xc16\v1.11\bin\..\support\dsPIC33F\inc/p33FJ128GP802.inc:1688   *ABS*:0000000f DAC1LIF
d:\programfiles\microchip\xc16\v1.11\bin\..\support\dsPIC33F\inc/p33FJ128GP802.inc:1692   *ABS*:00000000 INT0IE
d:\programfiles\microchip\xc16\v1.11\bin\..\support\dsPIC33F\inc/p33FJ128GP802.inc:1693   *ABS*:00000001 IC1IE
d:\programfiles\microchip\xc16\v1.11\bin\..\support\dsPIC33F\inc/p33FJ128GP802.inc:1694   *ABS*:00000002 OC1IE
d:\programfiles\microchip\xc16\v1.11\bin\..\support\dsPIC33F\inc/p33FJ128GP802.inc:1695   *ABS*:00000003 T1IE
d:\programfiles\microchip\xc16\v1.11\bin\..\support\dsPIC33F\inc/p33FJ128GP802.inc:1696   *ABS*:00000004 DMA0IE
d:\programfiles\microchip\xc16\v1.11\bin\..\support\dsPIC33F\inc/p33FJ128GP802.inc:1697   *ABS*:00000005 IC2IE
d:\programfiles\microchip\xc16\v1.11\bin\..\support\dsPIC33F\inc/p33FJ128GP802.inc:1698   *ABS*:00000006 OC2IE
d:\programfiles\microchip\xc16\v1.11\bin\..\support\dsPIC33F\inc/p33FJ128GP802.inc:1699   *ABS*:00000007 T2IE
d:\programfiles\microchip\xc16\v1.11\bin\..\support\dsPIC33F\inc/p33FJ128GP802.inc:1700   *ABS*:00000008 T3IE
d:\programfiles\microchip\xc16\v1.11\bin\..\support\dsPIC33F\inc/p33FJ128GP802.inc:1701   *ABS*:00000009 SPI1EIE
d:\programfiles\microchip\xc16\v1.11\bin\..\support\dsPIC33F\inc/p33FJ128GP802.inc:1702   *ABS*:0000000a SPI1IE
d:\programfiles\microchip\xc16\v1.11\bin\..\support\dsPIC33F\inc/p33FJ128GP802.inc:1703   *ABS*:0000000b U1RXIE
d:\programfiles\microchip\xc16\v1.11\bin\..\support\dsPIC33F\inc/p33FJ128GP802.inc:1704   *ABS*:0000000c U1TXIE
d:\programfiles\microchip\xc16\v1.11\bin\..\support\dsPIC33F\inc/p33FJ128GP802.inc:1705   *ABS*:0000000d AD1IE
d:\programfiles\microchip\xc16\v1.11\bin\..\support\dsPIC33F\inc/p33FJ128GP802.inc:1706   *ABS*:0000000e DMA1IE
d:\programfiles\microchip\xc16\v1.11\bin\..\support\dsPIC33F\inc/p33FJ128GP802.inc:1710   *ABS*:00000000 SI2C1IE
d:\programfiles\microchip\xc16\v1.11\bin\..\support\dsPIC33F\inc/p33FJ128GP802.inc:1711   *ABS*:00000001 MI2C1IE
d:\programfiles\microchip\xc16\v1.11\bin\..\support\dsPIC33F\inc/p33FJ128GP802.inc:1712   *ABS*:00000002 CMIE
d:\programfiles\microchip\xc16\v1.11\bin\..\support\dsPIC33F\inc/p33FJ128GP802.inc:1713   *ABS*:00000003 CNIE
d:\programfiles\microchip\xc16\v1.11\bin\..\support\dsPIC33F\inc/p33FJ128GP802.inc:1714   *ABS*:00000004 INT1IE
d:\programfiles\microchip\xc16\v1.11\bin\..\support\dsPIC33F\inc/p33FJ128GP802.inc:1715   *ABS*:00000006 IC7IE
d:\programfiles\microchip\xc16\v1.11\bin\..\support\dsPIC33F\inc/p33FJ128GP802.inc:1716   *ABS*:00000007 IC8IE
d:\programfiles\microchip\xc16\v1.11\bin\..\support\dsPIC33F\inc/p33FJ128GP802.inc:1717   *ABS*:00000008 DMA2IE
d:\programfiles\microchip\xc16\v1.11\bin\..\support\dsPIC33F\inc/p33FJ128GP802.inc:1718   *ABS*:00000009 OC3IE
d:\programfiles\microchip\xc16\v1.11\bin\..\support\dsPIC33F\inc/p33FJ128GP802.inc:1719   *ABS*:0000000a OC4IE
d:\programfiles\microchip\xc16\v1.11\bin\..\support\dsPIC33F\inc/p33FJ128GP802.inc:1720   *ABS*:0000000b T4IE
d:\programfiles\microchip\xc16\v1.11\bin\..\support\dsPIC33F\inc/p33FJ128GP802.inc:1721   *ABS*:0000000c T5IE
d:\programfiles\microchip\xc16\v1.11\bin\..\support\dsPIC33F\inc/p33FJ128GP802.inc:1722   *ABS*:0000000d INT2IE
d:\programfiles\microchip\xc16\v1.11\bin\..\support\dsPIC33F\inc/p33FJ128GP802.inc:1723   *ABS*:0000000e U2RXIE
d:\programfiles\microchip\xc16\v1.11\bin\..\support\dsPIC33F\inc/p33FJ128GP802.inc:1724   *ABS*:0000000f U2TXIE
d:\programfiles\microchip\xc16\v1.11\bin\..\support\dsPIC33F\inc/p33FJ128GP802.inc:1726   *ABS*:00000000 SI2CIE
d:\programfiles\microchip\xc16\v1.11\bin\..\support\dsPIC33F\inc/p33FJ128GP802.inc:1730   *ABS*:00000000 SPI2EIE
d:\programfiles\microchip\xc16\v1.11\bin\..\support\dsPIC33F\inc/p33FJ128GP802.inc:1731   *ABS*:00000001 SPI2IE
d:\programfiles\microchip\xc16\v1.11\bin\..\support\dsPIC33F\inc/p33FJ128GP802.inc:1732   *ABS*:00000002 C1RXIE
d:\programfiles\microchip\xc16\v1.11\bin\..\support\dsPIC33F\inc/p33FJ128GP802.inc:1733   *ABS*:00000003 C1IE
d:\programfiles\microchip\xc16\v1.11\bin\..\support\dsPIC33F\inc/p33FJ128GP802.inc:1734   *ABS*:00000004 DMA3IE
d:\programfiles\microchip\xc16\v1.11\bin\..\support\dsPIC33F\inc/p33FJ128GP802.inc:1735   *ABS*:0000000d PMPIE
d:\programfiles\microchip\xc16\v1.11\bin\..\support\dsPIC33F\inc/p33FJ128GP802.inc:1736   *ABS*:0000000e DMA4IE
d:\programfiles\microchip\xc16\v1.11\bin\..\support\dsPIC33F\inc/p33FJ128GP802.inc:1740   *ABS*:0000000b DCIEIE
d:\programfiles\microchip\xc16\v1.11\bin\..\support\dsPIC33F\inc/p33FJ128GP802.inc:1741   *ABS*:0000000c DCIIE
d:\programfiles\microchip\xc16\v1.11\bin\..\support\dsPIC33F\inc/p33FJ128GP802.inc:1742   *ABS*:0000000d DMA5IE
d:\programfiles\microchip\xc16\v1.11\bin\..\support\dsPIC33F\inc/p33FJ128GP802.inc:1743   *ABS*:0000000e RTCIE
MPLAB ASM30 Listing:  ../src/ff-pic24-30-33.s 			page 155


d:\programfiles\microchip\xc16\v1.11\bin\..\support\dsPIC33F\inc/p33FJ128GP802.inc:1747   *ABS*:00000001 U1EIE
d:\programfiles\microchip\xc16\v1.11\bin\..\support\dsPIC33F\inc/p33FJ128GP802.inc:1748   *ABS*:00000002 U2EIE
d:\programfiles\microchip\xc16\v1.11\bin\..\support\dsPIC33F\inc/p33FJ128GP802.inc:1749   *ABS*:00000003 CRCIE
d:\programfiles\microchip\xc16\v1.11\bin\..\support\dsPIC33F\inc/p33FJ128GP802.inc:1750   *ABS*:00000004 DMA6IE
d:\programfiles\microchip\xc16\v1.11\bin\..\support\dsPIC33F\inc/p33FJ128GP802.inc:1751   *ABS*:00000005 DMA7IE
d:\programfiles\microchip\xc16\v1.11\bin\..\support\dsPIC33F\inc/p33FJ128GP802.inc:1752   *ABS*:00000006 C1TXIE
d:\programfiles\microchip\xc16\v1.11\bin\..\support\dsPIC33F\inc/p33FJ128GP802.inc:1753   *ABS*:0000000e DAC1RIE
d:\programfiles\microchip\xc16\v1.11\bin\..\support\dsPIC33F\inc/p33FJ128GP802.inc:1754   *ABS*:0000000f DAC1LIE
d:\programfiles\microchip\xc16\v1.11\bin\..\support\dsPIC33F\inc/p33FJ128GP802.inc:1758   *ABS*:00000000 INT0IP0
d:\programfiles\microchip\xc16\v1.11\bin\..\support\dsPIC33F\inc/p33FJ128GP802.inc:1759   *ABS*:00000001 INT0IP1
d:\programfiles\microchip\xc16\v1.11\bin\..\support\dsPIC33F\inc/p33FJ128GP802.inc:1760   *ABS*:00000002 INT0IP2
d:\programfiles\microchip\xc16\v1.11\bin\..\support\dsPIC33F\inc/p33FJ128GP802.inc:1761   *ABS*:00000004 IC1IP0
d:\programfiles\microchip\xc16\v1.11\bin\..\support\dsPIC33F\inc/p33FJ128GP802.inc:1762   *ABS*:00000005 IC1IP1
d:\programfiles\microchip\xc16\v1.11\bin\..\support\dsPIC33F\inc/p33FJ128GP802.inc:1763   *ABS*:00000006 IC1IP2
d:\programfiles\microchip\xc16\v1.11\bin\..\support\dsPIC33F\inc/p33FJ128GP802.inc:1764   *ABS*:00000008 OC1IP0
d:\programfiles\microchip\xc16\v1.11\bin\..\support\dsPIC33F\inc/p33FJ128GP802.inc:1765   *ABS*:00000009 OC1IP1
d:\programfiles\microchip\xc16\v1.11\bin\..\support\dsPIC33F\inc/p33FJ128GP802.inc:1766   *ABS*:0000000a OC1IP2
d:\programfiles\microchip\xc16\v1.11\bin\..\support\dsPIC33F\inc/p33FJ128GP802.inc:1767   *ABS*:0000000c T1IP0
d:\programfiles\microchip\xc16\v1.11\bin\..\support\dsPIC33F\inc/p33FJ128GP802.inc:1768   *ABS*:0000000d T1IP1
d:\programfiles\microchip\xc16\v1.11\bin\..\support\dsPIC33F\inc/p33FJ128GP802.inc:1769   *ABS*:0000000e T1IP2
d:\programfiles\microchip\xc16\v1.11\bin\..\support\dsPIC33F\inc/p33FJ128GP802.inc:1773   *ABS*:00000000 DMA0IP0
d:\programfiles\microchip\xc16\v1.11\bin\..\support\dsPIC33F\inc/p33FJ128GP802.inc:1774   *ABS*:00000001 DMA0IP1
d:\programfiles\microchip\xc16\v1.11\bin\..\support\dsPIC33F\inc/p33FJ128GP802.inc:1775   *ABS*:00000002 DMA0IP2
d:\programfiles\microchip\xc16\v1.11\bin\..\support\dsPIC33F\inc/p33FJ128GP802.inc:1776   *ABS*:00000004 IC2IP0
d:\programfiles\microchip\xc16\v1.11\bin\..\support\dsPIC33F\inc/p33FJ128GP802.inc:1777   *ABS*:00000005 IC2IP1
d:\programfiles\microchip\xc16\v1.11\bin\..\support\dsPIC33F\inc/p33FJ128GP802.inc:1778   *ABS*:00000006 IC2IP2
d:\programfiles\microchip\xc16\v1.11\bin\..\support\dsPIC33F\inc/p33FJ128GP802.inc:1779   *ABS*:00000008 OC2IP0
d:\programfiles\microchip\xc16\v1.11\bin\..\support\dsPIC33F\inc/p33FJ128GP802.inc:1780   *ABS*:00000009 OC2IP1
d:\programfiles\microchip\xc16\v1.11\bin\..\support\dsPIC33F\inc/p33FJ128GP802.inc:1781   *ABS*:0000000a OC2IP2
d:\programfiles\microchip\xc16\v1.11\bin\..\support\dsPIC33F\inc/p33FJ128GP802.inc:1782   *ABS*:0000000c T2IP0
d:\programfiles\microchip\xc16\v1.11\bin\..\support\dsPIC33F\inc/p33FJ128GP802.inc:1783   *ABS*:0000000d T2IP1
d:\programfiles\microchip\xc16\v1.11\bin\..\support\dsPIC33F\inc/p33FJ128GP802.inc:1784   *ABS*:0000000e T2IP2
d:\programfiles\microchip\xc16\v1.11\bin\..\support\dsPIC33F\inc/p33FJ128GP802.inc:1788   *ABS*:00000000 T3IP0
d:\programfiles\microchip\xc16\v1.11\bin\..\support\dsPIC33F\inc/p33FJ128GP802.inc:1789   *ABS*:00000001 T3IP1
d:\programfiles\microchip\xc16\v1.11\bin\..\support\dsPIC33F\inc/p33FJ128GP802.inc:1790   *ABS*:00000002 T3IP2
d:\programfiles\microchip\xc16\v1.11\bin\..\support\dsPIC33F\inc/p33FJ128GP802.inc:1791   *ABS*:00000004 SPI1EIP0
d:\programfiles\microchip\xc16\v1.11\bin\..\support\dsPIC33F\inc/p33FJ128GP802.inc:1792   *ABS*:00000005 SPI1EIP1
d:\programfiles\microchip\xc16\v1.11\bin\..\support\dsPIC33F\inc/p33FJ128GP802.inc:1793   *ABS*:00000006 SPI1EIP2
d:\programfiles\microchip\xc16\v1.11\bin\..\support\dsPIC33F\inc/p33FJ128GP802.inc:1794   *ABS*:00000008 SPI1IP0
d:\programfiles\microchip\xc16\v1.11\bin\..\support\dsPIC33F\inc/p33FJ128GP802.inc:1795   *ABS*:00000009 SPI1IP1
d:\programfiles\microchip\xc16\v1.11\bin\..\support\dsPIC33F\inc/p33FJ128GP802.inc:1796   *ABS*:0000000a SPI1IP2
d:\programfiles\microchip\xc16\v1.11\bin\..\support\dsPIC33F\inc/p33FJ128GP802.inc:1797   *ABS*:0000000c U1RXIP0
d:\programfiles\microchip\xc16\v1.11\bin\..\support\dsPIC33F\inc/p33FJ128GP802.inc:1798   *ABS*:0000000d U1RXIP1
d:\programfiles\microchip\xc16\v1.11\bin\..\support\dsPIC33F\inc/p33FJ128GP802.inc:1799   *ABS*:0000000e U1RXIP2
d:\programfiles\microchip\xc16\v1.11\bin\..\support\dsPIC33F\inc/p33FJ128GP802.inc:1803   *ABS*:00000000 U1TXIP0
d:\programfiles\microchip\xc16\v1.11\bin\..\support\dsPIC33F\inc/p33FJ128GP802.inc:1804   *ABS*:00000001 U1TXIP1
d:\programfiles\microchip\xc16\v1.11\bin\..\support\dsPIC33F\inc/p33FJ128GP802.inc:1805   *ABS*:00000002 U1TXIP2
d:\programfiles\microchip\xc16\v1.11\bin\..\support\dsPIC33F\inc/p33FJ128GP802.inc:1806   *ABS*:00000004 AD1IP0
d:\programfiles\microchip\xc16\v1.11\bin\..\support\dsPIC33F\inc/p33FJ128GP802.inc:1807   *ABS*:00000005 AD1IP1
d:\programfiles\microchip\xc16\v1.11\bin\..\support\dsPIC33F\inc/p33FJ128GP802.inc:1808   *ABS*:00000006 AD1IP2
d:\programfiles\microchip\xc16\v1.11\bin\..\support\dsPIC33F\inc/p33FJ128GP802.inc:1809   *ABS*:00000008 DMA1IP0
d:\programfiles\microchip\xc16\v1.11\bin\..\support\dsPIC33F\inc/p33FJ128GP802.inc:1810   *ABS*:00000009 DMA1IP1
d:\programfiles\microchip\xc16\v1.11\bin\..\support\dsPIC33F\inc/p33FJ128GP802.inc:1811   *ABS*:0000000a DMA1IP2
d:\programfiles\microchip\xc16\v1.11\bin\..\support\dsPIC33F\inc/p33FJ128GP802.inc:1815   *ABS*:00000000 SI2C1IP0
d:\programfiles\microchip\xc16\v1.11\bin\..\support\dsPIC33F\inc/p33FJ128GP802.inc:1816   *ABS*:00000001 SI2C1IP1
d:\programfiles\microchip\xc16\v1.11\bin\..\support\dsPIC33F\inc/p33FJ128GP802.inc:1817   *ABS*:00000002 SI2C1IP2
d:\programfiles\microchip\xc16\v1.11\bin\..\support\dsPIC33F\inc/p33FJ128GP802.inc:1818   *ABS*:00000004 MI2C1IP0
MPLAB ASM30 Listing:  ../src/ff-pic24-30-33.s 			page 156


d:\programfiles\microchip\xc16\v1.11\bin\..\support\dsPIC33F\inc/p33FJ128GP802.inc:1819   *ABS*:00000005 MI2C1IP1
d:\programfiles\microchip\xc16\v1.11\bin\..\support\dsPIC33F\inc/p33FJ128GP802.inc:1820   *ABS*:00000006 MI2C1IP2
d:\programfiles\microchip\xc16\v1.11\bin\..\support\dsPIC33F\inc/p33FJ128GP802.inc:1821   *ABS*:00000008 CMIP0
d:\programfiles\microchip\xc16\v1.11\bin\..\support\dsPIC33F\inc/p33FJ128GP802.inc:1822   *ABS*:00000009 CMIP1
d:\programfiles\microchip\xc16\v1.11\bin\..\support\dsPIC33F\inc/p33FJ128GP802.inc:1823   *ABS*:0000000a CMIP2
d:\programfiles\microchip\xc16\v1.11\bin\..\support\dsPIC33F\inc/p33FJ128GP802.inc:1824   *ABS*:0000000c CNIP0
d:\programfiles\microchip\xc16\v1.11\bin\..\support\dsPIC33F\inc/p33FJ128GP802.inc:1825   *ABS*:0000000d CNIP1
d:\programfiles\microchip\xc16\v1.11\bin\..\support\dsPIC33F\inc/p33FJ128GP802.inc:1826   *ABS*:0000000e CNIP2
d:\programfiles\microchip\xc16\v1.11\bin\..\support\dsPIC33F\inc/p33FJ128GP802.inc:1830   *ABS*:00000000 INT1IP0
d:\programfiles\microchip\xc16\v1.11\bin\..\support\dsPIC33F\inc/p33FJ128GP802.inc:1831   *ABS*:00000001 INT1IP1
d:\programfiles\microchip\xc16\v1.11\bin\..\support\dsPIC33F\inc/p33FJ128GP802.inc:1832   *ABS*:00000002 INT1IP2
d:\programfiles\microchip\xc16\v1.11\bin\..\support\dsPIC33F\inc/p33FJ128GP802.inc:1833   *ABS*:00000008 IC7IP0
d:\programfiles\microchip\xc16\v1.11\bin\..\support\dsPIC33F\inc/p33FJ128GP802.inc:1834   *ABS*:00000009 IC7IP1
d:\programfiles\microchip\xc16\v1.11\bin\..\support\dsPIC33F\inc/p33FJ128GP802.inc:1835   *ABS*:0000000a IC7IP2
d:\programfiles\microchip\xc16\v1.11\bin\..\support\dsPIC33F\inc/p33FJ128GP802.inc:1836   *ABS*:0000000c IC8IP0
d:\programfiles\microchip\xc16\v1.11\bin\..\support\dsPIC33F\inc/p33FJ128GP802.inc:1837   *ABS*:0000000d IC8IP1
d:\programfiles\microchip\xc16\v1.11\bin\..\support\dsPIC33F\inc/p33FJ128GP802.inc:1838   *ABS*:0000000e IC8IP2
d:\programfiles\microchip\xc16\v1.11\bin\..\support\dsPIC33F\inc/p33FJ128GP802.inc:1842   *ABS*:00000000 DMA2IP0
d:\programfiles\microchip\xc16\v1.11\bin\..\support\dsPIC33F\inc/p33FJ128GP802.inc:1843   *ABS*:00000001 DMA2IP1
d:\programfiles\microchip\xc16\v1.11\bin\..\support\dsPIC33F\inc/p33FJ128GP802.inc:1844   *ABS*:00000002 DMA2IP2
d:\programfiles\microchip\xc16\v1.11\bin\..\support\dsPIC33F\inc/p33FJ128GP802.inc:1845   *ABS*:00000004 OC3IP0
d:\programfiles\microchip\xc16\v1.11\bin\..\support\dsPIC33F\inc/p33FJ128GP802.inc:1846   *ABS*:00000005 OC3IP1
d:\programfiles\microchip\xc16\v1.11\bin\..\support\dsPIC33F\inc/p33FJ128GP802.inc:1847   *ABS*:00000006 OC3IP2
d:\programfiles\microchip\xc16\v1.11\bin\..\support\dsPIC33F\inc/p33FJ128GP802.inc:1848   *ABS*:00000008 OC4IP0
d:\programfiles\microchip\xc16\v1.11\bin\..\support\dsPIC33F\inc/p33FJ128GP802.inc:1849   *ABS*:00000009 OC4IP1
d:\programfiles\microchip\xc16\v1.11\bin\..\support\dsPIC33F\inc/p33FJ128GP802.inc:1850   *ABS*:0000000a OC4IP2
d:\programfiles\microchip\xc16\v1.11\bin\..\support\dsPIC33F\inc/p33FJ128GP802.inc:1851   *ABS*:0000000c T4IP0
d:\programfiles\microchip\xc16\v1.11\bin\..\support\dsPIC33F\inc/p33FJ128GP802.inc:1852   *ABS*:0000000d T4IP1
d:\programfiles\microchip\xc16\v1.11\bin\..\support\dsPIC33F\inc/p33FJ128GP802.inc:1853   *ABS*:0000000e T4IP2
d:\programfiles\microchip\xc16\v1.11\bin\..\support\dsPIC33F\inc/p33FJ128GP802.inc:1857   *ABS*:00000000 T5IP0
d:\programfiles\microchip\xc16\v1.11\bin\..\support\dsPIC33F\inc/p33FJ128GP802.inc:1858   *ABS*:00000001 T5IP1
d:\programfiles\microchip\xc16\v1.11\bin\..\support\dsPIC33F\inc/p33FJ128GP802.inc:1859   *ABS*:00000002 T5IP2
d:\programfiles\microchip\xc16\v1.11\bin\..\support\dsPIC33F\inc/p33FJ128GP802.inc:1860   *ABS*:00000004 INT2IP0
d:\programfiles\microchip\xc16\v1.11\bin\..\support\dsPIC33F\inc/p33FJ128GP802.inc:1861   *ABS*:00000005 INT2IP1
d:\programfiles\microchip\xc16\v1.11\bin\..\support\dsPIC33F\inc/p33FJ128GP802.inc:1862   *ABS*:00000006 INT2IP2
d:\programfiles\microchip\xc16\v1.11\bin\..\support\dsPIC33F\inc/p33FJ128GP802.inc:1863   *ABS*:00000008 U2RXIP0
d:\programfiles\microchip\xc16\v1.11\bin\..\support\dsPIC33F\inc/p33FJ128GP802.inc:1864   *ABS*:00000009 U2RXIP1
d:\programfiles\microchip\xc16\v1.11\bin\..\support\dsPIC33F\inc/p33FJ128GP802.inc:1865   *ABS*:0000000a U2RXIP2
d:\programfiles\microchip\xc16\v1.11\bin\..\support\dsPIC33F\inc/p33FJ128GP802.inc:1866   *ABS*:0000000c U2TXIP0
d:\programfiles\microchip\xc16\v1.11\bin\..\support\dsPIC33F\inc/p33FJ128GP802.inc:1867   *ABS*:0000000d U2TXIP1
d:\programfiles\microchip\xc16\v1.11\bin\..\support\dsPIC33F\inc/p33FJ128GP802.inc:1868   *ABS*:0000000e U2TXIP2
d:\programfiles\microchip\xc16\v1.11\bin\..\support\dsPIC33F\inc/p33FJ128GP802.inc:1872   *ABS*:00000000 SPI2EIP0
d:\programfiles\microchip\xc16\v1.11\bin\..\support\dsPIC33F\inc/p33FJ128GP802.inc:1873   *ABS*:00000001 SPI2EIP1
d:\programfiles\microchip\xc16\v1.11\bin\..\support\dsPIC33F\inc/p33FJ128GP802.inc:1874   *ABS*:00000002 SPI2EIP2
d:\programfiles\microchip\xc16\v1.11\bin\..\support\dsPIC33F\inc/p33FJ128GP802.inc:1875   *ABS*:00000004 SPI2IP0
d:\programfiles\microchip\xc16\v1.11\bin\..\support\dsPIC33F\inc/p33FJ128GP802.inc:1876   *ABS*:00000005 SPI2IP1
d:\programfiles\microchip\xc16\v1.11\bin\..\support\dsPIC33F\inc/p33FJ128GP802.inc:1877   *ABS*:00000006 SPI2IP2
d:\programfiles\microchip\xc16\v1.11\bin\..\support\dsPIC33F\inc/p33FJ128GP802.inc:1878   *ABS*:00000008 C1RXIP0
d:\programfiles\microchip\xc16\v1.11\bin\..\support\dsPIC33F\inc/p33FJ128GP802.inc:1879   *ABS*:00000009 C1RXIP1
d:\programfiles\microchip\xc16\v1.11\bin\..\support\dsPIC33F\inc/p33FJ128GP802.inc:1880   *ABS*:0000000a C1RXIP2
d:\programfiles\microchip\xc16\v1.11\bin\..\support\dsPIC33F\inc/p33FJ128GP802.inc:1881   *ABS*:0000000c C1IP0
d:\programfiles\microchip\xc16\v1.11\bin\..\support\dsPIC33F\inc/p33FJ128GP802.inc:1882   *ABS*:0000000d C1IP1
d:\programfiles\microchip\xc16\v1.11\bin\..\support\dsPIC33F\inc/p33FJ128GP802.inc:1883   *ABS*:0000000e C1IP2
d:\programfiles\microchip\xc16\v1.11\bin\..\support\dsPIC33F\inc/p33FJ128GP802.inc:1887   *ABS*:00000000 DMA3IP0
d:\programfiles\microchip\xc16\v1.11\bin\..\support\dsPIC33F\inc/p33FJ128GP802.inc:1888   *ABS*:00000001 DMA3IP1
d:\programfiles\microchip\xc16\v1.11\bin\..\support\dsPIC33F\inc/p33FJ128GP802.inc:1889   *ABS*:00000002 DMA3IP2
d:\programfiles\microchip\xc16\v1.11\bin\..\support\dsPIC33F\inc/p33FJ128GP802.inc:1893   *ABS*:00000004 PMPIP0
MPLAB ASM30 Listing:  ../src/ff-pic24-30-33.s 			page 157


d:\programfiles\microchip\xc16\v1.11\bin\..\support\dsPIC33F\inc/p33FJ128GP802.inc:1894   *ABS*:00000005 PMPIP1
d:\programfiles\microchip\xc16\v1.11\bin\..\support\dsPIC33F\inc/p33FJ128GP802.inc:1895   *ABS*:00000006 PMPIP2
d:\programfiles\microchip\xc16\v1.11\bin\..\support\dsPIC33F\inc/p33FJ128GP802.inc:1896   *ABS*:00000008 DMA4IP0
d:\programfiles\microchip\xc16\v1.11\bin\..\support\dsPIC33F\inc/p33FJ128GP802.inc:1897   *ABS*:00000009 DMA4IP1
d:\programfiles\microchip\xc16\v1.11\bin\..\support\dsPIC33F\inc/p33FJ128GP802.inc:1898   *ABS*:0000000a DMA4IP2
d:\programfiles\microchip\xc16\v1.11\bin\..\support\dsPIC33F\inc/p33FJ128GP802.inc:1902   *ABS*:0000000c DCIEIP0
d:\programfiles\microchip\xc16\v1.11\bin\..\support\dsPIC33F\inc/p33FJ128GP802.inc:1903   *ABS*:0000000d DCIEIP1
d:\programfiles\microchip\xc16\v1.11\bin\..\support\dsPIC33F\inc/p33FJ128GP802.inc:1904   *ABS*:0000000e DCIEIP2
d:\programfiles\microchip\xc16\v1.11\bin\..\support\dsPIC33F\inc/p33FJ128GP802.inc:1908   *ABS*:00000000 DCIIP0
d:\programfiles\microchip\xc16\v1.11\bin\..\support\dsPIC33F\inc/p33FJ128GP802.inc:1909   *ABS*:00000001 DCIIP1
d:\programfiles\microchip\xc16\v1.11\bin\..\support\dsPIC33F\inc/p33FJ128GP802.inc:1910   *ABS*:00000002 DCIIP2
d:\programfiles\microchip\xc16\v1.11\bin\..\support\dsPIC33F\inc/p33FJ128GP802.inc:1911   *ABS*:00000004 DMA5IP0
d:\programfiles\microchip\xc16\v1.11\bin\..\support\dsPIC33F\inc/p33FJ128GP802.inc:1912   *ABS*:00000005 DMA5IP1
d:\programfiles\microchip\xc16\v1.11\bin\..\support\dsPIC33F\inc/p33FJ128GP802.inc:1913   *ABS*:00000006 DMA5IP2
d:\programfiles\microchip\xc16\v1.11\bin\..\support\dsPIC33F\inc/p33FJ128GP802.inc:1914   *ABS*:00000008 RTCIP0
d:\programfiles\microchip\xc16\v1.11\bin\..\support\dsPIC33F\inc/p33FJ128GP802.inc:1915   *ABS*:00000009 RTCIP1
d:\programfiles\microchip\xc16\v1.11\bin\..\support\dsPIC33F\inc/p33FJ128GP802.inc:1916   *ABS*:0000000a RTCIP2
d:\programfiles\microchip\xc16\v1.11\bin\..\support\dsPIC33F\inc/p33FJ128GP802.inc:1920   *ABS*:00000004 U1EIP0
d:\programfiles\microchip\xc16\v1.11\bin\..\support\dsPIC33F\inc/p33FJ128GP802.inc:1921   *ABS*:00000005 U1EIP1
d:\programfiles\microchip\xc16\v1.11\bin\..\support\dsPIC33F\inc/p33FJ128GP802.inc:1922   *ABS*:00000006 U1EIP2
d:\programfiles\microchip\xc16\v1.11\bin\..\support\dsPIC33F\inc/p33FJ128GP802.inc:1923   *ABS*:00000008 U2EIP0
d:\programfiles\microchip\xc16\v1.11\bin\..\support\dsPIC33F\inc/p33FJ128GP802.inc:1924   *ABS*:00000009 U2EIP1
d:\programfiles\microchip\xc16\v1.11\bin\..\support\dsPIC33F\inc/p33FJ128GP802.inc:1925   *ABS*:0000000a U2EIP2
d:\programfiles\microchip\xc16\v1.11\bin\..\support\dsPIC33F\inc/p33FJ128GP802.inc:1926   *ABS*:0000000c CRCIP0
d:\programfiles\microchip\xc16\v1.11\bin\..\support\dsPIC33F\inc/p33FJ128GP802.inc:1927   *ABS*:0000000d CRCIP1
d:\programfiles\microchip\xc16\v1.11\bin\..\support\dsPIC33F\inc/p33FJ128GP802.inc:1928   *ABS*:0000000e CRCIP2
d:\programfiles\microchip\xc16\v1.11\bin\..\support\dsPIC33F\inc/p33FJ128GP802.inc:1932   *ABS*:00000000 DMA6IP0
d:\programfiles\microchip\xc16\v1.11\bin\..\support\dsPIC33F\inc/p33FJ128GP802.inc:1933   *ABS*:00000001 DMA6IP1
d:\programfiles\microchip\xc16\v1.11\bin\..\support\dsPIC33F\inc/p33FJ128GP802.inc:1934   *ABS*:00000002 DMA6IP2
d:\programfiles\microchip\xc16\v1.11\bin\..\support\dsPIC33F\inc/p33FJ128GP802.inc:1935   *ABS*:00000004 DMA7IP0
d:\programfiles\microchip\xc16\v1.11\bin\..\support\dsPIC33F\inc/p33FJ128GP802.inc:1936   *ABS*:00000005 DMA7IP1
d:\programfiles\microchip\xc16\v1.11\bin\..\support\dsPIC33F\inc/p33FJ128GP802.inc:1937   *ABS*:00000006 DMA7IP2
d:\programfiles\microchip\xc16\v1.11\bin\..\support\dsPIC33F\inc/p33FJ128GP802.inc:1938   *ABS*:00000008 C1TXIP0
d:\programfiles\microchip\xc16\v1.11\bin\..\support\dsPIC33F\inc/p33FJ128GP802.inc:1939   *ABS*:00000009 C1TXIP1
d:\programfiles\microchip\xc16\v1.11\bin\..\support\dsPIC33F\inc/p33FJ128GP802.inc:1940   *ABS*:0000000a C1TXIP2
d:\programfiles\microchip\xc16\v1.11\bin\..\support\dsPIC33F\inc/p33FJ128GP802.inc:1944   *ABS*:00000008 DAC1RIP0
d:\programfiles\microchip\xc16\v1.11\bin\..\support\dsPIC33F\inc/p33FJ128GP802.inc:1945   *ABS*:00000009 DAC1RIP1
d:\programfiles\microchip\xc16\v1.11\bin\..\support\dsPIC33F\inc/p33FJ128GP802.inc:1946   *ABS*:0000000a DAC1RIP2
d:\programfiles\microchip\xc16\v1.11\bin\..\support\dsPIC33F\inc/p33FJ128GP802.inc:1947   *ABS*:0000000c DAC1LIP0
d:\programfiles\microchip\xc16\v1.11\bin\..\support\dsPIC33F\inc/p33FJ128GP802.inc:1948   *ABS*:0000000d DAC1LIP1
d:\programfiles\microchip\xc16\v1.11\bin\..\support\dsPIC33F\inc/p33FJ128GP802.inc:1949   *ABS*:0000000e DAC1LIP2
d:\programfiles\microchip\xc16\v1.11\bin\..\support\dsPIC33F\inc/p33FJ128GP802.inc:1953   *ABS*:00000000 VECNUM0
d:\programfiles\microchip\xc16\v1.11\bin\..\support\dsPIC33F\inc/p33FJ128GP802.inc:1954   *ABS*:00000001 VECNUM1
d:\programfiles\microchip\xc16\v1.11\bin\..\support\dsPIC33F\inc/p33FJ128GP802.inc:1955   *ABS*:00000002 VECNUM2
d:\programfiles\microchip\xc16\v1.11\bin\..\support\dsPIC33F\inc/p33FJ128GP802.inc:1956   *ABS*:00000003 VECNUM3
d:\programfiles\microchip\xc16\v1.11\bin\..\support\dsPIC33F\inc/p33FJ128GP802.inc:1957   *ABS*:00000004 VECNUM4
d:\programfiles\microchip\xc16\v1.11\bin\..\support\dsPIC33F\inc/p33FJ128GP802.inc:1958   *ABS*:00000005 VECNUM5
d:\programfiles\microchip\xc16\v1.11\bin\..\support\dsPIC33F\inc/p33FJ128GP802.inc:1959   *ABS*:00000006 VECNUM6
d:\programfiles\microchip\xc16\v1.11\bin\..\support\dsPIC33F\inc/p33FJ128GP802.inc:1960   *ABS*:00000008 ILR0
d:\programfiles\microchip\xc16\v1.11\bin\..\support\dsPIC33F\inc/p33FJ128GP802.inc:1961   *ABS*:00000009 ILR1
d:\programfiles\microchip\xc16\v1.11\bin\..\support\dsPIC33F\inc/p33FJ128GP802.inc:1962   *ABS*:0000000a ILR2
d:\programfiles\microchip\xc16\v1.11\bin\..\support\dsPIC33F\inc/p33FJ128GP802.inc:1963   *ABS*:0000000b ILR3
d:\programfiles\microchip\xc16\v1.11\bin\..\support\dsPIC33F\inc/p33FJ128GP802.inc:1967   *ABS*:00000001 TCS
d:\programfiles\microchip\xc16\v1.11\bin\..\support\dsPIC33F\inc/p33FJ128GP802.inc:1968   *ABS*:00000002 TSYNC
d:\programfiles\microchip\xc16\v1.11\bin\..\support\dsPIC33F\inc/p33FJ128GP802.inc:1969   *ABS*:00000006 TGATE
d:\programfiles\microchip\xc16\v1.11\bin\..\support\dsPIC33F\inc/p33FJ128GP802.inc:1970   *ABS*:0000000d TSIDL
d:\programfiles\microchip\xc16\v1.11\bin\..\support\dsPIC33F\inc/p33FJ128GP802.inc:1971   *ABS*:0000000f TON
MPLAB ASM30 Listing:  ../src/ff-pic24-30-33.s 			page 158


d:\programfiles\microchip\xc16\v1.11\bin\..\support\dsPIC33F\inc/p33FJ128GP802.inc:1973   *ABS*:00000004 TCKPS0
d:\programfiles\microchip\xc16\v1.11\bin\..\support\dsPIC33F\inc/p33FJ128GP802.inc:1974   *ABS*:00000005 TCKPS1
d:\programfiles\microchip\xc16\v1.11\bin\..\support\dsPIC33F\inc/p33FJ128GP802.inc:1979   *ABS*:00000003 T32
d:\programfiles\microchip\xc16\v1.11\bin\..\support\dsPIC33F\inc/p33FJ128GP802.inc:2020   *ABS*:00000003 ICBNE
d:\programfiles\microchip\xc16\v1.11\bin\..\support\dsPIC33F\inc/p33FJ128GP802.inc:2021   *ABS*:00000004 ICOV
d:\programfiles\microchip\xc16\v1.11\bin\..\support\dsPIC33F\inc/p33FJ128GP802.inc:2022   *ABS*:00000007 ICTMR
d:\programfiles\microchip\xc16\v1.11\bin\..\support\dsPIC33F\inc/p33FJ128GP802.inc:2023   *ABS*:0000000d ICSIDL
d:\programfiles\microchip\xc16\v1.11\bin\..\support\dsPIC33F\inc/p33FJ128GP802.inc:2025   *ABS*:00000000 ICM0
d:\programfiles\microchip\xc16\v1.11\bin\..\support\dsPIC33F\inc/p33FJ128GP802.inc:2026   *ABS*:00000001 ICM1
d:\programfiles\microchip\xc16\v1.11\bin\..\support\dsPIC33F\inc/p33FJ128GP802.inc:2027   *ABS*:00000002 ICM2
d:\programfiles\microchip\xc16\v1.11\bin\..\support\dsPIC33F\inc/p33FJ128GP802.inc:2028   *ABS*:00000005 ICI0
d:\programfiles\microchip\xc16\v1.11\bin\..\support\dsPIC33F\inc/p33FJ128GP802.inc:2029   *ABS*:00000006 ICI1
d:\programfiles\microchip\xc16\v1.11\bin\..\support\dsPIC33F\inc/p33FJ128GP802.inc:2072   *ABS*:00000003 OCTSEL
d:\programfiles\microchip\xc16\v1.11\bin\..\support\dsPIC33F\inc/p33FJ128GP802.inc:2073   *ABS*:00000004 OCFLT
d:\programfiles\microchip\xc16\v1.11\bin\..\support\dsPIC33F\inc/p33FJ128GP802.inc:2074   *ABS*:0000000d OCSIDL
d:\programfiles\microchip\xc16\v1.11\bin\..\support\dsPIC33F\inc/p33FJ128GP802.inc:2076   *ABS*:00000000 OCM0
d:\programfiles\microchip\xc16\v1.11\bin\..\support\dsPIC33F\inc/p33FJ128GP802.inc:2077   *ABS*:00000001 OCM1
d:\programfiles\microchip\xc16\v1.11\bin\..\support\dsPIC33F\inc/p33FJ128GP802.inc:2078   *ABS*:00000002 OCM2
d:\programfiles\microchip\xc16\v1.11\bin\..\support\dsPIC33F\inc/p33FJ128GP802.inc:2112   *ABS*:00000000 SEN
d:\programfiles\microchip\xc16\v1.11\bin\..\support\dsPIC33F\inc/p33FJ128GP802.inc:2113   *ABS*:00000001 RSEN
d:\programfiles\microchip\xc16\v1.11\bin\..\support\dsPIC33F\inc/p33FJ128GP802.inc:2114   *ABS*:00000002 PEN
d:\programfiles\microchip\xc16\v1.11\bin\..\support\dsPIC33F\inc/p33FJ128GP802.inc:2115   *ABS*:00000003 RCEN
d:\programfiles\microchip\xc16\v1.11\bin\..\support\dsPIC33F\inc/p33FJ128GP802.inc:2116   *ABS*:00000004 ACKEN
d:\programfiles\microchip\xc16\v1.11\bin\..\support\dsPIC33F\inc/p33FJ128GP802.inc:2117   *ABS*:00000005 ACKDT
d:\programfiles\microchip\xc16\v1.11\bin\..\support\dsPIC33F\inc/p33FJ128GP802.inc:2118   *ABS*:00000006 STREN
d:\programfiles\microchip\xc16\v1.11\bin\..\support\dsPIC33F\inc/p33FJ128GP802.inc:2119   *ABS*:00000007 GCEN
d:\programfiles\microchip\xc16\v1.11\bin\..\support\dsPIC33F\inc/p33FJ128GP802.inc:2120   *ABS*:00000008 SMEN
d:\programfiles\microchip\xc16\v1.11\bin\..\support\dsPIC33F\inc/p33FJ128GP802.inc:2121   *ABS*:00000009 DISSLW
d:\programfiles\microchip\xc16\v1.11\bin\..\support\dsPIC33F\inc/p33FJ128GP802.inc:2122   *ABS*:0000000a A10M
d:\programfiles\microchip\xc16\v1.11\bin\..\support\dsPIC33F\inc/p33FJ128GP802.inc:2123   *ABS*:0000000b IPMIEN
d:\programfiles\microchip\xc16\v1.11\bin\..\support\dsPIC33F\inc/p33FJ128GP802.inc:2124   *ABS*:0000000c SCLREL
d:\programfiles\microchip\xc16\v1.11\bin\..\support\dsPIC33F\inc/p33FJ128GP802.inc:2125   *ABS*:0000000d I2CSIDL
d:\programfiles\microchip\xc16\v1.11\bin\..\support\dsPIC33F\inc/p33FJ128GP802.inc:2126   *ABS*:0000000f I2CEN
d:\programfiles\microchip\xc16\v1.11\bin\..\support\dsPIC33F\inc/p33FJ128GP802.inc:2148   *ABS*:00000000 TBF
d:\programfiles\microchip\xc16\v1.11\bin\..\support\dsPIC33F\inc/p33FJ128GP802.inc:2149   *ABS*:00000001 RBF
d:\programfiles\microchip\xc16\v1.11\bin\..\support\dsPIC33F\inc/p33FJ128GP802.inc:2150   *ABS*:00000002 R_W
d:\programfiles\microchip\xc16\v1.11\bin\..\support\dsPIC33F\inc/p33FJ128GP802.inc:2151   *ABS*:00000003 S
d:\programfiles\microchip\xc16\v1.11\bin\..\support\dsPIC33F\inc/p33FJ128GP802.inc:2152   *ABS*:00000004 P
d:\programfiles\microchip\xc16\v1.11\bin\..\support\dsPIC33F\inc/p33FJ128GP802.inc:2153   *ABS*:00000005 D_A
d:\programfiles\microchip\xc16\v1.11\bin\..\support\dsPIC33F\inc/p33FJ128GP802.inc:2154   *ABS*:00000006 I2COV
d:\programfiles\microchip\xc16\v1.11\bin\..\support\dsPIC33F\inc/p33FJ128GP802.inc:2155   *ABS*:00000007 IWCOL
d:\programfiles\microchip\xc16\v1.11\bin\..\support\dsPIC33F\inc/p33FJ128GP802.inc:2156   *ABS*:00000008 ADD10
d:\programfiles\microchip\xc16\v1.11\bin\..\support\dsPIC33F\inc/p33FJ128GP802.inc:2157   *ABS*:00000009 GCSTAT
d:\programfiles\microchip\xc16\v1.11\bin\..\support\dsPIC33F\inc/p33FJ128GP802.inc:2158   *ABS*:0000000a BCL
d:\programfiles\microchip\xc16\v1.11\bin\..\support\dsPIC33F\inc/p33FJ128GP802.inc:2159   *ABS*:0000000e TRSTAT
d:\programfiles\microchip\xc16\v1.11\bin\..\support\dsPIC33F\inc/p33FJ128GP802.inc:2160   *ABS*:0000000f ACKSTAT
d:\programfiles\microchip\xc16\v1.11\bin\..\support\dsPIC33F\inc/p33FJ128GP802.inc:2180   *ABS*:00000000 STSEL
d:\programfiles\microchip\xc16\v1.11\bin\..\support\dsPIC33F\inc/p33FJ128GP802.inc:2181   *ABS*:00000003 BRGH
d:\programfiles\microchip\xc16\v1.11\bin\..\support\dsPIC33F\inc/p33FJ128GP802.inc:2182   *ABS*:00000004 URXINV
d:\programfiles\microchip\xc16\v1.11\bin\..\support\dsPIC33F\inc/p33FJ128GP802.inc:2183   *ABS*:00000005 ABAUD
d:\programfiles\microchip\xc16\v1.11\bin\..\support\dsPIC33F\inc/p33FJ128GP802.inc:2184   *ABS*:00000006 LPBACK
d:\programfiles\microchip\xc16\v1.11\bin\..\support\dsPIC33F\inc/p33FJ128GP802.inc:2185   *ABS*:00000007 WAKE
d:\programfiles\microchip\xc16\v1.11\bin\..\support\dsPIC33F\inc/p33FJ128GP802.inc:2186   *ABS*:0000000b RTSMD
d:\programfiles\microchip\xc16\v1.11\bin\..\support\dsPIC33F\inc/p33FJ128GP802.inc:2187   *ABS*:0000000c IREN
d:\programfiles\microchip\xc16\v1.11\bin\..\support\dsPIC33F\inc/p33FJ128GP802.inc:2188   *ABS*:0000000d USIDL
d:\programfiles\microchip\xc16\v1.11\bin\..\support\dsPIC33F\inc/p33FJ128GP802.inc:2189   *ABS*:0000000f UARTEN
d:\programfiles\microchip\xc16\v1.11\bin\..\support\dsPIC33F\inc/p33FJ128GP802.inc:2191   *ABS*:00000001 PDSEL0
MPLAB ASM30 Listing:  ../src/ff-pic24-30-33.s 			page 159


d:\programfiles\microchip\xc16\v1.11\bin\..\support\dsPIC33F\inc/p33FJ128GP802.inc:2192   *ABS*:00000002 PDSEL1
d:\programfiles\microchip\xc16\v1.11\bin\..\support\dsPIC33F\inc/p33FJ128GP802.inc:2193   *ABS*:00000008 UEN0
d:\programfiles\microchip\xc16\v1.11\bin\..\support\dsPIC33F\inc/p33FJ128GP802.inc:2194   *ABS*:00000009 UEN1
d:\programfiles\microchip\xc16\v1.11\bin\..\support\dsPIC33F\inc/p33FJ128GP802.inc:2198   *ABS*:00000000 URXDA
d:\programfiles\microchip\xc16\v1.11\bin\..\support\dsPIC33F\inc/p33FJ128GP802.inc:2199   *ABS*:00000001 OERR
d:\programfiles\microchip\xc16\v1.11\bin\..\support\dsPIC33F\inc/p33FJ128GP802.inc:2200   *ABS*:00000002 FERR
d:\programfiles\microchip\xc16\v1.11\bin\..\support\dsPIC33F\inc/p33FJ128GP802.inc:2201   *ABS*:00000003 PERR
d:\programfiles\microchip\xc16\v1.11\bin\..\support\dsPIC33F\inc/p33FJ128GP802.inc:2202   *ABS*:00000004 RIDLE
d:\programfiles\microchip\xc16\v1.11\bin\..\support\dsPIC33F\inc/p33FJ128GP802.inc:2203   *ABS*:00000005 ADDEN
d:\programfiles\microchip\xc16\v1.11\bin\..\support\dsPIC33F\inc/p33FJ128GP802.inc:2204   *ABS*:00000008 TRMT
d:\programfiles\microchip\xc16\v1.11\bin\..\support\dsPIC33F\inc/p33FJ128GP802.inc:2205   *ABS*:00000009 UTXBF
d:\programfiles\microchip\xc16\v1.11\bin\..\support\dsPIC33F\inc/p33FJ128GP802.inc:2206   *ABS*:0000000a UTXEN
d:\programfiles\microchip\xc16\v1.11\bin\..\support\dsPIC33F\inc/p33FJ128GP802.inc:2207   *ABS*:0000000b UTXBRK
d:\programfiles\microchip\xc16\v1.11\bin\..\support\dsPIC33F\inc/p33FJ128GP802.inc:2208   *ABS*:0000000d UTXISEL0
d:\programfiles\microchip\xc16\v1.11\bin\..\support\dsPIC33F\inc/p33FJ128GP802.inc:2209   *ABS*:0000000e UTXINV
d:\programfiles\microchip\xc16\v1.11\bin\..\support\dsPIC33F\inc/p33FJ128GP802.inc:2210   *ABS*:0000000f UTXISEL1
d:\programfiles\microchip\xc16\v1.11\bin\..\support\dsPIC33F\inc/p33FJ128GP802.inc:2212   *ABS*:00000006 URXISEL0
d:\programfiles\microchip\xc16\v1.11\bin\..\support\dsPIC33F\inc/p33FJ128GP802.inc:2213   *ABS*:00000007 URXISEL1
d:\programfiles\microchip\xc16\v1.11\bin\..\support\dsPIC33F\inc/p33FJ128GP802.inc:2217   *ABS*:00000000 UTXREG0
d:\programfiles\microchip\xc16\v1.11\bin\..\support\dsPIC33F\inc/p33FJ128GP802.inc:2218   *ABS*:00000001 UTXREG1
d:\programfiles\microchip\xc16\v1.11\bin\..\support\dsPIC33F\inc/p33FJ128GP802.inc:2219   *ABS*:00000002 UTXREG2
d:\programfiles\microchip\xc16\v1.11\bin\..\support\dsPIC33F\inc/p33FJ128GP802.inc:2220   *ABS*:00000003 UTXREG3
d:\programfiles\microchip\xc16\v1.11\bin\..\support\dsPIC33F\inc/p33FJ128GP802.inc:2221   *ABS*:00000004 UTXREG4
d:\programfiles\microchip\xc16\v1.11\bin\..\support\dsPIC33F\inc/p33FJ128GP802.inc:2222   *ABS*:00000005 UTXREG5
d:\programfiles\microchip\xc16\v1.11\bin\..\support\dsPIC33F\inc/p33FJ128GP802.inc:2223   *ABS*:00000006 UTXREG6
d:\programfiles\microchip\xc16\v1.11\bin\..\support\dsPIC33F\inc/p33FJ128GP802.inc:2224   *ABS*:00000007 UTXREG7
d:\programfiles\microchip\xc16\v1.11\bin\..\support\dsPIC33F\inc/p33FJ128GP802.inc:2225   *ABS*:00000008 UTXREG8
d:\programfiles\microchip\xc16\v1.11\bin\..\support\dsPIC33F\inc/p33FJ128GP802.inc:2229   *ABS*:00000000 URXREG0
d:\programfiles\microchip\xc16\v1.11\bin\..\support\dsPIC33F\inc/p33FJ128GP802.inc:2230   *ABS*:00000001 URXREG1
d:\programfiles\microchip\xc16\v1.11\bin\..\support\dsPIC33F\inc/p33FJ128GP802.inc:2231   *ABS*:00000002 URXREG2
d:\programfiles\microchip\xc16\v1.11\bin\..\support\dsPIC33F\inc/p33FJ128GP802.inc:2232   *ABS*:00000003 URXREG3
d:\programfiles\microchip\xc16\v1.11\bin\..\support\dsPIC33F\inc/p33FJ128GP802.inc:2233   *ABS*:00000004 URXREG4
d:\programfiles\microchip\xc16\v1.11\bin\..\support\dsPIC33F\inc/p33FJ128GP802.inc:2234   *ABS*:00000005 URXREG5
d:\programfiles\microchip\xc16\v1.11\bin\..\support\dsPIC33F\inc/p33FJ128GP802.inc:2235   *ABS*:00000006 URXREG6
d:\programfiles\microchip\xc16\v1.11\bin\..\support\dsPIC33F\inc/p33FJ128GP802.inc:2236   *ABS*:00000007 URXREG7
d:\programfiles\microchip\xc16\v1.11\bin\..\support\dsPIC33F\inc/p33FJ128GP802.inc:2237   *ABS*:00000008 URXREG8
d:\programfiles\microchip\xc16\v1.11\bin\..\support\dsPIC33F\inc/p33FJ128GP802.inc:2302   *ABS*:00000000 SPIRBF
d:\programfiles\microchip\xc16\v1.11\bin\..\support\dsPIC33F\inc/p33FJ128GP802.inc:2303   *ABS*:00000001 SPITBF
d:\programfiles\microchip\xc16\v1.11\bin\..\support\dsPIC33F\inc/p33FJ128GP802.inc:2304   *ABS*:00000006 SPIROV
d:\programfiles\microchip\xc16\v1.11\bin\..\support\dsPIC33F\inc/p33FJ128GP802.inc:2305   *ABS*:0000000d SPISIDL
d:\programfiles\microchip\xc16\v1.11\bin\..\support\dsPIC33F\inc/p33FJ128GP802.inc:2306   *ABS*:0000000f SPIEN
d:\programfiles\microchip\xc16\v1.11\bin\..\support\dsPIC33F\inc/p33FJ128GP802.inc:2310   *ABS*:00000005 MSTEN
d:\programfiles\microchip\xc16\v1.11\bin\..\support\dsPIC33F\inc/p33FJ128GP802.inc:2311   *ABS*:00000006 CKP
d:\programfiles\microchip\xc16\v1.11\bin\..\support\dsPIC33F\inc/p33FJ128GP802.inc:2312   *ABS*:00000007 SSEN
d:\programfiles\microchip\xc16\v1.11\bin\..\support\dsPIC33F\inc/p33FJ128GP802.inc:2313   *ABS*:00000008 CKE
d:\programfiles\microchip\xc16\v1.11\bin\..\support\dsPIC33F\inc/p33FJ128GP802.inc:2314   *ABS*:00000009 SMP
d:\programfiles\microchip\xc16\v1.11\bin\..\support\dsPIC33F\inc/p33FJ128GP802.inc:2315   *ABS*:0000000a MODE16
d:\programfiles\microchip\xc16\v1.11\bin\..\support\dsPIC33F\inc/p33FJ128GP802.inc:2316   *ABS*:0000000b DISSDO
d:\programfiles\microchip\xc16\v1.11\bin\..\support\dsPIC33F\inc/p33FJ128GP802.inc:2317   *ABS*:0000000c DISSCK
d:\programfiles\microchip\xc16\v1.11\bin\..\support\dsPIC33F\inc/p33FJ128GP802.inc:2319   *ABS*:00000000 PPRE0
d:\programfiles\microchip\xc16\v1.11\bin\..\support\dsPIC33F\inc/p33FJ128GP802.inc:2320   *ABS*:00000001 PPRE1
d:\programfiles\microchip\xc16\v1.11\bin\..\support\dsPIC33F\inc/p33FJ128GP802.inc:2321   *ABS*:00000002 SPRE0
d:\programfiles\microchip\xc16\v1.11\bin\..\support\dsPIC33F\inc/p33FJ128GP802.inc:2322   *ABS*:00000003 SPRE1
d:\programfiles\microchip\xc16\v1.11\bin\..\support\dsPIC33F\inc/p33FJ128GP802.inc:2323   *ABS*:00000004 SPRE2
d:\programfiles\microchip\xc16\v1.11\bin\..\support\dsPIC33F\inc/p33FJ128GP802.inc:2327   *ABS*:00000001 FRMDLY
d:\programfiles\microchip\xc16\v1.11\bin\..\support\dsPIC33F\inc/p33FJ128GP802.inc:2328   *ABS*:0000000d FRMPOL
d:\programfiles\microchip\xc16\v1.11\bin\..\support\dsPIC33F\inc/p33FJ128GP802.inc:2329   *ABS*:0000000e SPIFSD
MPLAB ASM30 Listing:  ../src/ff-pic24-30-33.s 			page 160


d:\programfiles\microchip\xc16\v1.11\bin\..\support\dsPIC33F\inc/p33FJ128GP802.inc:2330   *ABS*:0000000f FRMEN
d:\programfiles\microchip\xc16\v1.11\bin\..\support\dsPIC33F\inc/p33FJ128GP802.inc:2366   *ABS*:00000005 DJST
d:\programfiles\microchip\xc16\v1.11\bin\..\support\dsPIC33F\inc/p33FJ128GP802.inc:2367   *ABS*:00000006 CSDOM
d:\programfiles\microchip\xc16\v1.11\bin\..\support\dsPIC33F\inc/p33FJ128GP802.inc:2368   *ABS*:00000007 UNFM
d:\programfiles\microchip\xc16\v1.11\bin\..\support\dsPIC33F\inc/p33FJ128GP802.inc:2369   *ABS*:00000008 COFSD
d:\programfiles\microchip\xc16\v1.11\bin\..\support\dsPIC33F\inc/p33FJ128GP802.inc:2370   *ABS*:00000009 CSCKE
d:\programfiles\microchip\xc16\v1.11\bin\..\support\dsPIC33F\inc/p33FJ128GP802.inc:2371   *ABS*:0000000a CSCKD
d:\programfiles\microchip\xc16\v1.11\bin\..\support\dsPIC33F\inc/p33FJ128GP802.inc:2372   *ABS*:0000000b DLOOP
d:\programfiles\microchip\xc16\v1.11\bin\..\support\dsPIC33F\inc/p33FJ128GP802.inc:2373   *ABS*:0000000d DCISIDL
d:\programfiles\microchip\xc16\v1.11\bin\..\support\dsPIC33F\inc/p33FJ128GP802.inc:2374   *ABS*:0000000f DCIEN
d:\programfiles\microchip\xc16\v1.11\bin\..\support\dsPIC33F\inc/p33FJ128GP802.inc:2376   *ABS*:00000000 COFSM0
d:\programfiles\microchip\xc16\v1.11\bin\..\support\dsPIC33F\inc/p33FJ128GP802.inc:2377   *ABS*:00000001 COFSM1
d:\programfiles\microchip\xc16\v1.11\bin\..\support\dsPIC33F\inc/p33FJ128GP802.inc:2381   *ABS*:00000000 WS0
d:\programfiles\microchip\xc16\v1.11\bin\..\support\dsPIC33F\inc/p33FJ128GP802.inc:2382   *ABS*:00000001 WS1
d:\programfiles\microchip\xc16\v1.11\bin\..\support\dsPIC33F\inc/p33FJ128GP802.inc:2383   *ABS*:00000002 WS2
d:\programfiles\microchip\xc16\v1.11\bin\..\support\dsPIC33F\inc/p33FJ128GP802.inc:2384   *ABS*:00000003 WS3
d:\programfiles\microchip\xc16\v1.11\bin\..\support\dsPIC33F\inc/p33FJ128GP802.inc:2385   *ABS*:00000005 COFSG0
d:\programfiles\microchip\xc16\v1.11\bin\..\support\dsPIC33F\inc/p33FJ128GP802.inc:2386   *ABS*:00000006 COFSG1
d:\programfiles\microchip\xc16\v1.11\bin\..\support\dsPIC33F\inc/p33FJ128GP802.inc:2387   *ABS*:00000007 COFSG2
d:\programfiles\microchip\xc16\v1.11\bin\..\support\dsPIC33F\inc/p33FJ128GP802.inc:2388   *ABS*:00000008 COFSG3
d:\programfiles\microchip\xc16\v1.11\bin\..\support\dsPIC33F\inc/p33FJ128GP802.inc:2389   *ABS*:0000000a BLEN0
d:\programfiles\microchip\xc16\v1.11\bin\..\support\dsPIC33F\inc/p33FJ128GP802.inc:2390   *ABS*:0000000b BLEN1
d:\programfiles\microchip\xc16\v1.11\bin\..\support\dsPIC33F\inc/p33FJ128GP802.inc:2394   *ABS*:00000000 TMPTY
d:\programfiles\microchip\xc16\v1.11\bin\..\support\dsPIC33F\inc/p33FJ128GP802.inc:2395   *ABS*:00000001 TUNF
d:\programfiles\microchip\xc16\v1.11\bin\..\support\dsPIC33F\inc/p33FJ128GP802.inc:2396   *ABS*:00000002 RFUL
d:\programfiles\microchip\xc16\v1.11\bin\..\support\dsPIC33F\inc/p33FJ128GP802.inc:2397   *ABS*:00000003 ROV
d:\programfiles\microchip\xc16\v1.11\bin\..\support\dsPIC33F\inc/p33FJ128GP802.inc:2399   *ABS*:00000008 SLOT0
d:\programfiles\microchip\xc16\v1.11\bin\..\support\dsPIC33F\inc/p33FJ128GP802.inc:2400   *ABS*:00000009 SLOT1
d:\programfiles\microchip\xc16\v1.11\bin\..\support\dsPIC33F\inc/p33FJ128GP802.inc:2401   *ABS*:0000000a SLOT2
d:\programfiles\microchip\xc16\v1.11\bin\..\support\dsPIC33F\inc/p33FJ128GP802.inc:2402   *ABS*:0000000b SLOT3
d:\programfiles\microchip\xc16\v1.11\bin\..\support\dsPIC33F\inc/p33FJ128GP802.inc:2406   *ABS*:00000000 TSE0
d:\programfiles\microchip\xc16\v1.11\bin\..\support\dsPIC33F\inc/p33FJ128GP802.inc:2407   *ABS*:00000001 TSE1
d:\programfiles\microchip\xc16\v1.11\bin\..\support\dsPIC33F\inc/p33FJ128GP802.inc:2408   *ABS*:00000002 TSE2
d:\programfiles\microchip\xc16\v1.11\bin\..\support\dsPIC33F\inc/p33FJ128GP802.inc:2409   *ABS*:00000003 TSE3
d:\programfiles\microchip\xc16\v1.11\bin\..\support\dsPIC33F\inc/p33FJ128GP802.inc:2410   *ABS*:00000004 TSE4
d:\programfiles\microchip\xc16\v1.11\bin\..\support\dsPIC33F\inc/p33FJ128GP802.inc:2411   *ABS*:00000005 TSE5
d:\programfiles\microchip\xc16\v1.11\bin\..\support\dsPIC33F\inc/p33FJ128GP802.inc:2412   *ABS*:00000006 TSE6
d:\programfiles\microchip\xc16\v1.11\bin\..\support\dsPIC33F\inc/p33FJ128GP802.inc:2413   *ABS*:00000007 TSE7
d:\programfiles\microchip\xc16\v1.11\bin\..\support\dsPIC33F\inc/p33FJ128GP802.inc:2414   *ABS*:00000008 TSE8
d:\programfiles\microchip\xc16\v1.11\bin\..\support\dsPIC33F\inc/p33FJ128GP802.inc:2415   *ABS*:00000009 TSE9
d:\programfiles\microchip\xc16\v1.11\bin\..\support\dsPIC33F\inc/p33FJ128GP802.inc:2416   *ABS*:0000000a TSE10
d:\programfiles\microchip\xc16\v1.11\bin\..\support\dsPIC33F\inc/p33FJ128GP802.inc:2417   *ABS*:0000000b TSE11
d:\programfiles\microchip\xc16\v1.11\bin\..\support\dsPIC33F\inc/p33FJ128GP802.inc:2418   *ABS*:0000000c TSE12
d:\programfiles\microchip\xc16\v1.11\bin\..\support\dsPIC33F\inc/p33FJ128GP802.inc:2419   *ABS*:0000000d TSE13
d:\programfiles\microchip\xc16\v1.11\bin\..\support\dsPIC33F\inc/p33FJ128GP802.inc:2420   *ABS*:0000000e TSE14
d:\programfiles\microchip\xc16\v1.11\bin\..\support\dsPIC33F\inc/p33FJ128GP802.inc:2421   *ABS*:0000000f TSE15
d:\programfiles\microchip\xc16\v1.11\bin\..\support\dsPIC33F\inc/p33FJ128GP802.inc:2425   *ABS*:00000000 RSE0
d:\programfiles\microchip\xc16\v1.11\bin\..\support\dsPIC33F\inc/p33FJ128GP802.inc:2426   *ABS*:00000001 RSE1
d:\programfiles\microchip\xc16\v1.11\bin\..\support\dsPIC33F\inc/p33FJ128GP802.inc:2427   *ABS*:00000002 RSE2
d:\programfiles\microchip\xc16\v1.11\bin\..\support\dsPIC33F\inc/p33FJ128GP802.inc:2428   *ABS*:00000003 RSE3
d:\programfiles\microchip\xc16\v1.11\bin\..\support\dsPIC33F\inc/p33FJ128GP802.inc:2429   *ABS*:00000004 RSE4
d:\programfiles\microchip\xc16\v1.11\bin\..\support\dsPIC33F\inc/p33FJ128GP802.inc:2430   *ABS*:00000005 RSE5
d:\programfiles\microchip\xc16\v1.11\bin\..\support\dsPIC33F\inc/p33FJ128GP802.inc:2431   *ABS*:00000006 RSE6
d:\programfiles\microchip\xc16\v1.11\bin\..\support\dsPIC33F\inc/p33FJ128GP802.inc:2432   *ABS*:00000007 RSE7
d:\programfiles\microchip\xc16\v1.11\bin\..\support\dsPIC33F\inc/p33FJ128GP802.inc:2433   *ABS*:00000008 RSE8
d:\programfiles\microchip\xc16\v1.11\bin\..\support\dsPIC33F\inc/p33FJ128GP802.inc:2434   *ABS*:00000009 RSE9
d:\programfiles\microchip\xc16\v1.11\bin\..\support\dsPIC33F\inc/p33FJ128GP802.inc:2435   *ABS*:0000000a RSE10
MPLAB ASM30 Listing:  ../src/ff-pic24-30-33.s 			page 161


d:\programfiles\microchip\xc16\v1.11\bin\..\support\dsPIC33F\inc/p33FJ128GP802.inc:2436   *ABS*:0000000b RSE11
d:\programfiles\microchip\xc16\v1.11\bin\..\support\dsPIC33F\inc/p33FJ128GP802.inc:2437   *ABS*:0000000c RSE12
d:\programfiles\microchip\xc16\v1.11\bin\..\support\dsPIC33F\inc/p33FJ128GP802.inc:2438   *ABS*:0000000d RSE13
d:\programfiles\microchip\xc16\v1.11\bin\..\support\dsPIC33F\inc/p33FJ128GP802.inc:2439   *ABS*:0000000e RSE14
d:\programfiles\microchip\xc16\v1.11\bin\..\support\dsPIC33F\inc/p33FJ128GP802.inc:2440   *ABS*:0000000f RSE15
d:\programfiles\microchip\xc16\v1.11\bin\..\support\dsPIC33F\inc/p33FJ128GP802.inc:2444   *ABS*:00000000 TRISA0
d:\programfiles\microchip\xc16\v1.11\bin\..\support\dsPIC33F\inc/p33FJ128GP802.inc:2445   *ABS*:00000001 TRISA1
d:\programfiles\microchip\xc16\v1.11\bin\..\support\dsPIC33F\inc/p33FJ128GP802.inc:2446   *ABS*:00000002 TRISA2
d:\programfiles\microchip\xc16\v1.11\bin\..\support\dsPIC33F\inc/p33FJ128GP802.inc:2447   *ABS*:00000003 TRISA3
d:\programfiles\microchip\xc16\v1.11\bin\..\support\dsPIC33F\inc/p33FJ128GP802.inc:2448   *ABS*:00000004 TRISA4
d:\programfiles\microchip\xc16\v1.11\bin\..\support\dsPIC33F\inc/p33FJ128GP802.inc:2452   *ABS*:00000000 RA0
d:\programfiles\microchip\xc16\v1.11\bin\..\support\dsPIC33F\inc/p33FJ128GP802.inc:2453   *ABS*:00000001 RA1
d:\programfiles\microchip\xc16\v1.11\bin\..\support\dsPIC33F\inc/p33FJ128GP802.inc:2454   *ABS*:00000002 RA2
d:\programfiles\microchip\xc16\v1.11\bin\..\support\dsPIC33F\inc/p33FJ128GP802.inc:2455   *ABS*:00000003 RA3
d:\programfiles\microchip\xc16\v1.11\bin\..\support\dsPIC33F\inc/p33FJ128GP802.inc:2456   *ABS*:00000004 RA4
d:\programfiles\microchip\xc16\v1.11\bin\..\support\dsPIC33F\inc/p33FJ128GP802.inc:2460   *ABS*:00000000 LATA0
d:\programfiles\microchip\xc16\v1.11\bin\..\support\dsPIC33F\inc/p33FJ128GP802.inc:2461   *ABS*:00000001 LATA1
d:\programfiles\microchip\xc16\v1.11\bin\..\support\dsPIC33F\inc/p33FJ128GP802.inc:2462   *ABS*:00000002 LATA2
d:\programfiles\microchip\xc16\v1.11\bin\..\support\dsPIC33F\inc/p33FJ128GP802.inc:2463   *ABS*:00000003 LATA3
d:\programfiles\microchip\xc16\v1.11\bin\..\support\dsPIC33F\inc/p33FJ128GP802.inc:2464   *ABS*:00000004 LATA4
d:\programfiles\microchip\xc16\v1.11\bin\..\support\dsPIC33F\inc/p33FJ128GP802.inc:2468   *ABS*:00000000 ODCA0
d:\programfiles\microchip\xc16\v1.11\bin\..\support\dsPIC33F\inc/p33FJ128GP802.inc:2469   *ABS*:00000001 ODCA1
d:\programfiles\microchip\xc16\v1.11\bin\..\support\dsPIC33F\inc/p33FJ128GP802.inc:2470   *ABS*:00000002 ODCA2
d:\programfiles\microchip\xc16\v1.11\bin\..\support\dsPIC33F\inc/p33FJ128GP802.inc:2471   *ABS*:00000003 ODCA3
d:\programfiles\microchip\xc16\v1.11\bin\..\support\dsPIC33F\inc/p33FJ128GP802.inc:2472   *ABS*:00000004 ODCA4
d:\programfiles\microchip\xc16\v1.11\bin\..\support\dsPIC33F\inc/p33FJ128GP802.inc:2476   *ABS*:00000000 TRISB0
d:\programfiles\microchip\xc16\v1.11\bin\..\support\dsPIC33F\inc/p33FJ128GP802.inc:2477   *ABS*:00000001 TRISB1
d:\programfiles\microchip\xc16\v1.11\bin\..\support\dsPIC33F\inc/p33FJ128GP802.inc:2478   *ABS*:00000002 TRISB2
d:\programfiles\microchip\xc16\v1.11\bin\..\support\dsPIC33F\inc/p33FJ128GP802.inc:2479   *ABS*:00000003 TRISB3
d:\programfiles\microchip\xc16\v1.11\bin\..\support\dsPIC33F\inc/p33FJ128GP802.inc:2480   *ABS*:00000004 TRISB4
d:\programfiles\microchip\xc16\v1.11\bin\..\support\dsPIC33F\inc/p33FJ128GP802.inc:2481   *ABS*:00000005 TRISB5
d:\programfiles\microchip\xc16\v1.11\bin\..\support\dsPIC33F\inc/p33FJ128GP802.inc:2482   *ABS*:00000006 TRISB6
d:\programfiles\microchip\xc16\v1.11\bin\..\support\dsPIC33F\inc/p33FJ128GP802.inc:2483   *ABS*:00000007 TRISB7
d:\programfiles\microchip\xc16\v1.11\bin\..\support\dsPIC33F\inc/p33FJ128GP802.inc:2484   *ABS*:00000008 TRISB8
d:\programfiles\microchip\xc16\v1.11\bin\..\support\dsPIC33F\inc/p33FJ128GP802.inc:2485   *ABS*:00000009 TRISB9
d:\programfiles\microchip\xc16\v1.11\bin\..\support\dsPIC33F\inc/p33FJ128GP802.inc:2486   *ABS*:0000000a TRISB10
d:\programfiles\microchip\xc16\v1.11\bin\..\support\dsPIC33F\inc/p33FJ128GP802.inc:2487   *ABS*:0000000b TRISB11
d:\programfiles\microchip\xc16\v1.11\bin\..\support\dsPIC33F\inc/p33FJ128GP802.inc:2488   *ABS*:0000000c TRISB12
d:\programfiles\microchip\xc16\v1.11\bin\..\support\dsPIC33F\inc/p33FJ128GP802.inc:2489   *ABS*:0000000d TRISB13
d:\programfiles\microchip\xc16\v1.11\bin\..\support\dsPIC33F\inc/p33FJ128GP802.inc:2490   *ABS*:0000000e TRISB14
d:\programfiles\microchip\xc16\v1.11\bin\..\support\dsPIC33F\inc/p33FJ128GP802.inc:2491   *ABS*:0000000f TRISB15
d:\programfiles\microchip\xc16\v1.11\bin\..\support\dsPIC33F\inc/p33FJ128GP802.inc:2495   *ABS*:00000000 RB0
d:\programfiles\microchip\xc16\v1.11\bin\..\support\dsPIC33F\inc/p33FJ128GP802.inc:2496   *ABS*:00000001 RB1
d:\programfiles\microchip\xc16\v1.11\bin\..\support\dsPIC33F\inc/p33FJ128GP802.inc:2497   *ABS*:00000002 RB2
d:\programfiles\microchip\xc16\v1.11\bin\..\support\dsPIC33F\inc/p33FJ128GP802.inc:2498   *ABS*:00000003 RB3
d:\programfiles\microchip\xc16\v1.11\bin\..\support\dsPIC33F\inc/p33FJ128GP802.inc:2499   *ABS*:00000004 RB4
d:\programfiles\microchip\xc16\v1.11\bin\..\support\dsPIC33F\inc/p33FJ128GP802.inc:2500   *ABS*:00000005 RB5
d:\programfiles\microchip\xc16\v1.11\bin\..\support\dsPIC33F\inc/p33FJ128GP802.inc:2501   *ABS*:00000006 RB6
d:\programfiles\microchip\xc16\v1.11\bin\..\support\dsPIC33F\inc/p33FJ128GP802.inc:2502   *ABS*:00000007 RB7
d:\programfiles\microchip\xc16\v1.11\bin\..\support\dsPIC33F\inc/p33FJ128GP802.inc:2503   *ABS*:00000008 RB8
d:\programfiles\microchip\xc16\v1.11\bin\..\support\dsPIC33F\inc/p33FJ128GP802.inc:2504   *ABS*:00000009 RB9
d:\programfiles\microchip\xc16\v1.11\bin\..\support\dsPIC33F\inc/p33FJ128GP802.inc:2505   *ABS*:0000000a RB10
d:\programfiles\microchip\xc16\v1.11\bin\..\support\dsPIC33F\inc/p33FJ128GP802.inc:2506   *ABS*:0000000b RB11
d:\programfiles\microchip\xc16\v1.11\bin\..\support\dsPIC33F\inc/p33FJ128GP802.inc:2507   *ABS*:0000000c RB12
d:\programfiles\microchip\xc16\v1.11\bin\..\support\dsPIC33F\inc/p33FJ128GP802.inc:2508   *ABS*:0000000d RB13
d:\programfiles\microchip\xc16\v1.11\bin\..\support\dsPIC33F\inc/p33FJ128GP802.inc:2509   *ABS*:0000000e RB14
d:\programfiles\microchip\xc16\v1.11\bin\..\support\dsPIC33F\inc/p33FJ128GP802.inc:2510   *ABS*:0000000f RB15
MPLAB ASM30 Listing:  ../src/ff-pic24-30-33.s 			page 162


d:\programfiles\microchip\xc16\v1.11\bin\..\support\dsPIC33F\inc/p33FJ128GP802.inc:2514   *ABS*:00000000 LATB0
d:\programfiles\microchip\xc16\v1.11\bin\..\support\dsPIC33F\inc/p33FJ128GP802.inc:2515   *ABS*:00000001 LATB1
d:\programfiles\microchip\xc16\v1.11\bin\..\support\dsPIC33F\inc/p33FJ128GP802.inc:2516   *ABS*:00000002 LATB2
d:\programfiles\microchip\xc16\v1.11\bin\..\support\dsPIC33F\inc/p33FJ128GP802.inc:2517   *ABS*:00000003 LATB3
d:\programfiles\microchip\xc16\v1.11\bin\..\support\dsPIC33F\inc/p33FJ128GP802.inc:2518   *ABS*:00000004 LATB4
d:\programfiles\microchip\xc16\v1.11\bin\..\support\dsPIC33F\inc/p33FJ128GP802.inc:2519   *ABS*:00000005 LATB5
d:\programfiles\microchip\xc16\v1.11\bin\..\support\dsPIC33F\inc/p33FJ128GP802.inc:2520   *ABS*:00000006 LATB6
d:\programfiles\microchip\xc16\v1.11\bin\..\support\dsPIC33F\inc/p33FJ128GP802.inc:2521   *ABS*:00000007 LATB7
d:\programfiles\microchip\xc16\v1.11\bin\..\support\dsPIC33F\inc/p33FJ128GP802.inc:2522   *ABS*:00000008 LATB8
d:\programfiles\microchip\xc16\v1.11\bin\..\support\dsPIC33F\inc/p33FJ128GP802.inc:2523   *ABS*:00000009 LATB9
d:\programfiles\microchip\xc16\v1.11\bin\..\support\dsPIC33F\inc/p33FJ128GP802.inc:2524   *ABS*:0000000a LATB10
d:\programfiles\microchip\xc16\v1.11\bin\..\support\dsPIC33F\inc/p33FJ128GP802.inc:2525   *ABS*:0000000b LATB11
d:\programfiles\microchip\xc16\v1.11\bin\..\support\dsPIC33F\inc/p33FJ128GP802.inc:2526   *ABS*:0000000c LATB12
d:\programfiles\microchip\xc16\v1.11\bin\..\support\dsPIC33F\inc/p33FJ128GP802.inc:2527   *ABS*:0000000d LATB13
d:\programfiles\microchip\xc16\v1.11\bin\..\support\dsPIC33F\inc/p33FJ128GP802.inc:2528   *ABS*:0000000e LATB14
d:\programfiles\microchip\xc16\v1.11\bin\..\support\dsPIC33F\inc/p33FJ128GP802.inc:2529   *ABS*:0000000f LATB15
d:\programfiles\microchip\xc16\v1.11\bin\..\support\dsPIC33F\inc/p33FJ128GP802.inc:2533   *ABS*:00000000 ODCB0
d:\programfiles\microchip\xc16\v1.11\bin\..\support\dsPIC33F\inc/p33FJ128GP802.inc:2534   *ABS*:00000001 ODCB1
d:\programfiles\microchip\xc16\v1.11\bin\..\support\dsPIC33F\inc/p33FJ128GP802.inc:2535   *ABS*:00000002 ODCB2
d:\programfiles\microchip\xc16\v1.11\bin\..\support\dsPIC33F\inc/p33FJ128GP802.inc:2536   *ABS*:00000003 ODCB3
d:\programfiles\microchip\xc16\v1.11\bin\..\support\dsPIC33F\inc/p33FJ128GP802.inc:2537   *ABS*:00000004 ODCB4
d:\programfiles\microchip\xc16\v1.11\bin\..\support\dsPIC33F\inc/p33FJ128GP802.inc:2538   *ABS*:00000005 ODCB5
d:\programfiles\microchip\xc16\v1.11\bin\..\support\dsPIC33F\inc/p33FJ128GP802.inc:2539   *ABS*:00000006 ODCB6
d:\programfiles\microchip\xc16\v1.11\bin\..\support\dsPIC33F\inc/p33FJ128GP802.inc:2540   *ABS*:00000007 ODCB7
d:\programfiles\microchip\xc16\v1.11\bin\..\support\dsPIC33F\inc/p33FJ128GP802.inc:2541   *ABS*:00000008 ODCB8
d:\programfiles\microchip\xc16\v1.11\bin\..\support\dsPIC33F\inc/p33FJ128GP802.inc:2542   *ABS*:00000009 ODCB9
d:\programfiles\microchip\xc16\v1.11\bin\..\support\dsPIC33F\inc/p33FJ128GP802.inc:2543   *ABS*:0000000a ODCB10
d:\programfiles\microchip\xc16\v1.11\bin\..\support\dsPIC33F\inc/p33FJ128GP802.inc:2544   *ABS*:0000000b ODCB11
d:\programfiles\microchip\xc16\v1.11\bin\..\support\dsPIC33F\inc/p33FJ128GP802.inc:2545   *ABS*:0000000c ODCB12
d:\programfiles\microchip\xc16\v1.11\bin\..\support\dsPIC33F\inc/p33FJ128GP802.inc:2546   *ABS*:0000000d ODCB13
d:\programfiles\microchip\xc16\v1.11\bin\..\support\dsPIC33F\inc/p33FJ128GP802.inc:2547   *ABS*:0000000e ODCB14
d:\programfiles\microchip\xc16\v1.11\bin\..\support\dsPIC33F\inc/p33FJ128GP802.inc:2548   *ABS*:0000000f ODCB15
d:\programfiles\microchip\xc16\v1.11\bin\..\support\dsPIC33F\inc/p33FJ128GP802.inc:2552   *ABS*:00000000 PMPTTL
d:\programfiles\microchip\xc16\v1.11\bin\..\support\dsPIC33F\inc/p33FJ128GP802.inc:2553   *ABS*:00000001 RTSECSEL
d:\programfiles\microchip\xc16\v1.11\bin\..\support\dsPIC33F\inc/p33FJ128GP802.inc:2557   *ABS*:00000000 DONE
d:\programfiles\microchip\xc16\v1.11\bin\..\support\dsPIC33F\inc/p33FJ128GP802.inc:2558   *ABS*:00000001 SAMP
d:\programfiles\microchip\xc16\v1.11\bin\..\support\dsPIC33F\inc/p33FJ128GP802.inc:2559   *ABS*:00000002 ASAM
d:\programfiles\microchip\xc16\v1.11\bin\..\support\dsPIC33F\inc/p33FJ128GP802.inc:2560   *ABS*:00000003 SIMSAM
d:\programfiles\microchip\xc16\v1.11\bin\..\support\dsPIC33F\inc/p33FJ128GP802.inc:2561   *ABS*:0000000a AD12B
d:\programfiles\microchip\xc16\v1.11\bin\..\support\dsPIC33F\inc/p33FJ128GP802.inc:2562   *ABS*:0000000c ADDMABM
d:\programfiles\microchip\xc16\v1.11\bin\..\support\dsPIC33F\inc/p33FJ128GP802.inc:2563   *ABS*:0000000d ADSIDL
d:\programfiles\microchip\xc16\v1.11\bin\..\support\dsPIC33F\inc/p33FJ128GP802.inc:2564   *ABS*:0000000f ADON
d:\programfiles\microchip\xc16\v1.11\bin\..\support\dsPIC33F\inc/p33FJ128GP802.inc:2566   *ABS*:00000005 SSRC0
d:\programfiles\microchip\xc16\v1.11\bin\..\support\dsPIC33F\inc/p33FJ128GP802.inc:2567   *ABS*:00000006 SSRC1
d:\programfiles\microchip\xc16\v1.11\bin\..\support\dsPIC33F\inc/p33FJ128GP802.inc:2568   *ABS*:00000007 SSRC2
d:\programfiles\microchip\xc16\v1.11\bin\..\support\dsPIC33F\inc/p33FJ128GP802.inc:2569   *ABS*:00000008 FORM0
d:\programfiles\microchip\xc16\v1.11\bin\..\support\dsPIC33F\inc/p33FJ128GP802.inc:2570   *ABS*:00000009 FORM1
d:\programfiles\microchip\xc16\v1.11\bin\..\support\dsPIC33F\inc/p33FJ128GP802.inc:2574   *ABS*:00000000 ALTS
d:\programfiles\microchip\xc16\v1.11\bin\..\support\dsPIC33F\inc/p33FJ128GP802.inc:2575   *ABS*:00000001 BUFM
d:\programfiles\microchip\xc16\v1.11\bin\..\support\dsPIC33F\inc/p33FJ128GP802.inc:2576   *ABS*:00000007 BUFS
d:\programfiles\microchip\xc16\v1.11\bin\..\support\dsPIC33F\inc/p33FJ128GP802.inc:2577   *ABS*:0000000a CSCNA
d:\programfiles\microchip\xc16\v1.11\bin\..\support\dsPIC33F\inc/p33FJ128GP802.inc:2579   *ABS*:00000002 SMPI0
d:\programfiles\microchip\xc16\v1.11\bin\..\support\dsPIC33F\inc/p33FJ128GP802.inc:2580   *ABS*:00000003 SMPI1
d:\programfiles\microchip\xc16\v1.11\bin\..\support\dsPIC33F\inc/p33FJ128GP802.inc:2581   *ABS*:00000004 SMPI2
d:\programfiles\microchip\xc16\v1.11\bin\..\support\dsPIC33F\inc/p33FJ128GP802.inc:2582   *ABS*:00000005 SMPI3
d:\programfiles\microchip\xc16\v1.11\bin\..\support\dsPIC33F\inc/p33FJ128GP802.inc:2583   *ABS*:00000008 CHPS0
d:\programfiles\microchip\xc16\v1.11\bin\..\support\dsPIC33F\inc/p33FJ128GP802.inc:2584   *ABS*:00000009 CHPS1
MPLAB ASM30 Listing:  ../src/ff-pic24-30-33.s 			page 163


d:\programfiles\microchip\xc16\v1.11\bin\..\support\dsPIC33F\inc/p33FJ128GP802.inc:2585   *ABS*:0000000d VCFG0
d:\programfiles\microchip\xc16\v1.11\bin\..\support\dsPIC33F\inc/p33FJ128GP802.inc:2586   *ABS*:0000000e VCFG1
d:\programfiles\microchip\xc16\v1.11\bin\..\support\dsPIC33F\inc/p33FJ128GP802.inc:2587   *ABS*:0000000f VCFG2
d:\programfiles\microchip\xc16\v1.11\bin\..\support\dsPIC33F\inc/p33FJ128GP802.inc:2591   *ABS*:0000000f ADRC
d:\programfiles\microchip\xc16\v1.11\bin\..\support\dsPIC33F\inc/p33FJ128GP802.inc:2593   *ABS*:00000000 ADCS0
d:\programfiles\microchip\xc16\v1.11\bin\..\support\dsPIC33F\inc/p33FJ128GP802.inc:2594   *ABS*:00000001 ADCS1
d:\programfiles\microchip\xc16\v1.11\bin\..\support\dsPIC33F\inc/p33FJ128GP802.inc:2595   *ABS*:00000002 ADCS2
d:\programfiles\microchip\xc16\v1.11\bin\..\support\dsPIC33F\inc/p33FJ128GP802.inc:2596   *ABS*:00000003 ADCS3
d:\programfiles\microchip\xc16\v1.11\bin\..\support\dsPIC33F\inc/p33FJ128GP802.inc:2597   *ABS*:00000004 ADCS4
d:\programfiles\microchip\xc16\v1.11\bin\..\support\dsPIC33F\inc/p33FJ128GP802.inc:2598   *ABS*:00000005 ADCS5
d:\programfiles\microchip\xc16\v1.11\bin\..\support\dsPIC33F\inc/p33FJ128GP802.inc:2599   *ABS*:00000006 ADCS6
d:\programfiles\microchip\xc16\v1.11\bin\..\support\dsPIC33F\inc/p33FJ128GP802.inc:2600   *ABS*:00000007 ADCS7
d:\programfiles\microchip\xc16\v1.11\bin\..\support\dsPIC33F\inc/p33FJ128GP802.inc:2601   *ABS*:00000008 SAMC0
d:\programfiles\microchip\xc16\v1.11\bin\..\support\dsPIC33F\inc/p33FJ128GP802.inc:2602   *ABS*:00000009 SAMC1
d:\programfiles\microchip\xc16\v1.11\bin\..\support\dsPIC33F\inc/p33FJ128GP802.inc:2603   *ABS*:0000000a SAMC2
d:\programfiles\microchip\xc16\v1.11\bin\..\support\dsPIC33F\inc/p33FJ128GP802.inc:2604   *ABS*:0000000b SAMC3
d:\programfiles\microchip\xc16\v1.11\bin\..\support\dsPIC33F\inc/p33FJ128GP802.inc:2605   *ABS*:0000000c SAMC4
d:\programfiles\microchip\xc16\v1.11\bin\..\support\dsPIC33F\inc/p33FJ128GP802.inc:2609   *ABS*:00000000 CH123SA
d:\programfiles\microchip\xc16\v1.11\bin\..\support\dsPIC33F\inc/p33FJ128GP802.inc:2610   *ABS*:00000008 CH123SB
d:\programfiles\microchip\xc16\v1.11\bin\..\support\dsPIC33F\inc/p33FJ128GP802.inc:2612   *ABS*:00000001 CH123NA0
d:\programfiles\microchip\xc16\v1.11\bin\..\support\dsPIC33F\inc/p33FJ128GP802.inc:2613   *ABS*:00000002 CH123NA1
d:\programfiles\microchip\xc16\v1.11\bin\..\support\dsPIC33F\inc/p33FJ128GP802.inc:2614   *ABS*:00000009 CH123NB0
d:\programfiles\microchip\xc16\v1.11\bin\..\support\dsPIC33F\inc/p33FJ128GP802.inc:2615   *ABS*:0000000a CH123NB1
d:\programfiles\microchip\xc16\v1.11\bin\..\support\dsPIC33F\inc/p33FJ128GP802.inc:2619   *ABS*:00000007 CH0NA
d:\programfiles\microchip\xc16\v1.11\bin\..\support\dsPIC33F\inc/p33FJ128GP802.inc:2620   *ABS*:0000000f CH0NB
d:\programfiles\microchip\xc16\v1.11\bin\..\support\dsPIC33F\inc/p33FJ128GP802.inc:2622   *ABS*:00000000 CH0SA0
d:\programfiles\microchip\xc16\v1.11\bin\..\support\dsPIC33F\inc/p33FJ128GP802.inc:2623   *ABS*:00000001 CH0SA1
d:\programfiles\microchip\xc16\v1.11\bin\..\support\dsPIC33F\inc/p33FJ128GP802.inc:2624   *ABS*:00000002 CH0SA2
d:\programfiles\microchip\xc16\v1.11\bin\..\support\dsPIC33F\inc/p33FJ128GP802.inc:2625   *ABS*:00000003 CH0SA3
d:\programfiles\microchip\xc16\v1.11\bin\..\support\dsPIC33F\inc/p33FJ128GP802.inc:2626   *ABS*:00000004 CH0SA4
d:\programfiles\microchip\xc16\v1.11\bin\..\support\dsPIC33F\inc/p33FJ128GP802.inc:2627   *ABS*:00000008 CH0SB0
d:\programfiles\microchip\xc16\v1.11\bin\..\support\dsPIC33F\inc/p33FJ128GP802.inc:2628   *ABS*:00000009 CH0SB1
d:\programfiles\microchip\xc16\v1.11\bin\..\support\dsPIC33F\inc/p33FJ128GP802.inc:2629   *ABS*:0000000a CH0SB2
d:\programfiles\microchip\xc16\v1.11\bin\..\support\dsPIC33F\inc/p33FJ128GP802.inc:2630   *ABS*:0000000b CH0SB3
d:\programfiles\microchip\xc16\v1.11\bin\..\support\dsPIC33F\inc/p33FJ128GP802.inc:2631   *ABS*:0000000c CH0SB4
d:\programfiles\microchip\xc16\v1.11\bin\..\support\dsPIC33F\inc/p33FJ128GP802.inc:2635   *ABS*:00000000 PCFG0
d:\programfiles\microchip\xc16\v1.11\bin\..\support\dsPIC33F\inc/p33FJ128GP802.inc:2636   *ABS*:00000001 PCFG1
d:\programfiles\microchip\xc16\v1.11\bin\..\support\dsPIC33F\inc/p33FJ128GP802.inc:2637   *ABS*:00000002 PCFG2
d:\programfiles\microchip\xc16\v1.11\bin\..\support\dsPIC33F\inc/p33FJ128GP802.inc:2638   *ABS*:00000003 PCFG3
d:\programfiles\microchip\xc16\v1.11\bin\..\support\dsPIC33F\inc/p33FJ128GP802.inc:2639   *ABS*:00000004 PCFG4
d:\programfiles\microchip\xc16\v1.11\bin\..\support\dsPIC33F\inc/p33FJ128GP802.inc:2640   *ABS*:00000005 PCFG5
d:\programfiles\microchip\xc16\v1.11\bin\..\support\dsPIC33F\inc/p33FJ128GP802.inc:2641   *ABS*:00000009 PCFG9
d:\programfiles\microchip\xc16\v1.11\bin\..\support\dsPIC33F\inc/p33FJ128GP802.inc:2642   *ABS*:0000000a PCFG10
d:\programfiles\microchip\xc16\v1.11\bin\..\support\dsPIC33F\inc/p33FJ128GP802.inc:2643   *ABS*:0000000b PCFG11
d:\programfiles\microchip\xc16\v1.11\bin\..\support\dsPIC33F\inc/p33FJ128GP802.inc:2644   *ABS*:0000000c PCFG12
d:\programfiles\microchip\xc16\v1.11\bin\..\support\dsPIC33F\inc/p33FJ128GP802.inc:2661   *ABS*:00000000 CSS0
d:\programfiles\microchip\xc16\v1.11\bin\..\support\dsPIC33F\inc/p33FJ128GP802.inc:2662   *ABS*:00000001 CSS1
d:\programfiles\microchip\xc16\v1.11\bin\..\support\dsPIC33F\inc/p33FJ128GP802.inc:2663   *ABS*:00000002 CSS2
d:\programfiles\microchip\xc16\v1.11\bin\..\support\dsPIC33F\inc/p33FJ128GP802.inc:2664   *ABS*:00000003 CSS3
d:\programfiles\microchip\xc16\v1.11\bin\..\support\dsPIC33F\inc/p33FJ128GP802.inc:2665   *ABS*:00000004 CSS4
d:\programfiles\microchip\xc16\v1.11\bin\..\support\dsPIC33F\inc/p33FJ128GP802.inc:2666   *ABS*:00000005 CSS5
d:\programfiles\microchip\xc16\v1.11\bin\..\support\dsPIC33F\inc/p33FJ128GP802.inc:2667   *ABS*:00000009 CSS9
d:\programfiles\microchip\xc16\v1.11\bin\..\support\dsPIC33F\inc/p33FJ128GP802.inc:2668   *ABS*:0000000a CSS10
d:\programfiles\microchip\xc16\v1.11\bin\..\support\dsPIC33F\inc/p33FJ128GP802.inc:2669   *ABS*:0000000b CSS11
d:\programfiles\microchip\xc16\v1.11\bin\..\support\dsPIC33F\inc/p33FJ128GP802.inc:2670   *ABS*:0000000c CSS12
d:\programfiles\microchip\xc16\v1.11\bin\..\support\dsPIC33F\inc/p33FJ128GP802.inc:2674   *ABS*:00000000 DMABL0
d:\programfiles\microchip\xc16\v1.11\bin\..\support\dsPIC33F\inc/p33FJ128GP802.inc:2675   *ABS*:00000001 DMABL1
MPLAB ASM30 Listing:  ../src/ff-pic24-30-33.s 			page 164


d:\programfiles\microchip\xc16\v1.11\bin\..\support\dsPIC33F\inc/p33FJ128GP802.inc:2676   *ABS*:00000002 DMABL2
d:\programfiles\microchip\xc16\v1.11\bin\..\support\dsPIC33F\inc/p33FJ128GP802.inc:2680   *ABS*:0000000b NULLW
d:\programfiles\microchip\xc16\v1.11\bin\..\support\dsPIC33F\inc/p33FJ128GP802.inc:2681   *ABS*:0000000c HALF
d:\programfiles\microchip\xc16\v1.11\bin\..\support\dsPIC33F\inc/p33FJ128GP802.inc:2682   *ABS*:0000000d DIR
d:\programfiles\microchip\xc16\v1.11\bin\..\support\dsPIC33F\inc/p33FJ128GP802.inc:2683   *ABS*:0000000e SIZE
d:\programfiles\microchip\xc16\v1.11\bin\..\support\dsPIC33F\inc/p33FJ128GP802.inc:2684   *ABS*:0000000f CHEN
d:\programfiles\microchip\xc16\v1.11\bin\..\support\dsPIC33F\inc/p33FJ128GP802.inc:2686   *ABS*:00000000 MODE0_DMA0CON
d:\programfiles\microchip\xc16\v1.11\bin\..\support\dsPIC33F\inc/p33FJ128GP802.inc:2687   *ABS*:00000001 MODE1_DMA0CON
d:\programfiles\microchip\xc16\v1.11\bin\..\support\dsPIC33F\inc/p33FJ128GP802.inc:2688   *ABS*:00000004 AMODE0
d:\programfiles\microchip\xc16\v1.11\bin\..\support\dsPIC33F\inc/p33FJ128GP802.inc:2689   *ABS*:00000005 AMODE1
d:\programfiles\microchip\xc16\v1.11\bin\..\support\dsPIC33F\inc/p33FJ128GP802.inc:2693   *ABS*:0000000f FORCE
d:\programfiles\microchip\xc16\v1.11\bin\..\support\dsPIC33F\inc/p33FJ128GP802.inc:2695   *ABS*:00000000 IRQSEL0
d:\programfiles\microchip\xc16\v1.11\bin\..\support\dsPIC33F\inc/p33FJ128GP802.inc:2696   *ABS*:00000001 IRQSEL1
d:\programfiles\microchip\xc16\v1.11\bin\..\support\dsPIC33F\inc/p33FJ128GP802.inc:2697   *ABS*:00000002 IRQSEL2
d:\programfiles\microchip\xc16\v1.11\bin\..\support\dsPIC33F\inc/p33FJ128GP802.inc:2698   *ABS*:00000003 IRQSEL3
d:\programfiles\microchip\xc16\v1.11\bin\..\support\dsPIC33F\inc/p33FJ128GP802.inc:2699   *ABS*:00000004 IRQSEL4
d:\programfiles\microchip\xc16\v1.11\bin\..\support\dsPIC33F\inc/p33FJ128GP802.inc:2700   *ABS*:00000005 IRQSEL5
d:\programfiles\microchip\xc16\v1.11\bin\..\support\dsPIC33F\inc/p33FJ128GP802.inc:2701   *ABS*:00000006 IRQSEL6
d:\programfiles\microchip\xc16\v1.11\bin\..\support\dsPIC33F\inc/p33FJ128GP802.inc:2711   *ABS*:00000000 MODE0_DMA1CON
d:\programfiles\microchip\xc16\v1.11\bin\..\support\dsPIC33F\inc/p33FJ128GP802.inc:2712   *ABS*:00000001 MODE1_DMA1CON
d:\programfiles\microchip\xc16\v1.11\bin\..\support\dsPIC33F\inc/p33FJ128GP802.inc:2736   *ABS*:00000000 MODE0_DMA2CON
d:\programfiles\microchip\xc16\v1.11\bin\..\support\dsPIC33F\inc/p33FJ128GP802.inc:2737   *ABS*:00000001 MODE1_DMA2CON
d:\programfiles\microchip\xc16\v1.11\bin\..\support\dsPIC33F\inc/p33FJ128GP802.inc:2761   *ABS*:00000000 MODE0_DMA3CON
d:\programfiles\microchip\xc16\v1.11\bin\..\support\dsPIC33F\inc/p33FJ128GP802.inc:2762   *ABS*:00000001 MODE1_DMA3CON
d:\programfiles\microchip\xc16\v1.11\bin\..\support\dsPIC33F\inc/p33FJ128GP802.inc:2786   *ABS*:00000000 MODE0_DMA4CON
d:\programfiles\microchip\xc16\v1.11\bin\..\support\dsPIC33F\inc/p33FJ128GP802.inc:2787   *ABS*:00000001 MODE1_DMA4CON
d:\programfiles\microchip\xc16\v1.11\bin\..\support\dsPIC33F\inc/p33FJ128GP802.inc:2811   *ABS*:00000000 MODE0_DMA5CON
d:\programfiles\microchip\xc16\v1.11\bin\..\support\dsPIC33F\inc/p33FJ128GP802.inc:2812   *ABS*:00000001 MODE1_DMA5CON
d:\programfiles\microchip\xc16\v1.11\bin\..\support\dsPIC33F\inc/p33FJ128GP802.inc:2836   *ABS*:00000000 MODE0_DMA6CON
d:\programfiles\microchip\xc16\v1.11\bin\..\support\dsPIC33F\inc/p33FJ128GP802.inc:2837   *ABS*:00000001 MODE1_DMA6CON
d:\programfiles\microchip\xc16\v1.11\bin\..\support\dsPIC33F\inc/p33FJ128GP802.inc:2861   *ABS*:00000000 MODE0_DMA7CON
d:\programfiles\microchip\xc16\v1.11\bin\..\support\dsPIC33F\inc/p33FJ128GP802.inc:2862   *ABS*:00000001 MODE1_DMA7CON
d:\programfiles\microchip\xc16\v1.11\bin\..\support\dsPIC33F\inc/p33FJ128GP802.inc:2880   *ABS*:00000000 XWCOL0
d:\programfiles\microchip\xc16\v1.11\bin\..\support\dsPIC33F\inc/p33FJ128GP802.inc:2881   *ABS*:00000001 XWCOL1
d:\programfiles\microchip\xc16\v1.11\bin\..\support\dsPIC33F\inc/p33FJ128GP802.inc:2882   *ABS*:00000002 XWCOL2
d:\programfiles\microchip\xc16\v1.11\bin\..\support\dsPIC33F\inc/p33FJ128GP802.inc:2883   *ABS*:00000003 XWCOL3
d:\programfiles\microchip\xc16\v1.11\bin\..\support\dsPIC33F\inc/p33FJ128GP802.inc:2884   *ABS*:00000004 XWCOL4
d:\programfiles\microchip\xc16\v1.11\bin\..\support\dsPIC33F\inc/p33FJ128GP802.inc:2885   *ABS*:00000005 XWCOL5
d:\programfiles\microchip\xc16\v1.11\bin\..\support\dsPIC33F\inc/p33FJ128GP802.inc:2886   *ABS*:00000006 XWCOL6
d:\programfiles\microchip\xc16\v1.11\bin\..\support\dsPIC33F\inc/p33FJ128GP802.inc:2887   *ABS*:00000007 XWCOL7
d:\programfiles\microchip\xc16\v1.11\bin\..\support\dsPIC33F\inc/p33FJ128GP802.inc:2888   *ABS*:00000008 PWCOL0
d:\programfiles\microchip\xc16\v1.11\bin\..\support\dsPIC33F\inc/p33FJ128GP802.inc:2889   *ABS*:00000009 PWCOL1
d:\programfiles\microchip\xc16\v1.11\bin\..\support\dsPIC33F\inc/p33FJ128GP802.inc:2890   *ABS*:0000000a PWCOL2
d:\programfiles\microchip\xc16\v1.11\bin\..\support\dsPIC33F\inc/p33FJ128GP802.inc:2891   *ABS*:0000000b PWCOL3
d:\programfiles\microchip\xc16\v1.11\bin\..\support\dsPIC33F\inc/p33FJ128GP802.inc:2892   *ABS*:0000000c PWCOL4
d:\programfiles\microchip\xc16\v1.11\bin\..\support\dsPIC33F\inc/p33FJ128GP802.inc:2893   *ABS*:0000000d PWCOL5
d:\programfiles\microchip\xc16\v1.11\bin\..\support\dsPIC33F\inc/p33FJ128GP802.inc:2894   *ABS*:0000000e PWCOL6
d:\programfiles\microchip\xc16\v1.11\bin\..\support\dsPIC33F\inc/p33FJ128GP802.inc:2895   *ABS*:0000000f PWCOL7
d:\programfiles\microchip\xc16\v1.11\bin\..\support\dsPIC33F\inc/p33FJ128GP802.inc:2899   *ABS*:00000000 PPST0
d:\programfiles\microchip\xc16\v1.11\bin\..\support\dsPIC33F\inc/p33FJ128GP802.inc:2900   *ABS*:00000001 PPST1
d:\programfiles\microchip\xc16\v1.11\bin\..\support\dsPIC33F\inc/p33FJ128GP802.inc:2901   *ABS*:00000002 PPST2
d:\programfiles\microchip\xc16\v1.11\bin\..\support\dsPIC33F\inc/p33FJ128GP802.inc:2902   *ABS*:00000003 PPST3
d:\programfiles\microchip\xc16\v1.11\bin\..\support\dsPIC33F\inc/p33FJ128GP802.inc:2903   *ABS*:00000004 PPST4
d:\programfiles\microchip\xc16\v1.11\bin\..\support\dsPIC33F\inc/p33FJ128GP802.inc:2904   *ABS*:00000005 PPST5
d:\programfiles\microchip\xc16\v1.11\bin\..\support\dsPIC33F\inc/p33FJ128GP802.inc:2905   *ABS*:00000006 PPST6
d:\programfiles\microchip\xc16\v1.11\bin\..\support\dsPIC33F\inc/p33FJ128GP802.inc:2906   *ABS*:00000007 PPST7
d:\programfiles\microchip\xc16\v1.11\bin\..\support\dsPIC33F\inc/p33FJ128GP802.inc:2908   *ABS*:00000008 LSTCH0
MPLAB ASM30 Listing:  ../src/ff-pic24-30-33.s 			page 165


d:\programfiles\microchip\xc16\v1.11\bin\..\support\dsPIC33F\inc/p33FJ128GP802.inc:2909   *ABS*:00000009 LSTCH1
d:\programfiles\microchip\xc16\v1.11\bin\..\support\dsPIC33F\inc/p33FJ128GP802.inc:2910   *ABS*:0000000a LSTCH2
d:\programfiles\microchip\xc16\v1.11\bin\..\support\dsPIC33F\inc/p33FJ128GP802.inc:2911   *ABS*:0000000b LSTCH3
d:\programfiles\microchip\xc16\v1.11\bin\..\support\dsPIC33F\inc/p33FJ128GP802.inc:2915   *ABS*:00000008 FORM
d:\programfiles\microchip\xc16\v1.11\bin\..\support\dsPIC33F\inc/p33FJ128GP802.inc:2916   *ABS*:0000000c AMPON
d:\programfiles\microchip\xc16\v1.11\bin\..\support\dsPIC33F\inc/p33FJ128GP802.inc:2917   *ABS*:0000000d DACSIDL
d:\programfiles\microchip\xc16\v1.11\bin\..\support\dsPIC33F\inc/p33FJ128GP802.inc:2918   *ABS*:0000000f DACEN
d:\programfiles\microchip\xc16\v1.11\bin\..\support\dsPIC33F\inc/p33FJ128GP802.inc:2920   *ABS*:00000000 DACFDIV0
d:\programfiles\microchip\xc16\v1.11\bin\..\support\dsPIC33F\inc/p33FJ128GP802.inc:2921   *ABS*:00000001 DACFDIV1
d:\programfiles\microchip\xc16\v1.11\bin\..\support\dsPIC33F\inc/p33FJ128GP802.inc:2922   *ABS*:00000002 DACFDIV2
d:\programfiles\microchip\xc16\v1.11\bin\..\support\dsPIC33F\inc/p33FJ128GP802.inc:2923   *ABS*:00000003 DACFDIV3
d:\programfiles\microchip\xc16\v1.11\bin\..\support\dsPIC33F\inc/p33FJ128GP802.inc:2924   *ABS*:00000004 DACFDIV4
d:\programfiles\microchip\xc16\v1.11\bin\..\support\dsPIC33F\inc/p33FJ128GP802.inc:2925   *ABS*:00000005 DACFDIV5
d:\programfiles\microchip\xc16\v1.11\bin\..\support\dsPIC33F\inc/p33FJ128GP802.inc:2926   *ABS*:00000006 DACFDIV6
d:\programfiles\microchip\xc16\v1.11\bin\..\support\dsPIC33F\inc/p33FJ128GP802.inc:2930   *ABS*:00000000 REMPTY
d:\programfiles\microchip\xc16\v1.11\bin\..\support\dsPIC33F\inc/p33FJ128GP802.inc:2931   *ABS*:00000001 RFULL
d:\programfiles\microchip\xc16\v1.11\bin\..\support\dsPIC33F\inc/p33FJ128GP802.inc:2932   *ABS*:00000002 RITYPE
d:\programfiles\microchip\xc16\v1.11\bin\..\support\dsPIC33F\inc/p33FJ128GP802.inc:2933   *ABS*:00000005 RMVOEN
d:\programfiles\microchip\xc16\v1.11\bin\..\support\dsPIC33F\inc/p33FJ128GP802.inc:2934   *ABS*:00000007 ROEN
d:\programfiles\microchip\xc16\v1.11\bin\..\support\dsPIC33F\inc/p33FJ128GP802.inc:2935   *ABS*:00000008 LEMPTY
d:\programfiles\microchip\xc16\v1.11\bin\..\support\dsPIC33F\inc/p33FJ128GP802.inc:2936   *ABS*:00000009 LFULL
d:\programfiles\microchip\xc16\v1.11\bin\..\support\dsPIC33F\inc/p33FJ128GP802.inc:2937   *ABS*:0000000a LITYPE
d:\programfiles\microchip\xc16\v1.11\bin\..\support\dsPIC33F\inc/p33FJ128GP802.inc:2938   *ABS*:0000000d LMVOEN
d:\programfiles\microchip\xc16\v1.11\bin\..\support\dsPIC33F\inc/p33FJ128GP802.inc:2939   *ABS*:0000000f LOEN
d:\programfiles\microchip\xc16\v1.11\bin\..\support\dsPIC33F\inc/p33FJ128GP802.inc:2943   *ABS*:00000000 WIN
d:\programfiles\microchip\xc16\v1.11\bin\..\support\dsPIC33F\inc/p33FJ128GP802.inc:2944   *ABS*:00000003 CANCAP
d:\programfiles\microchip\xc16\v1.11\bin\..\support\dsPIC33F\inc/p33FJ128GP802.inc:2945   *ABS*:0000000b CANCKS
d:\programfiles\microchip\xc16\v1.11\bin\..\support\dsPIC33F\inc/p33FJ128GP802.inc:2946   *ABS*:0000000c ABAT
d:\programfiles\microchip\xc16\v1.11\bin\..\support\dsPIC33F\inc/p33FJ128GP802.inc:2947   *ABS*:0000000d CSIDL
d:\programfiles\microchip\xc16\v1.11\bin\..\support\dsPIC33F\inc/p33FJ128GP802.inc:2949   *ABS*:00000005 OPMODE0
d:\programfiles\microchip\xc16\v1.11\bin\..\support\dsPIC33F\inc/p33FJ128GP802.inc:2950   *ABS*:00000006 OPMODE1
d:\programfiles\microchip\xc16\v1.11\bin\..\support\dsPIC33F\inc/p33FJ128GP802.inc:2951   *ABS*:00000007 OPMODE2
d:\programfiles\microchip\xc16\v1.11\bin\..\support\dsPIC33F\inc/p33FJ128GP802.inc:2952   *ABS*:00000008 REQOP0
d:\programfiles\microchip\xc16\v1.11\bin\..\support\dsPIC33F\inc/p33FJ128GP802.inc:2953   *ABS*:00000009 REQOP1
d:\programfiles\microchip\xc16\v1.11\bin\..\support\dsPIC33F\inc/p33FJ128GP802.inc:2954   *ABS*:0000000a REQOP2
d:\programfiles\microchip\xc16\v1.11\bin\..\support\dsPIC33F\inc/p33FJ128GP802.inc:2958   *ABS*:00000000 DNCNT0
d:\programfiles\microchip\xc16\v1.11\bin\..\support\dsPIC33F\inc/p33FJ128GP802.inc:2959   *ABS*:00000001 DNCNT1
d:\programfiles\microchip\xc16\v1.11\bin\..\support\dsPIC33F\inc/p33FJ128GP802.inc:2960   *ABS*:00000002 DNCNT2
d:\programfiles\microchip\xc16\v1.11\bin\..\support\dsPIC33F\inc/p33FJ128GP802.inc:2961   *ABS*:00000003 DNCNT3
d:\programfiles\microchip\xc16\v1.11\bin\..\support\dsPIC33F\inc/p33FJ128GP802.inc:2962   *ABS*:00000004 DNCNT4
d:\programfiles\microchip\xc16\v1.11\bin\..\support\dsPIC33F\inc/p33FJ128GP802.inc:2966   *ABS*:00000000 ICODE0
d:\programfiles\microchip\xc16\v1.11\bin\..\support\dsPIC33F\inc/p33FJ128GP802.inc:2967   *ABS*:00000001 ICODE1
d:\programfiles\microchip\xc16\v1.11\bin\..\support\dsPIC33F\inc/p33FJ128GP802.inc:2968   *ABS*:00000002 ICODE2
d:\programfiles\microchip\xc16\v1.11\bin\..\support\dsPIC33F\inc/p33FJ128GP802.inc:2969   *ABS*:00000003 ICODE3
d:\programfiles\microchip\xc16\v1.11\bin\..\support\dsPIC33F\inc/p33FJ128GP802.inc:2970   *ABS*:00000004 ICODE4
d:\programfiles\microchip\xc16\v1.11\bin\..\support\dsPIC33F\inc/p33FJ128GP802.inc:2971   *ABS*:00000005 ICODE5
d:\programfiles\microchip\xc16\v1.11\bin\..\support\dsPIC33F\inc/p33FJ128GP802.inc:2972   *ABS*:00000006 ICODE6
d:\programfiles\microchip\xc16\v1.11\bin\..\support\dsPIC33F\inc/p33FJ128GP802.inc:2973   *ABS*:00000008 FILHIT0
d:\programfiles\microchip\xc16\v1.11\bin\..\support\dsPIC33F\inc/p33FJ128GP802.inc:2974   *ABS*:00000009 FILHIT1
d:\programfiles\microchip\xc16\v1.11\bin\..\support\dsPIC33F\inc/p33FJ128GP802.inc:2975   *ABS*:0000000a FILHIT2
d:\programfiles\microchip\xc16\v1.11\bin\..\support\dsPIC33F\inc/p33FJ128GP802.inc:2976   *ABS*:0000000b FILHIT3
d:\programfiles\microchip\xc16\v1.11\bin\..\support\dsPIC33F\inc/p33FJ128GP802.inc:2977   *ABS*:0000000c FILHIT4
d:\programfiles\microchip\xc16\v1.11\bin\..\support\dsPIC33F\inc/p33FJ128GP802.inc:2981   *ABS*:00000000 FSA0
d:\programfiles\microchip\xc16\v1.11\bin\..\support\dsPIC33F\inc/p33FJ128GP802.inc:2982   *ABS*:00000001 FSA1
d:\programfiles\microchip\xc16\v1.11\bin\..\support\dsPIC33F\inc/p33FJ128GP802.inc:2983   *ABS*:00000002 FSA2
d:\programfiles\microchip\xc16\v1.11\bin\..\support\dsPIC33F\inc/p33FJ128GP802.inc:2984   *ABS*:00000003 FSA3
d:\programfiles\microchip\xc16\v1.11\bin\..\support\dsPIC33F\inc/p33FJ128GP802.inc:2985   *ABS*:00000004 FSA4
MPLAB ASM30 Listing:  ../src/ff-pic24-30-33.s 			page 166


d:\programfiles\microchip\xc16\v1.11\bin\..\support\dsPIC33F\inc/p33FJ128GP802.inc:2986   *ABS*:0000000d DMABS0
d:\programfiles\microchip\xc16\v1.11\bin\..\support\dsPIC33F\inc/p33FJ128GP802.inc:2987   *ABS*:0000000e DMABS1
d:\programfiles\microchip\xc16\v1.11\bin\..\support\dsPIC33F\inc/p33FJ128GP802.inc:2988   *ABS*:0000000f DMABS2
d:\programfiles\microchip\xc16\v1.11\bin\..\support\dsPIC33F\inc/p33FJ128GP802.inc:2992   *ABS*:00000000 FNRB0
d:\programfiles\microchip\xc16\v1.11\bin\..\support\dsPIC33F\inc/p33FJ128GP802.inc:2993   *ABS*:00000001 FNRB1
d:\programfiles\microchip\xc16\v1.11\bin\..\support\dsPIC33F\inc/p33FJ128GP802.inc:2994   *ABS*:00000002 FNRB2
d:\programfiles\microchip\xc16\v1.11\bin\..\support\dsPIC33F\inc/p33FJ128GP802.inc:2995   *ABS*:00000003 FNRB3
d:\programfiles\microchip\xc16\v1.11\bin\..\support\dsPIC33F\inc/p33FJ128GP802.inc:2996   *ABS*:00000004 FNRB4
d:\programfiles\microchip\xc16\v1.11\bin\..\support\dsPIC33F\inc/p33FJ128GP802.inc:2997   *ABS*:00000005 FNRB5
d:\programfiles\microchip\xc16\v1.11\bin\..\support\dsPIC33F\inc/p33FJ128GP802.inc:2998   *ABS*:00000008 FBP0
d:\programfiles\microchip\xc16\v1.11\bin\..\support\dsPIC33F\inc/p33FJ128GP802.inc:2999   *ABS*:00000009 FBP1
d:\programfiles\microchip\xc16\v1.11\bin\..\support\dsPIC33F\inc/p33FJ128GP802.inc:3000   *ABS*:0000000a FBP2
d:\programfiles\microchip\xc16\v1.11\bin\..\support\dsPIC33F\inc/p33FJ128GP802.inc:3001   *ABS*:0000000b FBP3
d:\programfiles\microchip\xc16\v1.11\bin\..\support\dsPIC33F\inc/p33FJ128GP802.inc:3002   *ABS*:0000000c FBP4
d:\programfiles\microchip\xc16\v1.11\bin\..\support\dsPIC33F\inc/p33FJ128GP802.inc:3003   *ABS*:0000000d FBP5
d:\programfiles\microchip\xc16\v1.11\bin\..\support\dsPIC33F\inc/p33FJ128GP802.inc:3007   *ABS*:00000000 TBIF
d:\programfiles\microchip\xc16\v1.11\bin\..\support\dsPIC33F\inc/p33FJ128GP802.inc:3008   *ABS*:00000001 RBIF
d:\programfiles\microchip\xc16\v1.11\bin\..\support\dsPIC33F\inc/p33FJ128GP802.inc:3009   *ABS*:00000002 RBOVIF
d:\programfiles\microchip\xc16\v1.11\bin\..\support\dsPIC33F\inc/p33FJ128GP802.inc:3010   *ABS*:00000003 FIFOIF
d:\programfiles\microchip\xc16\v1.11\bin\..\support\dsPIC33F\inc/p33FJ128GP802.inc:3011   *ABS*:00000005 ERRIF
d:\programfiles\microchip\xc16\v1.11\bin\..\support\dsPIC33F\inc/p33FJ128GP802.inc:3012   *ABS*:00000006 WAKIF
d:\programfiles\microchip\xc16\v1.11\bin\..\support\dsPIC33F\inc/p33FJ128GP802.inc:3013   *ABS*:00000007 IVRIF
d:\programfiles\microchip\xc16\v1.11\bin\..\support\dsPIC33F\inc/p33FJ128GP802.inc:3014   *ABS*:00000008 EWARN
d:\programfiles\microchip\xc16\v1.11\bin\..\support\dsPIC33F\inc/p33FJ128GP802.inc:3015   *ABS*:00000009 RXWAR
d:\programfiles\microchip\xc16\v1.11\bin\..\support\dsPIC33F\inc/p33FJ128GP802.inc:3016   *ABS*:0000000a TXWAR
d:\programfiles\microchip\xc16\v1.11\bin\..\support\dsPIC33F\inc/p33FJ128GP802.inc:3017   *ABS*:0000000b RXBP
d:\programfiles\microchip\xc16\v1.11\bin\..\support\dsPIC33F\inc/p33FJ128GP802.inc:3018   *ABS*:0000000c TXBP
d:\programfiles\microchip\xc16\v1.11\bin\..\support\dsPIC33F\inc/p33FJ128GP802.inc:3019   *ABS*:0000000d TXBO
d:\programfiles\microchip\xc16\v1.11\bin\..\support\dsPIC33F\inc/p33FJ128GP802.inc:3023   *ABS*:00000000 TBIE
d:\programfiles\microchip\xc16\v1.11\bin\..\support\dsPIC33F\inc/p33FJ128GP802.inc:3024   *ABS*:00000001 RBIE
d:\programfiles\microchip\xc16\v1.11\bin\..\support\dsPIC33F\inc/p33FJ128GP802.inc:3025   *ABS*:00000002 RBOVIE
d:\programfiles\microchip\xc16\v1.11\bin\..\support\dsPIC33F\inc/p33FJ128GP802.inc:3026   *ABS*:00000003 FIFOIE
d:\programfiles\microchip\xc16\v1.11\bin\..\support\dsPIC33F\inc/p33FJ128GP802.inc:3027   *ABS*:00000005 ERRIE
d:\programfiles\microchip\xc16\v1.11\bin\..\support\dsPIC33F\inc/p33FJ128GP802.inc:3028   *ABS*:00000006 WAKIE
d:\programfiles\microchip\xc16\v1.11\bin\..\support\dsPIC33F\inc/p33FJ128GP802.inc:3029   *ABS*:00000007 IVRIE
d:\programfiles\microchip\xc16\v1.11\bin\..\support\dsPIC33F\inc/p33FJ128GP802.inc:3033   *ABS*:00000000 RERRCNT0
d:\programfiles\microchip\xc16\v1.11\bin\..\support\dsPIC33F\inc/p33FJ128GP802.inc:3034   *ABS*:00000001 RERRCNT1
d:\programfiles\microchip\xc16\v1.11\bin\..\support\dsPIC33F\inc/p33FJ128GP802.inc:3035   *ABS*:00000002 RERRCNT2
d:\programfiles\microchip\xc16\v1.11\bin\..\support\dsPIC33F\inc/p33FJ128GP802.inc:3036   *ABS*:00000003 RERRCNT3
d:\programfiles\microchip\xc16\v1.11\bin\..\support\dsPIC33F\inc/p33FJ128GP802.inc:3037   *ABS*:00000004 RERRCNT4
d:\programfiles\microchip\xc16\v1.11\bin\..\support\dsPIC33F\inc/p33FJ128GP802.inc:3038   *ABS*:00000005 RERRCNT5
d:\programfiles\microchip\xc16\v1.11\bin\..\support\dsPIC33F\inc/p33FJ128GP802.inc:3039   *ABS*:00000006 RERRCNT6
d:\programfiles\microchip\xc16\v1.11\bin\..\support\dsPIC33F\inc/p33FJ128GP802.inc:3040   *ABS*:00000007 RERRCNT7
d:\programfiles\microchip\xc16\v1.11\bin\..\support\dsPIC33F\inc/p33FJ128GP802.inc:3041   *ABS*:00000008 TERRCNT0
d:\programfiles\microchip\xc16\v1.11\bin\..\support\dsPIC33F\inc/p33FJ128GP802.inc:3042   *ABS*:00000009 TERRCNT1
d:\programfiles\microchip\xc16\v1.11\bin\..\support\dsPIC33F\inc/p33FJ128GP802.inc:3043   *ABS*:0000000a TERRCNT2
d:\programfiles\microchip\xc16\v1.11\bin\..\support\dsPIC33F\inc/p33FJ128GP802.inc:3044   *ABS*:0000000b TERRCNT3
d:\programfiles\microchip\xc16\v1.11\bin\..\support\dsPIC33F\inc/p33FJ128GP802.inc:3045   *ABS*:0000000c TERRCNT4
d:\programfiles\microchip\xc16\v1.11\bin\..\support\dsPIC33F\inc/p33FJ128GP802.inc:3046   *ABS*:0000000d TERRCNT5
d:\programfiles\microchip\xc16\v1.11\bin\..\support\dsPIC33F\inc/p33FJ128GP802.inc:3047   *ABS*:0000000e TERRCNT6
d:\programfiles\microchip\xc16\v1.11\bin\..\support\dsPIC33F\inc/p33FJ128GP802.inc:3048   *ABS*:0000000f TERRCNT7
d:\programfiles\microchip\xc16\v1.11\bin\..\support\dsPIC33F\inc/p33FJ128GP802.inc:3052   *ABS*:00000000 BRP0
d:\programfiles\microchip\xc16\v1.11\bin\..\support\dsPIC33F\inc/p33FJ128GP802.inc:3053   *ABS*:00000001 BRP1
d:\programfiles\microchip\xc16\v1.11\bin\..\support\dsPIC33F\inc/p33FJ128GP802.inc:3054   *ABS*:00000002 BRP2
d:\programfiles\microchip\xc16\v1.11\bin\..\support\dsPIC33F\inc/p33FJ128GP802.inc:3055   *ABS*:00000003 BRP3
d:\programfiles\microchip\xc16\v1.11\bin\..\support\dsPIC33F\inc/p33FJ128GP802.inc:3056   *ABS*:00000004 BRP4
d:\programfiles\microchip\xc16\v1.11\bin\..\support\dsPIC33F\inc/p33FJ128GP802.inc:3057   *ABS*:00000005 BRP5
MPLAB ASM30 Listing:  ../src/ff-pic24-30-33.s 			page 167


d:\programfiles\microchip\xc16\v1.11\bin\..\support\dsPIC33F\inc/p33FJ128GP802.inc:3058   *ABS*:00000006 SJW0
d:\programfiles\microchip\xc16\v1.11\bin\..\support\dsPIC33F\inc/p33FJ128GP802.inc:3059   *ABS*:00000007 SJW1
d:\programfiles\microchip\xc16\v1.11\bin\..\support\dsPIC33F\inc/p33FJ128GP802.inc:3063   *ABS*:00000006 SAM
d:\programfiles\microchip\xc16\v1.11\bin\..\support\dsPIC33F\inc/p33FJ128GP802.inc:3064   *ABS*:00000007 SEG2PHTS
d:\programfiles\microchip\xc16\v1.11\bin\..\support\dsPIC33F\inc/p33FJ128GP802.inc:3065   *ABS*:0000000e WAKFIL
d:\programfiles\microchip\xc16\v1.11\bin\..\support\dsPIC33F\inc/p33FJ128GP802.inc:3067   *ABS*:00000000 PRSEG0
d:\programfiles\microchip\xc16\v1.11\bin\..\support\dsPIC33F\inc/p33FJ128GP802.inc:3068   *ABS*:00000001 PRSEG1
d:\programfiles\microchip\xc16\v1.11\bin\..\support\dsPIC33F\inc/p33FJ128GP802.inc:3069   *ABS*:00000002 PRSEG2
d:\programfiles\microchip\xc16\v1.11\bin\..\support\dsPIC33F\inc/p33FJ128GP802.inc:3070   *ABS*:00000003 SEG1PH0
d:\programfiles\microchip\xc16\v1.11\bin\..\support\dsPIC33F\inc/p33FJ128GP802.inc:3071   *ABS*:00000004 SEG1PH1
d:\programfiles\microchip\xc16\v1.11\bin\..\support\dsPIC33F\inc/p33FJ128GP802.inc:3072   *ABS*:00000005 SEG1PH2
d:\programfiles\microchip\xc16\v1.11\bin\..\support\dsPIC33F\inc/p33FJ128GP802.inc:3073   *ABS*:00000008 SEG2PH0
d:\programfiles\microchip\xc16\v1.11\bin\..\support\dsPIC33F\inc/p33FJ128GP802.inc:3074   *ABS*:00000009 SEG2PH1
d:\programfiles\microchip\xc16\v1.11\bin\..\support\dsPIC33F\inc/p33FJ128GP802.inc:3075   *ABS*:0000000a SEG2PH2
d:\programfiles\microchip\xc16\v1.11\bin\..\support\dsPIC33F\inc/p33FJ128GP802.inc:3079   *ABS*:00000000 FLTEN0
d:\programfiles\microchip\xc16\v1.11\bin\..\support\dsPIC33F\inc/p33FJ128GP802.inc:3080   *ABS*:00000001 FLTEN1
d:\programfiles\microchip\xc16\v1.11\bin\..\support\dsPIC33F\inc/p33FJ128GP802.inc:3081   *ABS*:00000002 FLTEN2
d:\programfiles\microchip\xc16\v1.11\bin\..\support\dsPIC33F\inc/p33FJ128GP802.inc:3082   *ABS*:00000003 FLTEN3
d:\programfiles\microchip\xc16\v1.11\bin\..\support\dsPIC33F\inc/p33FJ128GP802.inc:3083   *ABS*:00000004 FLTEN4
d:\programfiles\microchip\xc16\v1.11\bin\..\support\dsPIC33F\inc/p33FJ128GP802.inc:3084   *ABS*:00000005 FLTEN5
d:\programfiles\microchip\xc16\v1.11\bin\..\support\dsPIC33F\inc/p33FJ128GP802.inc:3085   *ABS*:00000006 FLTEN6
d:\programfiles\microchip\xc16\v1.11\bin\..\support\dsPIC33F\inc/p33FJ128GP802.inc:3086   *ABS*:00000007 FLTEN7
d:\programfiles\microchip\xc16\v1.11\bin\..\support\dsPIC33F\inc/p33FJ128GP802.inc:3087   *ABS*:00000008 FLTEN8
d:\programfiles\microchip\xc16\v1.11\bin\..\support\dsPIC33F\inc/p33FJ128GP802.inc:3088   *ABS*:00000009 FLTEN9
d:\programfiles\microchip\xc16\v1.11\bin\..\support\dsPIC33F\inc/p33FJ128GP802.inc:3089   *ABS*:0000000a FLTEN10
d:\programfiles\microchip\xc16\v1.11\bin\..\support\dsPIC33F\inc/p33FJ128GP802.inc:3090   *ABS*:0000000b FLTEN11
d:\programfiles\microchip\xc16\v1.11\bin\..\support\dsPIC33F\inc/p33FJ128GP802.inc:3091   *ABS*:0000000c FLTEN12
d:\programfiles\microchip\xc16\v1.11\bin\..\support\dsPIC33F\inc/p33FJ128GP802.inc:3092   *ABS*:0000000d FLTEN13
d:\programfiles\microchip\xc16\v1.11\bin\..\support\dsPIC33F\inc/p33FJ128GP802.inc:3093   *ABS*:0000000e FLTEN14
d:\programfiles\microchip\xc16\v1.11\bin\..\support\dsPIC33F\inc/p33FJ128GP802.inc:3094   *ABS*:0000000f FLTEN15
d:\programfiles\microchip\xc16\v1.11\bin\..\support\dsPIC33F\inc/p33FJ128GP802.inc:3098   *ABS*:00000000 F0MSK0
d:\programfiles\microchip\xc16\v1.11\bin\..\support\dsPIC33F\inc/p33FJ128GP802.inc:3099   *ABS*:00000001 F0MSK1
d:\programfiles\microchip\xc16\v1.11\bin\..\support\dsPIC33F\inc/p33FJ128GP802.inc:3100   *ABS*:00000002 F1MSK0
d:\programfiles\microchip\xc16\v1.11\bin\..\support\dsPIC33F\inc/p33FJ128GP802.inc:3101   *ABS*:00000003 F1MSK1
d:\programfiles\microchip\xc16\v1.11\bin\..\support\dsPIC33F\inc/p33FJ128GP802.inc:3102   *ABS*:00000004 F2MSK0
d:\programfiles\microchip\xc16\v1.11\bin\..\support\dsPIC33F\inc/p33FJ128GP802.inc:3103   *ABS*:00000005 F2MSK1
d:\programfiles\microchip\xc16\v1.11\bin\..\support\dsPIC33F\inc/p33FJ128GP802.inc:3104   *ABS*:00000006 F3MSK0
d:\programfiles\microchip\xc16\v1.11\bin\..\support\dsPIC33F\inc/p33FJ128GP802.inc:3105   *ABS*:00000007 F3MSK1
d:\programfiles\microchip\xc16\v1.11\bin\..\support\dsPIC33F\inc/p33FJ128GP802.inc:3106   *ABS*:00000008 F4MSK0
d:\programfiles\microchip\xc16\v1.11\bin\..\support\dsPIC33F\inc/p33FJ128GP802.inc:3107   *ABS*:00000009 F4MSK1
d:\programfiles\microchip\xc16\v1.11\bin\..\support\dsPIC33F\inc/p33FJ128GP802.inc:3108   *ABS*:0000000a F5MSK0
d:\programfiles\microchip\xc16\v1.11\bin\..\support\dsPIC33F\inc/p33FJ128GP802.inc:3109   *ABS*:0000000b F5MSK1
d:\programfiles\microchip\xc16\v1.11\bin\..\support\dsPIC33F\inc/p33FJ128GP802.inc:3110   *ABS*:0000000c F6MSK0
d:\programfiles\microchip\xc16\v1.11\bin\..\support\dsPIC33F\inc/p33FJ128GP802.inc:3111   *ABS*:0000000d F6MSK1
d:\programfiles\microchip\xc16\v1.11\bin\..\support\dsPIC33F\inc/p33FJ128GP802.inc:3112   *ABS*:0000000e F7MSK0
d:\programfiles\microchip\xc16\v1.11\bin\..\support\dsPIC33F\inc/p33FJ128GP802.inc:3113   *ABS*:0000000f F7MSK1
d:\programfiles\microchip\xc16\v1.11\bin\..\support\dsPIC33F\inc/p33FJ128GP802.inc:3117   *ABS*:00000000 F8MSK0
d:\programfiles\microchip\xc16\v1.11\bin\..\support\dsPIC33F\inc/p33FJ128GP802.inc:3118   *ABS*:00000001 F8MSK1
d:\programfiles\microchip\xc16\v1.11\bin\..\support\dsPIC33F\inc/p33FJ128GP802.inc:3119   *ABS*:00000002 F9MSK0
d:\programfiles\microchip\xc16\v1.11\bin\..\support\dsPIC33F\inc/p33FJ128GP802.inc:3120   *ABS*:00000003 F9MSK1
d:\programfiles\microchip\xc16\v1.11\bin\..\support\dsPIC33F\inc/p33FJ128GP802.inc:3121   *ABS*:00000004 F10MSK0
d:\programfiles\microchip\xc16\v1.11\bin\..\support\dsPIC33F\inc/p33FJ128GP802.inc:3122   *ABS*:00000005 F10MSK1
d:\programfiles\microchip\xc16\v1.11\bin\..\support\dsPIC33F\inc/p33FJ128GP802.inc:3123   *ABS*:00000006 F11MSK0
d:\programfiles\microchip\xc16\v1.11\bin\..\support\dsPIC33F\inc/p33FJ128GP802.inc:3124   *ABS*:00000007 F11MSK1
d:\programfiles\microchip\xc16\v1.11\bin\..\support\dsPIC33F\inc/p33FJ128GP802.inc:3125   *ABS*:00000008 F12MSK0
d:\programfiles\microchip\xc16\v1.11\bin\..\support\dsPIC33F\inc/p33FJ128GP802.inc:3126   *ABS*:00000009 F12MSK1
d:\programfiles\microchip\xc16\v1.11\bin\..\support\dsPIC33F\inc/p33FJ128GP802.inc:3127   *ABS*:0000000a F13MSK0
MPLAB ASM30 Listing:  ../src/ff-pic24-30-33.s 			page 168


d:\programfiles\microchip\xc16\v1.11\bin\..\support\dsPIC33F\inc/p33FJ128GP802.inc:3128   *ABS*:0000000b F13MSK1
d:\programfiles\microchip\xc16\v1.11\bin\..\support\dsPIC33F\inc/p33FJ128GP802.inc:3129   *ABS*:0000000c F14MSK0
d:\programfiles\microchip\xc16\v1.11\bin\..\support\dsPIC33F\inc/p33FJ128GP802.inc:3130   *ABS*:0000000d F14MSK1
d:\programfiles\microchip\xc16\v1.11\bin\..\support\dsPIC33F\inc/p33FJ128GP802.inc:3131   *ABS*:0000000e F15MSK0
d:\programfiles\microchip\xc16\v1.11\bin\..\support\dsPIC33F\inc/p33FJ128GP802.inc:3132   *ABS*:0000000f F15MSK1
d:\programfiles\microchip\xc16\v1.11\bin\..\support\dsPIC33F\inc/p33FJ128GP802.inc:3136   *ABS*:00000000 F0BP0
d:\programfiles\microchip\xc16\v1.11\bin\..\support\dsPIC33F\inc/p33FJ128GP802.inc:3137   *ABS*:00000001 F0BP1
d:\programfiles\microchip\xc16\v1.11\bin\..\support\dsPIC33F\inc/p33FJ128GP802.inc:3138   *ABS*:00000002 F0BP2
d:\programfiles\microchip\xc16\v1.11\bin\..\support\dsPIC33F\inc/p33FJ128GP802.inc:3139   *ABS*:00000003 F0BP3
d:\programfiles\microchip\xc16\v1.11\bin\..\support\dsPIC33F\inc/p33FJ128GP802.inc:3140   *ABS*:00000004 F1BP0
d:\programfiles\microchip\xc16\v1.11\bin\..\support\dsPIC33F\inc/p33FJ128GP802.inc:3141   *ABS*:00000005 F1BP1
d:\programfiles\microchip\xc16\v1.11\bin\..\support\dsPIC33F\inc/p33FJ128GP802.inc:3142   *ABS*:00000006 F1BP2
d:\programfiles\microchip\xc16\v1.11\bin\..\support\dsPIC33F\inc/p33FJ128GP802.inc:3143   *ABS*:00000007 F1BP3
d:\programfiles\microchip\xc16\v1.11\bin\..\support\dsPIC33F\inc/p33FJ128GP802.inc:3144   *ABS*:00000008 F2BP0
d:\programfiles\microchip\xc16\v1.11\bin\..\support\dsPIC33F\inc/p33FJ128GP802.inc:3145   *ABS*:00000009 F2BP1
d:\programfiles\microchip\xc16\v1.11\bin\..\support\dsPIC33F\inc/p33FJ128GP802.inc:3146   *ABS*:0000000a F2BP2
d:\programfiles\microchip\xc16\v1.11\bin\..\support\dsPIC33F\inc/p33FJ128GP802.inc:3147   *ABS*:0000000b F2BP3
d:\programfiles\microchip\xc16\v1.11\bin\..\support\dsPIC33F\inc/p33FJ128GP802.inc:3148   *ABS*:0000000c F3BP0
d:\programfiles\microchip\xc16\v1.11\bin\..\support\dsPIC33F\inc/p33FJ128GP802.inc:3149   *ABS*:0000000d F3BP1
d:\programfiles\microchip\xc16\v1.11\bin\..\support\dsPIC33F\inc/p33FJ128GP802.inc:3150   *ABS*:0000000e F3BP2
d:\programfiles\microchip\xc16\v1.11\bin\..\support\dsPIC33F\inc/p33FJ128GP802.inc:3151   *ABS*:0000000f F3BP3
d:\programfiles\microchip\xc16\v1.11\bin\..\support\dsPIC33F\inc/p33FJ128GP802.inc:3155   *ABS*:00000000 RXFUL0
d:\programfiles\microchip\xc16\v1.11\bin\..\support\dsPIC33F\inc/p33FJ128GP802.inc:3156   *ABS*:00000001 RXFUL1
d:\programfiles\microchip\xc16\v1.11\bin\..\support\dsPIC33F\inc/p33FJ128GP802.inc:3157   *ABS*:00000002 RXFUL2
d:\programfiles\microchip\xc16\v1.11\bin\..\support\dsPIC33F\inc/p33FJ128GP802.inc:3158   *ABS*:00000003 RXFUL3
d:\programfiles\microchip\xc16\v1.11\bin\..\support\dsPIC33F\inc/p33FJ128GP802.inc:3159   *ABS*:00000004 RXFUL4
d:\programfiles\microchip\xc16\v1.11\bin\..\support\dsPIC33F\inc/p33FJ128GP802.inc:3160   *ABS*:00000005 RXFUL5
d:\programfiles\microchip\xc16\v1.11\bin\..\support\dsPIC33F\inc/p33FJ128GP802.inc:3161   *ABS*:00000006 RXFUL6
d:\programfiles\microchip\xc16\v1.11\bin\..\support\dsPIC33F\inc/p33FJ128GP802.inc:3162   *ABS*:00000007 RXFUL7
d:\programfiles\microchip\xc16\v1.11\bin\..\support\dsPIC33F\inc/p33FJ128GP802.inc:3163   *ABS*:00000008 RXFUL8
d:\programfiles\microchip\xc16\v1.11\bin\..\support\dsPIC33F\inc/p33FJ128GP802.inc:3164   *ABS*:00000009 RXFUL9
d:\programfiles\microchip\xc16\v1.11\bin\..\support\dsPIC33F\inc/p33FJ128GP802.inc:3165   *ABS*:0000000a RXFUL10
d:\programfiles\microchip\xc16\v1.11\bin\..\support\dsPIC33F\inc/p33FJ128GP802.inc:3166   *ABS*:0000000b RXFUL11
d:\programfiles\microchip\xc16\v1.11\bin\..\support\dsPIC33F\inc/p33FJ128GP802.inc:3167   *ABS*:0000000c RXFUL12
d:\programfiles\microchip\xc16\v1.11\bin\..\support\dsPIC33F\inc/p33FJ128GP802.inc:3168   *ABS*:0000000d RXFUL13
d:\programfiles\microchip\xc16\v1.11\bin\..\support\dsPIC33F\inc/p33FJ128GP802.inc:3169   *ABS*:0000000e RXFUL14
d:\programfiles\microchip\xc16\v1.11\bin\..\support\dsPIC33F\inc/p33FJ128GP802.inc:3170   *ABS*:0000000f RXFUL15
d:\programfiles\microchip\xc16\v1.11\bin\..\support\dsPIC33F\inc/p33FJ128GP802.inc:3174   *ABS*:00000000 F4BP0
d:\programfiles\microchip\xc16\v1.11\bin\..\support\dsPIC33F\inc/p33FJ128GP802.inc:3175   *ABS*:00000001 F4BP1
d:\programfiles\microchip\xc16\v1.11\bin\..\support\dsPIC33F\inc/p33FJ128GP802.inc:3176   *ABS*:00000002 F4BP2
d:\programfiles\microchip\xc16\v1.11\bin\..\support\dsPIC33F\inc/p33FJ128GP802.inc:3177   *ABS*:00000003 F4BP3
d:\programfiles\microchip\xc16\v1.11\bin\..\support\dsPIC33F\inc/p33FJ128GP802.inc:3178   *ABS*:00000004 F5BP0
d:\programfiles\microchip\xc16\v1.11\bin\..\support\dsPIC33F\inc/p33FJ128GP802.inc:3179   *ABS*:00000005 F5BP1
d:\programfiles\microchip\xc16\v1.11\bin\..\support\dsPIC33F\inc/p33FJ128GP802.inc:3180   *ABS*:00000006 F5BP2
d:\programfiles\microchip\xc16\v1.11\bin\..\support\dsPIC33F\inc/p33FJ128GP802.inc:3181   *ABS*:00000007 F5BP3
d:\programfiles\microchip\xc16\v1.11\bin\..\support\dsPIC33F\inc/p33FJ128GP802.inc:3182   *ABS*:00000008 F6BP0
d:\programfiles\microchip\xc16\v1.11\bin\..\support\dsPIC33F\inc/p33FJ128GP802.inc:3183   *ABS*:00000009 F6BP1
d:\programfiles\microchip\xc16\v1.11\bin\..\support\dsPIC33F\inc/p33FJ128GP802.inc:3184   *ABS*:0000000a F6BP2
d:\programfiles\microchip\xc16\v1.11\bin\..\support\dsPIC33F\inc/p33FJ128GP802.inc:3185   *ABS*:0000000b F6BP3
d:\programfiles\microchip\xc16\v1.11\bin\..\support\dsPIC33F\inc/p33FJ128GP802.inc:3186   *ABS*:0000000c F7BP0
d:\programfiles\microchip\xc16\v1.11\bin\..\support\dsPIC33F\inc/p33FJ128GP802.inc:3187   *ABS*:0000000d F7BP1
d:\programfiles\microchip\xc16\v1.11\bin\..\support\dsPIC33F\inc/p33FJ128GP802.inc:3188   *ABS*:0000000e F7BP2
d:\programfiles\microchip\xc16\v1.11\bin\..\support\dsPIC33F\inc/p33FJ128GP802.inc:3189   *ABS*:0000000f F7BP3
d:\programfiles\microchip\xc16\v1.11\bin\..\support\dsPIC33F\inc/p33FJ128GP802.inc:3193   *ABS*:00000000 RXFUL16
d:\programfiles\microchip\xc16\v1.11\bin\..\support\dsPIC33F\inc/p33FJ128GP802.inc:3194   *ABS*:00000001 RXFUL17
d:\programfiles\microchip\xc16\v1.11\bin\..\support\dsPIC33F\inc/p33FJ128GP802.inc:3195   *ABS*:00000002 RXFUL18
d:\programfiles\microchip\xc16\v1.11\bin\..\support\dsPIC33F\inc/p33FJ128GP802.inc:3196   *ABS*:00000003 RXFUL19
MPLAB ASM30 Listing:  ../src/ff-pic24-30-33.s 			page 169


d:\programfiles\microchip\xc16\v1.11\bin\..\support\dsPIC33F\inc/p33FJ128GP802.inc:3197   *ABS*:00000004 RXFUL20
d:\programfiles\microchip\xc16\v1.11\bin\..\support\dsPIC33F\inc/p33FJ128GP802.inc:3198   *ABS*:00000005 RXFUL21
d:\programfiles\microchip\xc16\v1.11\bin\..\support\dsPIC33F\inc/p33FJ128GP802.inc:3199   *ABS*:00000006 RXFUL22
d:\programfiles\microchip\xc16\v1.11\bin\..\support\dsPIC33F\inc/p33FJ128GP802.inc:3200   *ABS*:00000007 RXFUL23
d:\programfiles\microchip\xc16\v1.11\bin\..\support\dsPIC33F\inc/p33FJ128GP802.inc:3201   *ABS*:00000008 RXFUL24
d:\programfiles\microchip\xc16\v1.11\bin\..\support\dsPIC33F\inc/p33FJ128GP802.inc:3202   *ABS*:00000009 RXFUL25
d:\programfiles\microchip\xc16\v1.11\bin\..\support\dsPIC33F\inc/p33FJ128GP802.inc:3203   *ABS*:0000000a RXFUL26
d:\programfiles\microchip\xc16\v1.11\bin\..\support\dsPIC33F\inc/p33FJ128GP802.inc:3204   *ABS*:0000000b RXFUL27
d:\programfiles\microchip\xc16\v1.11\bin\..\support\dsPIC33F\inc/p33FJ128GP802.inc:3205   *ABS*:0000000c RXFUL28
d:\programfiles\microchip\xc16\v1.11\bin\..\support\dsPIC33F\inc/p33FJ128GP802.inc:3206   *ABS*:0000000d RXFUL29
d:\programfiles\microchip\xc16\v1.11\bin\..\support\dsPIC33F\inc/p33FJ128GP802.inc:3207   *ABS*:0000000e RXFUL30
d:\programfiles\microchip\xc16\v1.11\bin\..\support\dsPIC33F\inc/p33FJ128GP802.inc:3208   *ABS*:0000000f RXFUL31
d:\programfiles\microchip\xc16\v1.11\bin\..\support\dsPIC33F\inc/p33FJ128GP802.inc:3212   *ABS*:00000000 F8BP0
d:\programfiles\microchip\xc16\v1.11\bin\..\support\dsPIC33F\inc/p33FJ128GP802.inc:3213   *ABS*:00000001 F8BP1
d:\programfiles\microchip\xc16\v1.11\bin\..\support\dsPIC33F\inc/p33FJ128GP802.inc:3214   *ABS*:00000002 F8BP2
d:\programfiles\microchip\xc16\v1.11\bin\..\support\dsPIC33F\inc/p33FJ128GP802.inc:3215   *ABS*:00000003 F8BP3
d:\programfiles\microchip\xc16\v1.11\bin\..\support\dsPIC33F\inc/p33FJ128GP802.inc:3216   *ABS*:00000004 F9BP0
d:\programfiles\microchip\xc16\v1.11\bin\..\support\dsPIC33F\inc/p33FJ128GP802.inc:3217   *ABS*:00000005 F9BP1
d:\programfiles\microchip\xc16\v1.11\bin\..\support\dsPIC33F\inc/p33FJ128GP802.inc:3218   *ABS*:00000006 F9BP2
d:\programfiles\microchip\xc16\v1.11\bin\..\support\dsPIC33F\inc/p33FJ128GP802.inc:3219   *ABS*:00000007 F9BP3
d:\programfiles\microchip\xc16\v1.11\bin\..\support\dsPIC33F\inc/p33FJ128GP802.inc:3220   *ABS*:00000008 F10BP0
d:\programfiles\microchip\xc16\v1.11\bin\..\support\dsPIC33F\inc/p33FJ128GP802.inc:3221   *ABS*:00000009 F10BP1
d:\programfiles\microchip\xc16\v1.11\bin\..\support\dsPIC33F\inc/p33FJ128GP802.inc:3222   *ABS*:0000000a F10BP2
d:\programfiles\microchip\xc16\v1.11\bin\..\support\dsPIC33F\inc/p33FJ128GP802.inc:3223   *ABS*:0000000b F10BP3
d:\programfiles\microchip\xc16\v1.11\bin\..\support\dsPIC33F\inc/p33FJ128GP802.inc:3224   *ABS*:0000000c F11BP0
d:\programfiles\microchip\xc16\v1.11\bin\..\support\dsPIC33F\inc/p33FJ128GP802.inc:3225   *ABS*:0000000d F11BP1
d:\programfiles\microchip\xc16\v1.11\bin\..\support\dsPIC33F\inc/p33FJ128GP802.inc:3226   *ABS*:0000000e F11BP2
d:\programfiles\microchip\xc16\v1.11\bin\..\support\dsPIC33F\inc/p33FJ128GP802.inc:3227   *ABS*:0000000f F11BP3
d:\programfiles\microchip\xc16\v1.11\bin\..\support\dsPIC33F\inc/p33FJ128GP802.inc:3231   *ABS*:00000000 F12BP0
d:\programfiles\microchip\xc16\v1.11\bin\..\support\dsPIC33F\inc/p33FJ128GP802.inc:3232   *ABS*:00000001 F12BP1
d:\programfiles\microchip\xc16\v1.11\bin\..\support\dsPIC33F\inc/p33FJ128GP802.inc:3233   *ABS*:00000002 F12BP2
d:\programfiles\microchip\xc16\v1.11\bin\..\support\dsPIC33F\inc/p33FJ128GP802.inc:3234   *ABS*:00000003 F12BP3
d:\programfiles\microchip\xc16\v1.11\bin\..\support\dsPIC33F\inc/p33FJ128GP802.inc:3235   *ABS*:00000004 F13BP0
d:\programfiles\microchip\xc16\v1.11\bin\..\support\dsPIC33F\inc/p33FJ128GP802.inc:3236   *ABS*:00000005 F13BP1
d:\programfiles\microchip\xc16\v1.11\bin\..\support\dsPIC33F\inc/p33FJ128GP802.inc:3237   *ABS*:00000006 F13BP2
d:\programfiles\microchip\xc16\v1.11\bin\..\support\dsPIC33F\inc/p33FJ128GP802.inc:3238   *ABS*:00000007 F13BP3
d:\programfiles\microchip\xc16\v1.11\bin\..\support\dsPIC33F\inc/p33FJ128GP802.inc:3239   *ABS*:00000008 F14BP0
d:\programfiles\microchip\xc16\v1.11\bin\..\support\dsPIC33F\inc/p33FJ128GP802.inc:3240   *ABS*:00000009 F14BP1
d:\programfiles\microchip\xc16\v1.11\bin\..\support\dsPIC33F\inc/p33FJ128GP802.inc:3241   *ABS*:0000000a F14BP2
d:\programfiles\microchip\xc16\v1.11\bin\..\support\dsPIC33F\inc/p33FJ128GP802.inc:3242   *ABS*:0000000b F14BP3
d:\programfiles\microchip\xc16\v1.11\bin\..\support\dsPIC33F\inc/p33FJ128GP802.inc:3243   *ABS*:0000000c F15BP0
d:\programfiles\microchip\xc16\v1.11\bin\..\support\dsPIC33F\inc/p33FJ128GP802.inc:3244   *ABS*:0000000d F15BP1
d:\programfiles\microchip\xc16\v1.11\bin\..\support\dsPIC33F\inc/p33FJ128GP802.inc:3245   *ABS*:0000000e F15BP2
d:\programfiles\microchip\xc16\v1.11\bin\..\support\dsPIC33F\inc/p33FJ128GP802.inc:3246   *ABS*:0000000f F15BP3
d:\programfiles\microchip\xc16\v1.11\bin\..\support\dsPIC33F\inc/p33FJ128GP802.inc:3250   *ABS*:00000000 RXOVF0
d:\programfiles\microchip\xc16\v1.11\bin\..\support\dsPIC33F\inc/p33FJ128GP802.inc:3251   *ABS*:00000001 RXOVF1
d:\programfiles\microchip\xc16\v1.11\bin\..\support\dsPIC33F\inc/p33FJ128GP802.inc:3252   *ABS*:00000002 RXOVF2
d:\programfiles\microchip\xc16\v1.11\bin\..\support\dsPIC33F\inc/p33FJ128GP802.inc:3253   *ABS*:00000003 RXOVF3
d:\programfiles\microchip\xc16\v1.11\bin\..\support\dsPIC33F\inc/p33FJ128GP802.inc:3254   *ABS*:00000004 RXOVF4
d:\programfiles\microchip\xc16\v1.11\bin\..\support\dsPIC33F\inc/p33FJ128GP802.inc:3255   *ABS*:00000005 RXOVF5
d:\programfiles\microchip\xc16\v1.11\bin\..\support\dsPIC33F\inc/p33FJ128GP802.inc:3256   *ABS*:00000006 RXOVF6
d:\programfiles\microchip\xc16\v1.11\bin\..\support\dsPIC33F\inc/p33FJ128GP802.inc:3257   *ABS*:00000007 RXOVF7
d:\programfiles\microchip\xc16\v1.11\bin\..\support\dsPIC33F\inc/p33FJ128GP802.inc:3258   *ABS*:00000008 RXOVF8
d:\programfiles\microchip\xc16\v1.11\bin\..\support\dsPIC33F\inc/p33FJ128GP802.inc:3259   *ABS*:00000009 RXOVF9
d:\programfiles\microchip\xc16\v1.11\bin\..\support\dsPIC33F\inc/p33FJ128GP802.inc:3260   *ABS*:0000000a RXOVF10
d:\programfiles\microchip\xc16\v1.11\bin\..\support\dsPIC33F\inc/p33FJ128GP802.inc:3261   *ABS*:0000000b RXOVF11
d:\programfiles\microchip\xc16\v1.11\bin\..\support\dsPIC33F\inc/p33FJ128GP802.inc:3262   *ABS*:0000000c RXOVF12
MPLAB ASM30 Listing:  ../src/ff-pic24-30-33.s 			page 170


d:\programfiles\microchip\xc16\v1.11\bin\..\support\dsPIC33F\inc/p33FJ128GP802.inc:3263   *ABS*:0000000d RXOVF13
d:\programfiles\microchip\xc16\v1.11\bin\..\support\dsPIC33F\inc/p33FJ128GP802.inc:3264   *ABS*:0000000e RXOVF14
d:\programfiles\microchip\xc16\v1.11\bin\..\support\dsPIC33F\inc/p33FJ128GP802.inc:3265   *ABS*:0000000f RXOVF15
d:\programfiles\microchip\xc16\v1.11\bin\..\support\dsPIC33F\inc/p33FJ128GP802.inc:3269   *ABS*:00000000 RXOVF16
d:\programfiles\microchip\xc16\v1.11\bin\..\support\dsPIC33F\inc/p33FJ128GP802.inc:3270   *ABS*:00000001 RXOVF17
d:\programfiles\microchip\xc16\v1.11\bin\..\support\dsPIC33F\inc/p33FJ128GP802.inc:3271   *ABS*:00000002 RXOVF18
d:\programfiles\microchip\xc16\v1.11\bin\..\support\dsPIC33F\inc/p33FJ128GP802.inc:3272   *ABS*:00000003 RXOVF19
d:\programfiles\microchip\xc16\v1.11\bin\..\support\dsPIC33F\inc/p33FJ128GP802.inc:3273   *ABS*:00000004 RXOVF20
d:\programfiles\microchip\xc16\v1.11\bin\..\support\dsPIC33F\inc/p33FJ128GP802.inc:3274   *ABS*:00000005 RXOVF21
d:\programfiles\microchip\xc16\v1.11\bin\..\support\dsPIC33F\inc/p33FJ128GP802.inc:3275   *ABS*:00000006 RXOVF22
d:\programfiles\microchip\xc16\v1.11\bin\..\support\dsPIC33F\inc/p33FJ128GP802.inc:3276   *ABS*:00000007 RXOVF23
d:\programfiles\microchip\xc16\v1.11\bin\..\support\dsPIC33F\inc/p33FJ128GP802.inc:3277   *ABS*:00000008 RXOVF24
d:\programfiles\microchip\xc16\v1.11\bin\..\support\dsPIC33F\inc/p33FJ128GP802.inc:3278   *ABS*:00000009 RXOVF25
d:\programfiles\microchip\xc16\v1.11\bin\..\support\dsPIC33F\inc/p33FJ128GP802.inc:3279   *ABS*:0000000a RXOVF26
d:\programfiles\microchip\xc16\v1.11\bin\..\support\dsPIC33F\inc/p33FJ128GP802.inc:3280   *ABS*:0000000b RXOVF27
d:\programfiles\microchip\xc16\v1.11\bin\..\support\dsPIC33F\inc/p33FJ128GP802.inc:3281   *ABS*:0000000c RXOVF28
d:\programfiles\microchip\xc16\v1.11\bin\..\support\dsPIC33F\inc/p33FJ128GP802.inc:3282   *ABS*:0000000d RXOVF29
d:\programfiles\microchip\xc16\v1.11\bin\..\support\dsPIC33F\inc/p33FJ128GP802.inc:3283   *ABS*:0000000e RXOVF30
d:\programfiles\microchip\xc16\v1.11\bin\..\support\dsPIC33F\inc/p33FJ128GP802.inc:3284   *ABS*:0000000f RXOVF31
d:\programfiles\microchip\xc16\v1.11\bin\..\support\dsPIC33F\inc/p33FJ128GP802.inc:3288   *ABS*:00000000 EID16
d:\programfiles\microchip\xc16\v1.11\bin\..\support\dsPIC33F\inc/p33FJ128GP802.inc:3289   *ABS*:00000001 EID17
d:\programfiles\microchip\xc16\v1.11\bin\..\support\dsPIC33F\inc/p33FJ128GP802.inc:3290   *ABS*:00000003 MIDE
d:\programfiles\microchip\xc16\v1.11\bin\..\support\dsPIC33F\inc/p33FJ128GP802.inc:3291   *ABS*:00000005 SID0
d:\programfiles\microchip\xc16\v1.11\bin\..\support\dsPIC33F\inc/p33FJ128GP802.inc:3292   *ABS*:00000006 SID1
d:\programfiles\microchip\xc16\v1.11\bin\..\support\dsPIC33F\inc/p33FJ128GP802.inc:3293   *ABS*:00000007 SID2
d:\programfiles\microchip\xc16\v1.11\bin\..\support\dsPIC33F\inc/p33FJ128GP802.inc:3294   *ABS*:00000008 SID3
d:\programfiles\microchip\xc16\v1.11\bin\..\support\dsPIC33F\inc/p33FJ128GP802.inc:3295   *ABS*:00000009 SID4
d:\programfiles\microchip\xc16\v1.11\bin\..\support\dsPIC33F\inc/p33FJ128GP802.inc:3296   *ABS*:0000000a SID5
d:\programfiles\microchip\xc16\v1.11\bin\..\support\dsPIC33F\inc/p33FJ128GP802.inc:3297   *ABS*:0000000b SID6
d:\programfiles\microchip\xc16\v1.11\bin\..\support\dsPIC33F\inc/p33FJ128GP802.inc:3298   *ABS*:0000000c SID7
d:\programfiles\microchip\xc16\v1.11\bin\..\support\dsPIC33F\inc/p33FJ128GP802.inc:3299   *ABS*:0000000d SID8
d:\programfiles\microchip\xc16\v1.11\bin\..\support\dsPIC33F\inc/p33FJ128GP802.inc:3300   *ABS*:0000000e SID9
d:\programfiles\microchip\xc16\v1.11\bin\..\support\dsPIC33F\inc/p33FJ128GP802.inc:3301   *ABS*:0000000f SID10
d:\programfiles\microchip\xc16\v1.11\bin\..\support\dsPIC33F\inc/p33FJ128GP802.inc:3306   *ABS*:00000002 RTREN0
d:\programfiles\microchip\xc16\v1.11\bin\..\support\dsPIC33F\inc/p33FJ128GP802.inc:3307   *ABS*:00000003 TXREQ0
d:\programfiles\microchip\xc16\v1.11\bin\..\support\dsPIC33F\inc/p33FJ128GP802.inc:3308   *ABS*:00000004 TXERR0
d:\programfiles\microchip\xc16\v1.11\bin\..\support\dsPIC33F\inc/p33FJ128GP802.inc:3309   *ABS*:00000005 TXLARB0
d:\programfiles\microchip\xc16\v1.11\bin\..\support\dsPIC33F\inc/p33FJ128GP802.inc:3310   *ABS*:00000006 TXABT0
d:\programfiles\microchip\xc16\v1.11\bin\..\support\dsPIC33F\inc/p33FJ128GP802.inc:3311   *ABS*:00000007 TXEN0
d:\programfiles\microchip\xc16\v1.11\bin\..\support\dsPIC33F\inc/p33FJ128GP802.inc:3312   *ABS*:0000000a RTREN1
d:\programfiles\microchip\xc16\v1.11\bin\..\support\dsPIC33F\inc/p33FJ128GP802.inc:3313   *ABS*:0000000b TXREQ1
d:\programfiles\microchip\xc16\v1.11\bin\..\support\dsPIC33F\inc/p33FJ128GP802.inc:3314   *ABS*:0000000c TXERR1
d:\programfiles\microchip\xc16\v1.11\bin\..\support\dsPIC33F\inc/p33FJ128GP802.inc:3315   *ABS*:0000000d TXLARB1
d:\programfiles\microchip\xc16\v1.11\bin\..\support\dsPIC33F\inc/p33FJ128GP802.inc:3316   *ABS*:0000000e TXABT1
d:\programfiles\microchip\xc16\v1.11\bin\..\support\dsPIC33F\inc/p33FJ128GP802.inc:3317   *ABS*:0000000f TXEN1
d:\programfiles\microchip\xc16\v1.11\bin\..\support\dsPIC33F\inc/p33FJ128GP802.inc:3319   *ABS*:00000000 TX0PRI0
d:\programfiles\microchip\xc16\v1.11\bin\..\support\dsPIC33F\inc/p33FJ128GP802.inc:3320   *ABS*:00000001 TX0PRI1
d:\programfiles\microchip\xc16\v1.11\bin\..\support\dsPIC33F\inc/p33FJ128GP802.inc:3321   *ABS*:00000008 TX1PRI0
d:\programfiles\microchip\xc16\v1.11\bin\..\support\dsPIC33F\inc/p33FJ128GP802.inc:3322   *ABS*:00000009 TX1PRI1
d:\programfiles\microchip\xc16\v1.11\bin\..\support\dsPIC33F\inc/p33FJ128GP802.inc:3326   *ABS*:00000000 EID0
d:\programfiles\microchip\xc16\v1.11\bin\..\support\dsPIC33F\inc/p33FJ128GP802.inc:3327   *ABS*:00000001 EID1
d:\programfiles\microchip\xc16\v1.11\bin\..\support\dsPIC33F\inc/p33FJ128GP802.inc:3328   *ABS*:00000002 EID2
d:\programfiles\microchip\xc16\v1.11\bin\..\support\dsPIC33F\inc/p33FJ128GP802.inc:3329   *ABS*:00000003 EID3
d:\programfiles\microchip\xc16\v1.11\bin\..\support\dsPIC33F\inc/p33FJ128GP802.inc:3330   *ABS*:00000004 EID4
d:\programfiles\microchip\xc16\v1.11\bin\..\support\dsPIC33F\inc/p33FJ128GP802.inc:3331   *ABS*:00000005 EID5
d:\programfiles\microchip\xc16\v1.11\bin\..\support\dsPIC33F\inc/p33FJ128GP802.inc:3332   *ABS*:00000006 EID6
d:\programfiles\microchip\xc16\v1.11\bin\..\support\dsPIC33F\inc/p33FJ128GP802.inc:3333   *ABS*:00000007 EID7
MPLAB ASM30 Listing:  ../src/ff-pic24-30-33.s 			page 171


d:\programfiles\microchip\xc16\v1.11\bin\..\support\dsPIC33F\inc/p33FJ128GP802.inc:3334   *ABS*:00000008 EID8
d:\programfiles\microchip\xc16\v1.11\bin\..\support\dsPIC33F\inc/p33FJ128GP802.inc:3335   *ABS*:00000009 EID9
d:\programfiles\microchip\xc16\v1.11\bin\..\support\dsPIC33F\inc/p33FJ128GP802.inc:3336   *ABS*:0000000a EID10
d:\programfiles\microchip\xc16\v1.11\bin\..\support\dsPIC33F\inc/p33FJ128GP802.inc:3337   *ABS*:0000000b EID11
d:\programfiles\microchip\xc16\v1.11\bin\..\support\dsPIC33F\inc/p33FJ128GP802.inc:3338   *ABS*:0000000c EID12
d:\programfiles\microchip\xc16\v1.11\bin\..\support\dsPIC33F\inc/p33FJ128GP802.inc:3339   *ABS*:0000000d EID13
d:\programfiles\microchip\xc16\v1.11\bin\..\support\dsPIC33F\inc/p33FJ128GP802.inc:3340   *ABS*:0000000e EID14
d:\programfiles\microchip\xc16\v1.11\bin\..\support\dsPIC33F\inc/p33FJ128GP802.inc:3341   *ABS*:0000000f EID15
d:\programfiles\microchip\xc16\v1.11\bin\..\support\dsPIC33F\inc/p33FJ128GP802.inc:3346   *ABS*:00000002 RTREN2
d:\programfiles\microchip\xc16\v1.11\bin\..\support\dsPIC33F\inc/p33FJ128GP802.inc:3347   *ABS*:00000003 TXREQ2
d:\programfiles\microchip\xc16\v1.11\bin\..\support\dsPIC33F\inc/p33FJ128GP802.inc:3348   *ABS*:00000004 TXERR2
d:\programfiles\microchip\xc16\v1.11\bin\..\support\dsPIC33F\inc/p33FJ128GP802.inc:3349   *ABS*:00000005 TXLARB2
d:\programfiles\microchip\xc16\v1.11\bin\..\support\dsPIC33F\inc/p33FJ128GP802.inc:3350   *ABS*:00000006 TXABT2
d:\programfiles\microchip\xc16\v1.11\bin\..\support\dsPIC33F\inc/p33FJ128GP802.inc:3351   *ABS*:00000007 TXEN2
d:\programfiles\microchip\xc16\v1.11\bin\..\support\dsPIC33F\inc/p33FJ128GP802.inc:3352   *ABS*:0000000a RTREN3
d:\programfiles\microchip\xc16\v1.11\bin\..\support\dsPIC33F\inc/p33FJ128GP802.inc:3353   *ABS*:0000000b TXREQ3
d:\programfiles\microchip\xc16\v1.11\bin\..\support\dsPIC33F\inc/p33FJ128GP802.inc:3354   *ABS*:0000000c TXERR3
d:\programfiles\microchip\xc16\v1.11\bin\..\support\dsPIC33F\inc/p33FJ128GP802.inc:3355   *ABS*:0000000d TXLARB3
d:\programfiles\microchip\xc16\v1.11\bin\..\support\dsPIC33F\inc/p33FJ128GP802.inc:3356   *ABS*:0000000e TXABT3
d:\programfiles\microchip\xc16\v1.11\bin\..\support\dsPIC33F\inc/p33FJ128GP802.inc:3357   *ABS*:0000000f TXEN3
d:\programfiles\microchip\xc16\v1.11\bin\..\support\dsPIC33F\inc/p33FJ128GP802.inc:3359   *ABS*:00000000 TX2PRI0
d:\programfiles\microchip\xc16\v1.11\bin\..\support\dsPIC33F\inc/p33FJ128GP802.inc:3360   *ABS*:00000001 TX2PRI1
d:\programfiles\microchip\xc16\v1.11\bin\..\support\dsPIC33F\inc/p33FJ128GP802.inc:3361   *ABS*:00000008 TX3PRI0
d:\programfiles\microchip\xc16\v1.11\bin\..\support\dsPIC33F\inc/p33FJ128GP802.inc:3362   *ABS*:00000009 TX3PRI1
d:\programfiles\microchip\xc16\v1.11\bin\..\support\dsPIC33F\inc/p33FJ128GP802.inc:3384   *ABS*:00000002 RTREN4
d:\programfiles\microchip\xc16\v1.11\bin\..\support\dsPIC33F\inc/p33FJ128GP802.inc:3385   *ABS*:00000003 TXREQ4
d:\programfiles\microchip\xc16\v1.11\bin\..\support\dsPIC33F\inc/p33FJ128GP802.inc:3386   *ABS*:00000004 TXERR4
d:\programfiles\microchip\xc16\v1.11\bin\..\support\dsPIC33F\inc/p33FJ128GP802.inc:3387   *ABS*:00000005 TXLARB4
d:\programfiles\microchip\xc16\v1.11\bin\..\support\dsPIC33F\inc/p33FJ128GP802.inc:3388   *ABS*:00000006 TXABT4
d:\programfiles\microchip\xc16\v1.11\bin\..\support\dsPIC33F\inc/p33FJ128GP802.inc:3389   *ABS*:00000007 TXEN4
d:\programfiles\microchip\xc16\v1.11\bin\..\support\dsPIC33F\inc/p33FJ128GP802.inc:3390   *ABS*:0000000a RTREN5
d:\programfiles\microchip\xc16\v1.11\bin\..\support\dsPIC33F\inc/p33FJ128GP802.inc:3391   *ABS*:0000000b TXREQ5
d:\programfiles\microchip\xc16\v1.11\bin\..\support\dsPIC33F\inc/p33FJ128GP802.inc:3392   *ABS*:0000000c TXERR5
d:\programfiles\microchip\xc16\v1.11\bin\..\support\dsPIC33F\inc/p33FJ128GP802.inc:3393   *ABS*:0000000d TXLARB5
d:\programfiles\microchip\xc16\v1.11\bin\..\support\dsPIC33F\inc/p33FJ128GP802.inc:3394   *ABS*:0000000e TXABT5
d:\programfiles\microchip\xc16\v1.11\bin\..\support\dsPIC33F\inc/p33FJ128GP802.inc:3395   *ABS*:0000000f TXEN5
d:\programfiles\microchip\xc16\v1.11\bin\..\support\dsPIC33F\inc/p33FJ128GP802.inc:3397   *ABS*:00000000 TX4PRI0
d:\programfiles\microchip\xc16\v1.11\bin\..\support\dsPIC33F\inc/p33FJ128GP802.inc:3398   *ABS*:00000001 TX4PRI1
d:\programfiles\microchip\xc16\v1.11\bin\..\support\dsPIC33F\inc/p33FJ128GP802.inc:3399   *ABS*:00000008 TX5PRI0
d:\programfiles\microchip\xc16\v1.11\bin\..\support\dsPIC33F\inc/p33FJ128GP802.inc:3400   *ABS*:00000009 TX5PRI1
d:\programfiles\microchip\xc16\v1.11\bin\..\support\dsPIC33F\inc/p33FJ128GP802.inc:3424   *ABS*:00000002 RTREN6
d:\programfiles\microchip\xc16\v1.11\bin\..\support\dsPIC33F\inc/p33FJ128GP802.inc:3425   *ABS*:00000003 TXREQ6
d:\programfiles\microchip\xc16\v1.11\bin\..\support\dsPIC33F\inc/p33FJ128GP802.inc:3426   *ABS*:00000004 TXERR6
d:\programfiles\microchip\xc16\v1.11\bin\..\support\dsPIC33F\inc/p33FJ128GP802.inc:3427   *ABS*:00000005 TXLARB6
d:\programfiles\microchip\xc16\v1.11\bin\..\support\dsPIC33F\inc/p33FJ128GP802.inc:3428   *ABS*:00000006 TXABT6
d:\programfiles\microchip\xc16\v1.11\bin\..\support\dsPIC33F\inc/p33FJ128GP802.inc:3429   *ABS*:00000007 TXEN6
d:\programfiles\microchip\xc16\v1.11\bin\..\support\dsPIC33F\inc/p33FJ128GP802.inc:3430   *ABS*:0000000a RTREN7
d:\programfiles\microchip\xc16\v1.11\bin\..\support\dsPIC33F\inc/p33FJ128GP802.inc:3431   *ABS*:0000000b TXREQ7
d:\programfiles\microchip\xc16\v1.11\bin\..\support\dsPIC33F\inc/p33FJ128GP802.inc:3432   *ABS*:0000000c TXERR7
d:\programfiles\microchip\xc16\v1.11\bin\..\support\dsPIC33F\inc/p33FJ128GP802.inc:3433   *ABS*:0000000d TXLARB7
d:\programfiles\microchip\xc16\v1.11\bin\..\support\dsPIC33F\inc/p33FJ128GP802.inc:3434   *ABS*:0000000e TXABT7
d:\programfiles\microchip\xc16\v1.11\bin\..\support\dsPIC33F\inc/p33FJ128GP802.inc:3435   *ABS*:0000000f TXEN7
d:\programfiles\microchip\xc16\v1.11\bin\..\support\dsPIC33F\inc/p33FJ128GP802.inc:3437   *ABS*:00000000 TX6PRI0
d:\programfiles\microchip\xc16\v1.11\bin\..\support\dsPIC33F\inc/p33FJ128GP802.inc:3438   *ABS*:00000001 TX6PRI1
d:\programfiles\microchip\xc16\v1.11\bin\..\support\dsPIC33F\inc/p33FJ128GP802.inc:3439   *ABS*:00000008 TX7PRI0
d:\programfiles\microchip\xc16\v1.11\bin\..\support\dsPIC33F\inc/p33FJ128GP802.inc:3440   *ABS*:00000009 TX7PRI1
d:\programfiles\microchip\xc16\v1.11\bin\..\support\dsPIC33F\inc/p33FJ128GP802.inc:3484   *ABS*:00000003 EXIDE
MPLAB ASM30 Listing:  ../src/ff-pic24-30-33.s 			page 172


d:\programfiles\microchip\xc16\v1.11\bin\..\support\dsPIC33F\inc/p33FJ128GP802.inc:4074   *ABS*:00000000 RDSP
d:\programfiles\microchip\xc16\v1.11\bin\..\support\dsPIC33F\inc/p33FJ128GP802.inc:4075   *ABS*:00000001 WRSP
d:\programfiles\microchip\xc16\v1.11\bin\..\support\dsPIC33F\inc/p33FJ128GP802.inc:4076   *ABS*:00000002 BEP
d:\programfiles\microchip\xc16\v1.11\bin\..\support\dsPIC33F\inc/p33FJ128GP802.inc:4077   *ABS*:00000003 CS1P
d:\programfiles\microchip\xc16\v1.11\bin\..\support\dsPIC33F\inc/p33FJ128GP802.inc:4078   *ABS*:00000005 ALP
d:\programfiles\microchip\xc16\v1.11\bin\..\support\dsPIC33F\inc/p33FJ128GP802.inc:4079   *ABS*:00000008 PTRDEN
d:\programfiles\microchip\xc16\v1.11\bin\..\support\dsPIC33F\inc/p33FJ128GP802.inc:4080   *ABS*:00000009 PTWREN
d:\programfiles\microchip\xc16\v1.11\bin\..\support\dsPIC33F\inc/p33FJ128GP802.inc:4081   *ABS*:0000000a PTBEEN
d:\programfiles\microchip\xc16\v1.11\bin\..\support\dsPIC33F\inc/p33FJ128GP802.inc:4082   *ABS*:0000000d PSIDL
d:\programfiles\microchip\xc16\v1.11\bin\..\support\dsPIC33F\inc/p33FJ128GP802.inc:4083   *ABS*:0000000f PMPEN
d:\programfiles\microchip\xc16\v1.11\bin\..\support\dsPIC33F\inc/p33FJ128GP802.inc:4085   *ABS*:00000006 CSF0
d:\programfiles\microchip\xc16\v1.11\bin\..\support\dsPIC33F\inc/p33FJ128GP802.inc:4086   *ABS*:00000007 CSF1
d:\programfiles\microchip\xc16\v1.11\bin\..\support\dsPIC33F\inc/p33FJ128GP802.inc:4087   *ABS*:0000000b ADRMUX0
d:\programfiles\microchip\xc16\v1.11\bin\..\support\dsPIC33F\inc/p33FJ128GP802.inc:4088   *ABS*:0000000c ADRMUX1
d:\programfiles\microchip\xc16\v1.11\bin\..\support\dsPIC33F\inc/p33FJ128GP802.inc:4093   *ABS*:0000000f BUSY
d:\programfiles\microchip\xc16\v1.11\bin\..\support\dsPIC33F\inc/p33FJ128GP802.inc:4095   *ABS*:00000000 WAITE0
d:\programfiles\microchip\xc16\v1.11\bin\..\support\dsPIC33F\inc/p33FJ128GP802.inc:4096   *ABS*:00000001 WAITE1
d:\programfiles\microchip\xc16\v1.11\bin\..\support\dsPIC33F\inc/p33FJ128GP802.inc:4097   *ABS*:00000002 WAITM0
d:\programfiles\microchip\xc16\v1.11\bin\..\support\dsPIC33F\inc/p33FJ128GP802.inc:4098   *ABS*:00000003 WAITM1
d:\programfiles\microchip\xc16\v1.11\bin\..\support\dsPIC33F\inc/p33FJ128GP802.inc:4099   *ABS*:00000004 WAITM2
d:\programfiles\microchip\xc16\v1.11\bin\..\support\dsPIC33F\inc/p33FJ128GP802.inc:4100   *ABS*:00000005 WAITM3
d:\programfiles\microchip\xc16\v1.11\bin\..\support\dsPIC33F\inc/p33FJ128GP802.inc:4101   *ABS*:00000006 WAITB0
d:\programfiles\microchip\xc16\v1.11\bin\..\support\dsPIC33F\inc/p33FJ128GP802.inc:4102   *ABS*:00000007 WAITB1
d:\programfiles\microchip\xc16\v1.11\bin\..\support\dsPIC33F\inc/p33FJ128GP802.inc:4103   *ABS*:00000008 MODE0_PMMODE
d:\programfiles\microchip\xc16\v1.11\bin\..\support\dsPIC33F\inc/p33FJ128GP802.inc:4104   *ABS*:00000009 MODE1_PMMODE
d:\programfiles\microchip\xc16\v1.11\bin\..\support\dsPIC33F\inc/p33FJ128GP802.inc:4105   *ABS*:0000000b INCM0
d:\programfiles\microchip\xc16\v1.11\bin\..\support\dsPIC33F\inc/p33FJ128GP802.inc:4106   *ABS*:0000000c INCM1
d:\programfiles\microchip\xc16\v1.11\bin\..\support\dsPIC33F\inc/p33FJ128GP802.inc:4107   *ABS*:0000000d IRQM0
d:\programfiles\microchip\xc16\v1.11\bin\..\support\dsPIC33F\inc/p33FJ128GP802.inc:4108   *ABS*:0000000e IRQM1
d:\programfiles\microchip\xc16\v1.11\bin\..\support\dsPIC33F\inc/p33FJ128GP802.inc:4112   *ABS*:0000000e CS1
d:\programfiles\microchip\xc16\v1.11\bin\..\support\dsPIC33F\inc/p33FJ128GP802.inc:4113   *ABS*:0000000f ADDR15
d:\programfiles\microchip\xc16\v1.11\bin\..\support\dsPIC33F\inc/p33FJ128GP802.inc:4115   *ABS*:00000000 ADDR0
d:\programfiles\microchip\xc16\v1.11\bin\..\support\dsPIC33F\inc/p33FJ128GP802.inc:4116   *ABS*:00000001 ADDR1
d:\programfiles\microchip\xc16\v1.11\bin\..\support\dsPIC33F\inc/p33FJ128GP802.inc:4117   *ABS*:00000002 ADDR2
d:\programfiles\microchip\xc16\v1.11\bin\..\support\dsPIC33F\inc/p33FJ128GP802.inc:4118   *ABS*:00000003 ADDR3
d:\programfiles\microchip\xc16\v1.11\bin\..\support\dsPIC33F\inc/p33FJ128GP802.inc:4119   *ABS*:00000004 ADDR4
d:\programfiles\microchip\xc16\v1.11\bin\..\support\dsPIC33F\inc/p33FJ128GP802.inc:4120   *ABS*:00000005 ADDR5
d:\programfiles\microchip\xc16\v1.11\bin\..\support\dsPIC33F\inc/p33FJ128GP802.inc:4121   *ABS*:00000006 ADDR6
d:\programfiles\microchip\xc16\v1.11\bin\..\support\dsPIC33F\inc/p33FJ128GP802.inc:4122   *ABS*:00000007 ADDR7
d:\programfiles\microchip\xc16\v1.11\bin\..\support\dsPIC33F\inc/p33FJ128GP802.inc:4123   *ABS*:00000008 ADDR8
d:\programfiles\microchip\xc16\v1.11\bin\..\support\dsPIC33F\inc/p33FJ128GP802.inc:4124   *ABS*:00000009 ADDR9
d:\programfiles\microchip\xc16\v1.11\bin\..\support\dsPIC33F\inc/p33FJ128GP802.inc:4125   *ABS*:0000000a ADDR10
d:\programfiles\microchip\xc16\v1.11\bin\..\support\dsPIC33F\inc/p33FJ128GP802.inc:4126   *ABS*:0000000b ADDR11
d:\programfiles\microchip\xc16\v1.11\bin\..\support\dsPIC33F\inc/p33FJ128GP802.inc:4127   *ABS*:0000000c ADDR12
d:\programfiles\microchip\xc16\v1.11\bin\..\support\dsPIC33F\inc/p33FJ128GP802.inc:4128   *ABS*:0000000d ADDR13
d:\programfiles\microchip\xc16\v1.11\bin\..\support\dsPIC33F\inc/p33FJ128GP802.inc:4132   *ABS*:0000000e PTEN14
d:\programfiles\microchip\xc16\v1.11\bin\..\support\dsPIC33F\inc/p33FJ128GP802.inc:4134   *ABS*:00000000 PTEN0
d:\programfiles\microchip\xc16\v1.11\bin\..\support\dsPIC33F\inc/p33FJ128GP802.inc:4135   *ABS*:00000001 PTEN1
d:\programfiles\microchip\xc16\v1.11\bin\..\support\dsPIC33F\inc/p33FJ128GP802.inc:4139   *ABS*:00000000 OB0E
d:\programfiles\microchip\xc16\v1.11\bin\..\support\dsPIC33F\inc/p33FJ128GP802.inc:4140   *ABS*:00000001 OB1E
d:\programfiles\microchip\xc16\v1.11\bin\..\support\dsPIC33F\inc/p33FJ128GP802.inc:4141   *ABS*:00000002 OB2E
d:\programfiles\microchip\xc16\v1.11\bin\..\support\dsPIC33F\inc/p33FJ128GP802.inc:4142   *ABS*:00000003 OB3E
d:\programfiles\microchip\xc16\v1.11\bin\..\support\dsPIC33F\inc/p33FJ128GP802.inc:4143   *ABS*:00000006 OBUF
d:\programfiles\microchip\xc16\v1.11\bin\..\support\dsPIC33F\inc/p33FJ128GP802.inc:4144   *ABS*:00000007 OBE
d:\programfiles\microchip\xc16\v1.11\bin\..\support\dsPIC33F\inc/p33FJ128GP802.inc:4145   *ABS*:00000008 IB0F
d:\programfiles\microchip\xc16\v1.11\bin\..\support\dsPIC33F\inc/p33FJ128GP802.inc:4146   *ABS*:00000009 IB1F
d:\programfiles\microchip\xc16\v1.11\bin\..\support\dsPIC33F\inc/p33FJ128GP802.inc:4147   *ABS*:0000000a IB2F
MPLAB ASM30 Listing:  ../src/ff-pic24-30-33.s 			page 173


d:\programfiles\microchip\xc16\v1.11\bin\..\support\dsPIC33F\inc/p33FJ128GP802.inc:4148   *ABS*:0000000b IB3F
d:\programfiles\microchip\xc16\v1.11\bin\..\support\dsPIC33F\inc/p33FJ128GP802.inc:4149   *ABS*:0000000e IBOV
d:\programfiles\microchip\xc16\v1.11\bin\..\support\dsPIC33F\inc/p33FJ128GP802.inc:4150   *ABS*:0000000f IBF
d:\programfiles\microchip\xc16\v1.11\bin\..\support\dsPIC33F\inc/p33FJ128GP802.inc:4154   *ABS*:0000000e CHIME
d:\programfiles\microchip\xc16\v1.11\bin\..\support\dsPIC33F\inc/p33FJ128GP802.inc:4155   *ABS*:0000000f ALRMEN
d:\programfiles\microchip\xc16\v1.11\bin\..\support\dsPIC33F\inc/p33FJ128GP802.inc:4157   *ABS*:00000000 ARPT0
d:\programfiles\microchip\xc16\v1.11\bin\..\support\dsPIC33F\inc/p33FJ128GP802.inc:4158   *ABS*:00000001 ARPT1
d:\programfiles\microchip\xc16\v1.11\bin\..\support\dsPIC33F\inc/p33FJ128GP802.inc:4159   *ABS*:00000002 ARPT2
d:\programfiles\microchip\xc16\v1.11\bin\..\support\dsPIC33F\inc/p33FJ128GP802.inc:4160   *ABS*:00000003 ARPT3
d:\programfiles\microchip\xc16\v1.11\bin\..\support\dsPIC33F\inc/p33FJ128GP802.inc:4161   *ABS*:00000004 ARPT4
d:\programfiles\microchip\xc16\v1.11\bin\..\support\dsPIC33F\inc/p33FJ128GP802.inc:4162   *ABS*:00000005 ARPT5
d:\programfiles\microchip\xc16\v1.11\bin\..\support\dsPIC33F\inc/p33FJ128GP802.inc:4163   *ABS*:00000006 ARPT6
d:\programfiles\microchip\xc16\v1.11\bin\..\support\dsPIC33F\inc/p33FJ128GP802.inc:4164   *ABS*:00000007 ARPT7
d:\programfiles\microchip\xc16\v1.11\bin\..\support\dsPIC33F\inc/p33FJ128GP802.inc:4165   *ABS*:00000008 ALRMPTR0
d:\programfiles\microchip\xc16\v1.11\bin\..\support\dsPIC33F\inc/p33FJ128GP802.inc:4166   *ABS*:00000009 ALRMPTR1
d:\programfiles\microchip\xc16\v1.11\bin\..\support\dsPIC33F\inc/p33FJ128GP802.inc:4167   *ABS*:0000000a AMASK0
d:\programfiles\microchip\xc16\v1.11\bin\..\support\dsPIC33F\inc/p33FJ128GP802.inc:4168   *ABS*:0000000b AMASK1
d:\programfiles\microchip\xc16\v1.11\bin\..\support\dsPIC33F\inc/p33FJ128GP802.inc:4169   *ABS*:0000000c AMASK2
d:\programfiles\microchip\xc16\v1.11\bin\..\support\dsPIC33F\inc/p33FJ128GP802.inc:4170   *ABS*:0000000d AMASK3
d:\programfiles\microchip\xc16\v1.11\bin\..\support\dsPIC33F\inc/p33FJ128GP802.inc:4174   *ABS*:0000000a RTCOE
d:\programfiles\microchip\xc16\v1.11\bin\..\support\dsPIC33F\inc/p33FJ128GP802.inc:4175   *ABS*:0000000b HALFSEC
d:\programfiles\microchip\xc16\v1.11\bin\..\support\dsPIC33F\inc/p33FJ128GP802.inc:4176   *ABS*:0000000c RTCSYNC
d:\programfiles\microchip\xc16\v1.11\bin\..\support\dsPIC33F\inc/p33FJ128GP802.inc:4177   *ABS*:0000000d RTCWREN
d:\programfiles\microchip\xc16\v1.11\bin\..\support\dsPIC33F\inc/p33FJ128GP802.inc:4178   *ABS*:0000000f RTCEN
d:\programfiles\microchip\xc16\v1.11\bin\..\support\dsPIC33F\inc/p33FJ128GP802.inc:4180   *ABS*:00000000 CAL0
d:\programfiles\microchip\xc16\v1.11\bin\..\support\dsPIC33F\inc/p33FJ128GP802.inc:4181   *ABS*:00000001 CAL1
d:\programfiles\microchip\xc16\v1.11\bin\..\support\dsPIC33F\inc/p33FJ128GP802.inc:4182   *ABS*:00000002 CAL2
d:\programfiles\microchip\xc16\v1.11\bin\..\support\dsPIC33F\inc/p33FJ128GP802.inc:4183   *ABS*:00000003 CAL3
d:\programfiles\microchip\xc16\v1.11\bin\..\support\dsPIC33F\inc/p33FJ128GP802.inc:4184   *ABS*:00000004 CAL4
d:\programfiles\microchip\xc16\v1.11\bin\..\support\dsPIC33F\inc/p33FJ128GP802.inc:4185   *ABS*:00000005 CAL5
d:\programfiles\microchip\xc16\v1.11\bin\..\support\dsPIC33F\inc/p33FJ128GP802.inc:4186   *ABS*:00000006 CAL6
d:\programfiles\microchip\xc16\v1.11\bin\..\support\dsPIC33F\inc/p33FJ128GP802.inc:4187   *ABS*:00000007 CAL7
d:\programfiles\microchip\xc16\v1.11\bin\..\support\dsPIC33F\inc/p33FJ128GP802.inc:4188   *ABS*:00000008 RTCPTR0
d:\programfiles\microchip\xc16\v1.11\bin\..\support\dsPIC33F\inc/p33FJ128GP802.inc:4189   *ABS*:00000009 RTCPTR1
d:\programfiles\microchip\xc16\v1.11\bin\..\support\dsPIC33F\inc/p33FJ128GP802.inc:4193   *ABS*:00000000 C1POS
d:\programfiles\microchip\xc16\v1.11\bin\..\support\dsPIC33F\inc/p33FJ128GP802.inc:4194   *ABS*:00000001 C1NEG
d:\programfiles\microchip\xc16\v1.11\bin\..\support\dsPIC33F\inc/p33FJ128GP802.inc:4195   *ABS*:00000002 C2POS
d:\programfiles\microchip\xc16\v1.11\bin\..\support\dsPIC33F\inc/p33FJ128GP802.inc:4196   *ABS*:00000003 C2NEG
d:\programfiles\microchip\xc16\v1.11\bin\..\support\dsPIC33F\inc/p33FJ128GP802.inc:4197   *ABS*:00000004 C1INV
d:\programfiles\microchip\xc16\v1.11\bin\..\support\dsPIC33F\inc/p33FJ128GP802.inc:4198   *ABS*:00000005 C2INV
d:\programfiles\microchip\xc16\v1.11\bin\..\support\dsPIC33F\inc/p33FJ128GP802.inc:4199   *ABS*:00000006 C1OUT
d:\programfiles\microchip\xc16\v1.11\bin\..\support\dsPIC33F\inc/p33FJ128GP802.inc:4200   *ABS*:00000007 C2OUT
d:\programfiles\microchip\xc16\v1.11\bin\..\support\dsPIC33F\inc/p33FJ128GP802.inc:4201   *ABS*:00000008 C1OUTEN
d:\programfiles\microchip\xc16\v1.11\bin\..\support\dsPIC33F\inc/p33FJ128GP802.inc:4202   *ABS*:00000009 C2OUTEN
d:\programfiles\microchip\xc16\v1.11\bin\..\support\dsPIC33F\inc/p33FJ128GP802.inc:4203   *ABS*:0000000a C1EN
d:\programfiles\microchip\xc16\v1.11\bin\..\support\dsPIC33F\inc/p33FJ128GP802.inc:4204   *ABS*:0000000b C2EN
d:\programfiles\microchip\xc16\v1.11\bin\..\support\dsPIC33F\inc/p33FJ128GP802.inc:4205   *ABS*:0000000c C1EVT
d:\programfiles\microchip\xc16\v1.11\bin\..\support\dsPIC33F\inc/p33FJ128GP802.inc:4206   *ABS*:0000000d C2EVT
d:\programfiles\microchip\xc16\v1.11\bin\..\support\dsPIC33F\inc/p33FJ128GP802.inc:4207   *ABS*:0000000f CMIDL
d:\programfiles\microchip\xc16\v1.11\bin\..\support\dsPIC33F\inc/p33FJ128GP802.inc:4211   *ABS*:00000004 CVRSS
d:\programfiles\microchip\xc16\v1.11\bin\..\support\dsPIC33F\inc/p33FJ128GP802.inc:4212   *ABS*:00000005 CVRR
d:\programfiles\microchip\xc16\v1.11\bin\..\support\dsPIC33F\inc/p33FJ128GP802.inc:4213   *ABS*:00000006 CVROE
d:\programfiles\microchip\xc16\v1.11\bin\..\support\dsPIC33F\inc/p33FJ128GP802.inc:4214   *ABS*:00000007 CVREN
d:\programfiles\microchip\xc16\v1.11\bin\..\support\dsPIC33F\inc/p33FJ128GP802.inc:4216   *ABS*:00000000 CVR0
d:\programfiles\microchip\xc16\v1.11\bin\..\support\dsPIC33F\inc/p33FJ128GP802.inc:4217   *ABS*:00000001 CVR1
d:\programfiles\microchip\xc16\v1.11\bin\..\support\dsPIC33F\inc/p33FJ128GP802.inc:4218   *ABS*:00000002 CVR2
d:\programfiles\microchip\xc16\v1.11\bin\..\support\dsPIC33F\inc/p33FJ128GP802.inc:4219   *ABS*:00000003 CVR3
MPLAB ASM30 Listing:  ../src/ff-pic24-30-33.s 			page 174


d:\programfiles\microchip\xc16\v1.11\bin\..\support\dsPIC33F\inc/p33FJ128GP802.inc:4223   *ABS*:00000004 CRCGO
d:\programfiles\microchip\xc16\v1.11\bin\..\support\dsPIC33F\inc/p33FJ128GP802.inc:4224   *ABS*:00000006 CRCMPT
d:\programfiles\microchip\xc16\v1.11\bin\..\support\dsPIC33F\inc/p33FJ128GP802.inc:4225   *ABS*:00000007 CRCFUL
d:\programfiles\microchip\xc16\v1.11\bin\..\support\dsPIC33F\inc/p33FJ128GP802.inc:4228   *ABS*:00000000 PLEN0
d:\programfiles\microchip\xc16\v1.11\bin\..\support\dsPIC33F\inc/p33FJ128GP802.inc:4229   *ABS*:00000001 PLEN1
d:\programfiles\microchip\xc16\v1.11\bin\..\support\dsPIC33F\inc/p33FJ128GP802.inc:4230   *ABS*:00000002 PLEN2
d:\programfiles\microchip\xc16\v1.11\bin\..\support\dsPIC33F\inc/p33FJ128GP802.inc:4231   *ABS*:00000003 PLEN3
d:\programfiles\microchip\xc16\v1.11\bin\..\support\dsPIC33F\inc/p33FJ128GP802.inc:4232   *ABS*:00000008 VWORD0
d:\programfiles\microchip\xc16\v1.11\bin\..\support\dsPIC33F\inc/p33FJ128GP802.inc:4233   *ABS*:00000009 VWORD1
d:\programfiles\microchip\xc16\v1.11\bin\..\support\dsPIC33F\inc/p33FJ128GP802.inc:4234   *ABS*:0000000a VWORD2
d:\programfiles\microchip\xc16\v1.11\bin\..\support\dsPIC33F\inc/p33FJ128GP802.inc:4235   *ABS*:0000000b VWORD3
d:\programfiles\microchip\xc16\v1.11\bin\..\support\dsPIC33F\inc/p33FJ128GP802.inc:4236   *ABS*:0000000c VWORD4
d:\programfiles\microchip\xc16\v1.11\bin\..\support\dsPIC33F\inc/p33FJ128GP802.inc:4240   *ABS*:00000008 INT1R0
d:\programfiles\microchip\xc16\v1.11\bin\..\support\dsPIC33F\inc/p33FJ128GP802.inc:4241   *ABS*:00000009 INT1R1
d:\programfiles\microchip\xc16\v1.11\bin\..\support\dsPIC33F\inc/p33FJ128GP802.inc:4242   *ABS*:0000000a INT1R2
d:\programfiles\microchip\xc16\v1.11\bin\..\support\dsPIC33F\inc/p33FJ128GP802.inc:4243   *ABS*:0000000b INT1R3
d:\programfiles\microchip\xc16\v1.11\bin\..\support\dsPIC33F\inc/p33FJ128GP802.inc:4244   *ABS*:0000000c INT1R4
d:\programfiles\microchip\xc16\v1.11\bin\..\support\dsPIC33F\inc/p33FJ128GP802.inc:4248   *ABS*:00000000 INT2R0
d:\programfiles\microchip\xc16\v1.11\bin\..\support\dsPIC33F\inc/p33FJ128GP802.inc:4249   *ABS*:00000001 INT2R1
d:\programfiles\microchip\xc16\v1.11\bin\..\support\dsPIC33F\inc/p33FJ128GP802.inc:4250   *ABS*:00000002 INT2R2
d:\programfiles\microchip\xc16\v1.11\bin\..\support\dsPIC33F\inc/p33FJ128GP802.inc:4251   *ABS*:00000003 INT2R3
d:\programfiles\microchip\xc16\v1.11\bin\..\support\dsPIC33F\inc/p33FJ128GP802.inc:4252   *ABS*:00000004 INT2R4
d:\programfiles\microchip\xc16\v1.11\bin\..\support\dsPIC33F\inc/p33FJ128GP802.inc:4256   *ABS*:00000000 T2CKR0
d:\programfiles\microchip\xc16\v1.11\bin\..\support\dsPIC33F\inc/p33FJ128GP802.inc:4257   *ABS*:00000001 T2CKR1
d:\programfiles\microchip\xc16\v1.11\bin\..\support\dsPIC33F\inc/p33FJ128GP802.inc:4258   *ABS*:00000002 T2CKR2
d:\programfiles\microchip\xc16\v1.11\bin\..\support\dsPIC33F\inc/p33FJ128GP802.inc:4259   *ABS*:00000003 T2CKR3
d:\programfiles\microchip\xc16\v1.11\bin\..\support\dsPIC33F\inc/p33FJ128GP802.inc:4260   *ABS*:00000004 T2CKR4
d:\programfiles\microchip\xc16\v1.11\bin\..\support\dsPIC33F\inc/p33FJ128GP802.inc:4261   *ABS*:00000008 T3CKR0
d:\programfiles\microchip\xc16\v1.11\bin\..\support\dsPIC33F\inc/p33FJ128GP802.inc:4262   *ABS*:00000009 T3CKR1
d:\programfiles\microchip\xc16\v1.11\bin\..\support\dsPIC33F\inc/p33FJ128GP802.inc:4263   *ABS*:0000000a T3CKR2
d:\programfiles\microchip\xc16\v1.11\bin\..\support\dsPIC33F\inc/p33FJ128GP802.inc:4264   *ABS*:0000000b T3CKR3
d:\programfiles\microchip\xc16\v1.11\bin\..\support\dsPIC33F\inc/p33FJ128GP802.inc:4265   *ABS*:0000000c T3CKR4
d:\programfiles\microchip\xc16\v1.11\bin\..\support\dsPIC33F\inc/p33FJ128GP802.inc:4269   *ABS*:00000000 T4CKR0
d:\programfiles\microchip\xc16\v1.11\bin\..\support\dsPIC33F\inc/p33FJ128GP802.inc:4270   *ABS*:00000001 T4CKR1
d:\programfiles\microchip\xc16\v1.11\bin\..\support\dsPIC33F\inc/p33FJ128GP802.inc:4271   *ABS*:00000002 T4CKR2
d:\programfiles\microchip\xc16\v1.11\bin\..\support\dsPIC33F\inc/p33FJ128GP802.inc:4272   *ABS*:00000003 T4CKR3
d:\programfiles\microchip\xc16\v1.11\bin\..\support\dsPIC33F\inc/p33FJ128GP802.inc:4273   *ABS*:00000004 T4CKR4
d:\programfiles\microchip\xc16\v1.11\bin\..\support\dsPIC33F\inc/p33FJ128GP802.inc:4274   *ABS*:00000008 T5CKR0
d:\programfiles\microchip\xc16\v1.11\bin\..\support\dsPIC33F\inc/p33FJ128GP802.inc:4275   *ABS*:00000009 T5CKR1
d:\programfiles\microchip\xc16\v1.11\bin\..\support\dsPIC33F\inc/p33FJ128GP802.inc:4276   *ABS*:0000000a T5CKR2
d:\programfiles\microchip\xc16\v1.11\bin\..\support\dsPIC33F\inc/p33FJ128GP802.inc:4277   *ABS*:0000000b T5CKR3
d:\programfiles\microchip\xc16\v1.11\bin\..\support\dsPIC33F\inc/p33FJ128GP802.inc:4278   *ABS*:0000000c T5CKR4
d:\programfiles\microchip\xc16\v1.11\bin\..\support\dsPIC33F\inc/p33FJ128GP802.inc:4282   *ABS*:00000000 IC1R0
d:\programfiles\microchip\xc16\v1.11\bin\..\support\dsPIC33F\inc/p33FJ128GP802.inc:4283   *ABS*:00000001 IC1R1
d:\programfiles\microchip\xc16\v1.11\bin\..\support\dsPIC33F\inc/p33FJ128GP802.inc:4284   *ABS*:00000002 IC1R2
d:\programfiles\microchip\xc16\v1.11\bin\..\support\dsPIC33F\inc/p33FJ128GP802.inc:4285   *ABS*:00000003 IC1R3
d:\programfiles\microchip\xc16\v1.11\bin\..\support\dsPIC33F\inc/p33FJ128GP802.inc:4286   *ABS*:00000004 IC1R4
d:\programfiles\microchip\xc16\v1.11\bin\..\support\dsPIC33F\inc/p33FJ128GP802.inc:4287   *ABS*:00000008 IC2R0
d:\programfiles\microchip\xc16\v1.11\bin\..\support\dsPIC33F\inc/p33FJ128GP802.inc:4288   *ABS*:00000009 IC2R1
d:\programfiles\microchip\xc16\v1.11\bin\..\support\dsPIC33F\inc/p33FJ128GP802.inc:4289   *ABS*:0000000a IC2R2
d:\programfiles\microchip\xc16\v1.11\bin\..\support\dsPIC33F\inc/p33FJ128GP802.inc:4290   *ABS*:0000000b IC2R3
d:\programfiles\microchip\xc16\v1.11\bin\..\support\dsPIC33F\inc/p33FJ128GP802.inc:4291   *ABS*:0000000c IC2R4
d:\programfiles\microchip\xc16\v1.11\bin\..\support\dsPIC33F\inc/p33FJ128GP802.inc:4295   *ABS*:00000000 IC7R0
d:\programfiles\microchip\xc16\v1.11\bin\..\support\dsPIC33F\inc/p33FJ128GP802.inc:4296   *ABS*:00000001 IC7R1
d:\programfiles\microchip\xc16\v1.11\bin\..\support\dsPIC33F\inc/p33FJ128GP802.inc:4297   *ABS*:00000002 IC7R2
d:\programfiles\microchip\xc16\v1.11\bin\..\support\dsPIC33F\inc/p33FJ128GP802.inc:4298   *ABS*:00000003 IC7R3
d:\programfiles\microchip\xc16\v1.11\bin\..\support\dsPIC33F\inc/p33FJ128GP802.inc:4299   *ABS*:00000004 IC7R4
MPLAB ASM30 Listing:  ../src/ff-pic24-30-33.s 			page 175


d:\programfiles\microchip\xc16\v1.11\bin\..\support\dsPIC33F\inc/p33FJ128GP802.inc:4300   *ABS*:00000008 IC8R0
d:\programfiles\microchip\xc16\v1.11\bin\..\support\dsPIC33F\inc/p33FJ128GP802.inc:4301   *ABS*:00000009 IC8R1
d:\programfiles\microchip\xc16\v1.11\bin\..\support\dsPIC33F\inc/p33FJ128GP802.inc:4302   *ABS*:0000000a IC8R2
d:\programfiles\microchip\xc16\v1.11\bin\..\support\dsPIC33F\inc/p33FJ128GP802.inc:4303   *ABS*:0000000b IC8R3
d:\programfiles\microchip\xc16\v1.11\bin\..\support\dsPIC33F\inc/p33FJ128GP802.inc:4304   *ABS*:0000000c IC8R4
d:\programfiles\microchip\xc16\v1.11\bin\..\support\dsPIC33F\inc/p33FJ128GP802.inc:4308   *ABS*:00000000 OCFAR0
d:\programfiles\microchip\xc16\v1.11\bin\..\support\dsPIC33F\inc/p33FJ128GP802.inc:4309   *ABS*:00000001 OCFAR1
d:\programfiles\microchip\xc16\v1.11\bin\..\support\dsPIC33F\inc/p33FJ128GP802.inc:4310   *ABS*:00000002 OCFAR2
d:\programfiles\microchip\xc16\v1.11\bin\..\support\dsPIC33F\inc/p33FJ128GP802.inc:4311   *ABS*:00000003 OCFAR3
d:\programfiles\microchip\xc16\v1.11\bin\..\support\dsPIC33F\inc/p33FJ128GP802.inc:4312   *ABS*:00000004 OCFAR4
d:\programfiles\microchip\xc16\v1.11\bin\..\support\dsPIC33F\inc/p33FJ128GP802.inc:4316   *ABS*:00000000 U1RXR0
d:\programfiles\microchip\xc16\v1.11\bin\..\support\dsPIC33F\inc/p33FJ128GP802.inc:4317   *ABS*:00000001 U1RXR1
d:\programfiles\microchip\xc16\v1.11\bin\..\support\dsPIC33F\inc/p33FJ128GP802.inc:4318   *ABS*:00000002 U1RXR2
d:\programfiles\microchip\xc16\v1.11\bin\..\support\dsPIC33F\inc/p33FJ128GP802.inc:4319   *ABS*:00000003 U1RXR3
d:\programfiles\microchip\xc16\v1.11\bin\..\support\dsPIC33F\inc/p33FJ128GP802.inc:4320   *ABS*:00000004 U1RXR4
d:\programfiles\microchip\xc16\v1.11\bin\..\support\dsPIC33F\inc/p33FJ128GP802.inc:4321   *ABS*:00000008 U1CTSR0
d:\programfiles\microchip\xc16\v1.11\bin\..\support\dsPIC33F\inc/p33FJ128GP802.inc:4322   *ABS*:00000009 U1CTSR1
d:\programfiles\microchip\xc16\v1.11\bin\..\support\dsPIC33F\inc/p33FJ128GP802.inc:4323   *ABS*:0000000a U1CTSR2
d:\programfiles\microchip\xc16\v1.11\bin\..\support\dsPIC33F\inc/p33FJ128GP802.inc:4324   *ABS*:0000000b U1CTSR3
d:\programfiles\microchip\xc16\v1.11\bin\..\support\dsPIC33F\inc/p33FJ128GP802.inc:4325   *ABS*:0000000c U1CTSR4
d:\programfiles\microchip\xc16\v1.11\bin\..\support\dsPIC33F\inc/p33FJ128GP802.inc:4329   *ABS*:00000000 U2RXR0
d:\programfiles\microchip\xc16\v1.11\bin\..\support\dsPIC33F\inc/p33FJ128GP802.inc:4330   *ABS*:00000001 U2RXR1
d:\programfiles\microchip\xc16\v1.11\bin\..\support\dsPIC33F\inc/p33FJ128GP802.inc:4331   *ABS*:00000002 U2RXR2
d:\programfiles\microchip\xc16\v1.11\bin\..\support\dsPIC33F\inc/p33FJ128GP802.inc:4332   *ABS*:00000003 U2RXR3
d:\programfiles\microchip\xc16\v1.11\bin\..\support\dsPIC33F\inc/p33FJ128GP802.inc:4333   *ABS*:00000004 U2RXR4
d:\programfiles\microchip\xc16\v1.11\bin\..\support\dsPIC33F\inc/p33FJ128GP802.inc:4334   *ABS*:00000008 U2CTSR0
d:\programfiles\microchip\xc16\v1.11\bin\..\support\dsPIC33F\inc/p33FJ128GP802.inc:4335   *ABS*:00000009 U2CTSR1
d:\programfiles\microchip\xc16\v1.11\bin\..\support\dsPIC33F\inc/p33FJ128GP802.inc:4336   *ABS*:0000000a U2CTSR2
d:\programfiles\microchip\xc16\v1.11\bin\..\support\dsPIC33F\inc/p33FJ128GP802.inc:4337   *ABS*:0000000b U2CTSR3
d:\programfiles\microchip\xc16\v1.11\bin\..\support\dsPIC33F\inc/p33FJ128GP802.inc:4338   *ABS*:0000000c U2CTSR4
d:\programfiles\microchip\xc16\v1.11\bin\..\support\dsPIC33F\inc/p33FJ128GP802.inc:4342   *ABS*:00000000 SDI1R0
d:\programfiles\microchip\xc16\v1.11\bin\..\support\dsPIC33F\inc/p33FJ128GP802.inc:4343   *ABS*:00000001 SDI1R1
d:\programfiles\microchip\xc16\v1.11\bin\..\support\dsPIC33F\inc/p33FJ128GP802.inc:4344   *ABS*:00000002 SDI1R2
d:\programfiles\microchip\xc16\v1.11\bin\..\support\dsPIC33F\inc/p33FJ128GP802.inc:4345   *ABS*:00000003 SDI1R3
d:\programfiles\microchip\xc16\v1.11\bin\..\support\dsPIC33F\inc/p33FJ128GP802.inc:4346   *ABS*:00000004 SDI1R4
d:\programfiles\microchip\xc16\v1.11\bin\..\support\dsPIC33F\inc/p33FJ128GP802.inc:4347   *ABS*:00000008 SCK1R0
d:\programfiles\microchip\xc16\v1.11\bin\..\support\dsPIC33F\inc/p33FJ128GP802.inc:4348   *ABS*:00000009 SCK1R1
d:\programfiles\microchip\xc16\v1.11\bin\..\support\dsPIC33F\inc/p33FJ128GP802.inc:4349   *ABS*:0000000a SCK1R2
d:\programfiles\microchip\xc16\v1.11\bin\..\support\dsPIC33F\inc/p33FJ128GP802.inc:4350   *ABS*:0000000b SCK1R3
d:\programfiles\microchip\xc16\v1.11\bin\..\support\dsPIC33F\inc/p33FJ128GP802.inc:4351   *ABS*:0000000c SCK1R4
d:\programfiles\microchip\xc16\v1.11\bin\..\support\dsPIC33F\inc/p33FJ128GP802.inc:4355   *ABS*:00000000 SS1R0
d:\programfiles\microchip\xc16\v1.11\bin\..\support\dsPIC33F\inc/p33FJ128GP802.inc:4356   *ABS*:00000001 SS1R1
d:\programfiles\microchip\xc16\v1.11\bin\..\support\dsPIC33F\inc/p33FJ128GP802.inc:4357   *ABS*:00000002 SS1R2
d:\programfiles\microchip\xc16\v1.11\bin\..\support\dsPIC33F\inc/p33FJ128GP802.inc:4358   *ABS*:00000003 SS1R3
d:\programfiles\microchip\xc16\v1.11\bin\..\support\dsPIC33F\inc/p33FJ128GP802.inc:4359   *ABS*:00000004 SS1R4
d:\programfiles\microchip\xc16\v1.11\bin\..\support\dsPIC33F\inc/p33FJ128GP802.inc:4363   *ABS*:00000000 SDI2R0
d:\programfiles\microchip\xc16\v1.11\bin\..\support\dsPIC33F\inc/p33FJ128GP802.inc:4364   *ABS*:00000001 SDI2R1
d:\programfiles\microchip\xc16\v1.11\bin\..\support\dsPIC33F\inc/p33FJ128GP802.inc:4365   *ABS*:00000002 SDI2R2
d:\programfiles\microchip\xc16\v1.11\bin\..\support\dsPIC33F\inc/p33FJ128GP802.inc:4366   *ABS*:00000003 SDI2R3
d:\programfiles\microchip\xc16\v1.11\bin\..\support\dsPIC33F\inc/p33FJ128GP802.inc:4367   *ABS*:00000004 SDI2R4
d:\programfiles\microchip\xc16\v1.11\bin\..\support\dsPIC33F\inc/p33FJ128GP802.inc:4368   *ABS*:00000008 SCK2R0
d:\programfiles\microchip\xc16\v1.11\bin\..\support\dsPIC33F\inc/p33FJ128GP802.inc:4369   *ABS*:00000009 SCK2R1
d:\programfiles\microchip\xc16\v1.11\bin\..\support\dsPIC33F\inc/p33FJ128GP802.inc:4370   *ABS*:0000000a SCK2R2
d:\programfiles\microchip\xc16\v1.11\bin\..\support\dsPIC33F\inc/p33FJ128GP802.inc:4371   *ABS*:0000000b SCK2R3
d:\programfiles\microchip\xc16\v1.11\bin\..\support\dsPIC33F\inc/p33FJ128GP802.inc:4372   *ABS*:0000000c SCK2R4
d:\programfiles\microchip\xc16\v1.11\bin\..\support\dsPIC33F\inc/p33FJ128GP802.inc:4376   *ABS*:00000000 SS2R0
d:\programfiles\microchip\xc16\v1.11\bin\..\support\dsPIC33F\inc/p33FJ128GP802.inc:4377   *ABS*:00000001 SS2R1
MPLAB ASM30 Listing:  ../src/ff-pic24-30-33.s 			page 176


d:\programfiles\microchip\xc16\v1.11\bin\..\support\dsPIC33F\inc/p33FJ128GP802.inc:4378   *ABS*:00000002 SS2R2
d:\programfiles\microchip\xc16\v1.11\bin\..\support\dsPIC33F\inc/p33FJ128GP802.inc:4379   *ABS*:00000003 SS2R3
d:\programfiles\microchip\xc16\v1.11\bin\..\support\dsPIC33F\inc/p33FJ128GP802.inc:4380   *ABS*:00000004 SS2R4
d:\programfiles\microchip\xc16\v1.11\bin\..\support\dsPIC33F\inc/p33FJ128GP802.inc:4384   *ABS*:00000000 CSDIR0
d:\programfiles\microchip\xc16\v1.11\bin\..\support\dsPIC33F\inc/p33FJ128GP802.inc:4385   *ABS*:00000001 CSDIR1
d:\programfiles\microchip\xc16\v1.11\bin\..\support\dsPIC33F\inc/p33FJ128GP802.inc:4386   *ABS*:00000002 CSDIR2
d:\programfiles\microchip\xc16\v1.11\bin\..\support\dsPIC33F\inc/p33FJ128GP802.inc:4387   *ABS*:00000003 CSDIR3
d:\programfiles\microchip\xc16\v1.11\bin\..\support\dsPIC33F\inc/p33FJ128GP802.inc:4388   *ABS*:00000004 CSDIR4
d:\programfiles\microchip\xc16\v1.11\bin\..\support\dsPIC33F\inc/p33FJ128GP802.inc:4389   *ABS*:00000008 CSCKR0
d:\programfiles\microchip\xc16\v1.11\bin\..\support\dsPIC33F\inc/p33FJ128GP802.inc:4390   *ABS*:00000009 CSCKR1
d:\programfiles\microchip\xc16\v1.11\bin\..\support\dsPIC33F\inc/p33FJ128GP802.inc:4391   *ABS*:0000000a CSCKR2
d:\programfiles\microchip\xc16\v1.11\bin\..\support\dsPIC33F\inc/p33FJ128GP802.inc:4392   *ABS*:0000000b CSCKR3
d:\programfiles\microchip\xc16\v1.11\bin\..\support\dsPIC33F\inc/p33FJ128GP802.inc:4393   *ABS*:0000000c CSCKR4
d:\programfiles\microchip\xc16\v1.11\bin\..\support\dsPIC33F\inc/p33FJ128GP802.inc:4397   *ABS*:00000000 COFSR0
d:\programfiles\microchip\xc16\v1.11\bin\..\support\dsPIC33F\inc/p33FJ128GP802.inc:4398   *ABS*:00000001 COFSR1
d:\programfiles\microchip\xc16\v1.11\bin\..\support\dsPIC33F\inc/p33FJ128GP802.inc:4399   *ABS*:00000002 COFSR2
d:\programfiles\microchip\xc16\v1.11\bin\..\support\dsPIC33F\inc/p33FJ128GP802.inc:4400   *ABS*:00000003 COFSR3
d:\programfiles\microchip\xc16\v1.11\bin\..\support\dsPIC33F\inc/p33FJ128GP802.inc:4401   *ABS*:00000004 COFSR4
d:\programfiles\microchip\xc16\v1.11\bin\..\support\dsPIC33F\inc/p33FJ128GP802.inc:4405   *ABS*:00000000 C1RXR0
d:\programfiles\microchip\xc16\v1.11\bin\..\support\dsPIC33F\inc/p33FJ128GP802.inc:4406   *ABS*:00000001 C1RXR1
d:\programfiles\microchip\xc16\v1.11\bin\..\support\dsPIC33F\inc/p33FJ128GP802.inc:4407   *ABS*:00000002 C1RXR2
d:\programfiles\microchip\xc16\v1.11\bin\..\support\dsPIC33F\inc/p33FJ128GP802.inc:4408   *ABS*:00000003 C1RXR3
d:\programfiles\microchip\xc16\v1.11\bin\..\support\dsPIC33F\inc/p33FJ128GP802.inc:4409   *ABS*:00000004 C1RXR4
d:\programfiles\microchip\xc16\v1.11\bin\..\support\dsPIC33F\inc/p33FJ128GP802.inc:4413   *ABS*:00000000 RP0R0
d:\programfiles\microchip\xc16\v1.11\bin\..\support\dsPIC33F\inc/p33FJ128GP802.inc:4414   *ABS*:00000001 RP0R1
d:\programfiles\microchip\xc16\v1.11\bin\..\support\dsPIC33F\inc/p33FJ128GP802.inc:4415   *ABS*:00000002 RP0R2
d:\programfiles\microchip\xc16\v1.11\bin\..\support\dsPIC33F\inc/p33FJ128GP802.inc:4416   *ABS*:00000003 RP0R3
d:\programfiles\microchip\xc16\v1.11\bin\..\support\dsPIC33F\inc/p33FJ128GP802.inc:4417   *ABS*:00000004 RP0R4
d:\programfiles\microchip\xc16\v1.11\bin\..\support\dsPIC33F\inc/p33FJ128GP802.inc:4418   *ABS*:00000008 RP1R0
d:\programfiles\microchip\xc16\v1.11\bin\..\support\dsPIC33F\inc/p33FJ128GP802.inc:4419   *ABS*:00000009 RP1R1
d:\programfiles\microchip\xc16\v1.11\bin\..\support\dsPIC33F\inc/p33FJ128GP802.inc:4420   *ABS*:0000000a RP1R2
d:\programfiles\microchip\xc16\v1.11\bin\..\support\dsPIC33F\inc/p33FJ128GP802.inc:4421   *ABS*:0000000b RP1R3
d:\programfiles\microchip\xc16\v1.11\bin\..\support\dsPIC33F\inc/p33FJ128GP802.inc:4422   *ABS*:0000000c RP1R4
d:\programfiles\microchip\xc16\v1.11\bin\..\support\dsPIC33F\inc/p33FJ128GP802.inc:4426   *ABS*:00000000 RP2R0
d:\programfiles\microchip\xc16\v1.11\bin\..\support\dsPIC33F\inc/p33FJ128GP802.inc:4427   *ABS*:00000001 RP2R1
d:\programfiles\microchip\xc16\v1.11\bin\..\support\dsPIC33F\inc/p33FJ128GP802.inc:4428   *ABS*:00000002 RP2R2
d:\programfiles\microchip\xc16\v1.11\bin\..\support\dsPIC33F\inc/p33FJ128GP802.inc:4429   *ABS*:00000003 RP2R3
d:\programfiles\microchip\xc16\v1.11\bin\..\support\dsPIC33F\inc/p33FJ128GP802.inc:4430   *ABS*:00000004 RP2R4
d:\programfiles\microchip\xc16\v1.11\bin\..\support\dsPIC33F\inc/p33FJ128GP802.inc:4431   *ABS*:00000008 RP3R0
d:\programfiles\microchip\xc16\v1.11\bin\..\support\dsPIC33F\inc/p33FJ128GP802.inc:4432   *ABS*:00000009 RP3R1
d:\programfiles\microchip\xc16\v1.11\bin\..\support\dsPIC33F\inc/p33FJ128GP802.inc:4433   *ABS*:0000000a RP3R2
d:\programfiles\microchip\xc16\v1.11\bin\..\support\dsPIC33F\inc/p33FJ128GP802.inc:4434   *ABS*:0000000b RP3R3
d:\programfiles\microchip\xc16\v1.11\bin\..\support\dsPIC33F\inc/p33FJ128GP802.inc:4435   *ABS*:0000000c RP3R4
d:\programfiles\microchip\xc16\v1.11\bin\..\support\dsPIC33F\inc/p33FJ128GP802.inc:4439   *ABS*:00000000 RP4R0
d:\programfiles\microchip\xc16\v1.11\bin\..\support\dsPIC33F\inc/p33FJ128GP802.inc:4440   *ABS*:00000001 RP4R1
d:\programfiles\microchip\xc16\v1.11\bin\..\support\dsPIC33F\inc/p33FJ128GP802.inc:4441   *ABS*:00000002 RP4R2
d:\programfiles\microchip\xc16\v1.11\bin\..\support\dsPIC33F\inc/p33FJ128GP802.inc:4442   *ABS*:00000003 RP4R3
d:\programfiles\microchip\xc16\v1.11\bin\..\support\dsPIC33F\inc/p33FJ128GP802.inc:4443   *ABS*:00000004 RP4R4
d:\programfiles\microchip\xc16\v1.11\bin\..\support\dsPIC33F\inc/p33FJ128GP802.inc:4444   *ABS*:00000008 RP5R0
d:\programfiles\microchip\xc16\v1.11\bin\..\support\dsPIC33F\inc/p33FJ128GP802.inc:4445   *ABS*:00000009 RP5R1
d:\programfiles\microchip\xc16\v1.11\bin\..\support\dsPIC33F\inc/p33FJ128GP802.inc:4446   *ABS*:0000000a RP5R2
d:\programfiles\microchip\xc16\v1.11\bin\..\support\dsPIC33F\inc/p33FJ128GP802.inc:4447   *ABS*:0000000b RP5R3
d:\programfiles\microchip\xc16\v1.11\bin\..\support\dsPIC33F\inc/p33FJ128GP802.inc:4448   *ABS*:0000000c RP5R4
d:\programfiles\microchip\xc16\v1.11\bin\..\support\dsPIC33F\inc/p33FJ128GP802.inc:4452   *ABS*:00000000 RP6R0
d:\programfiles\microchip\xc16\v1.11\bin\..\support\dsPIC33F\inc/p33FJ128GP802.inc:4453   *ABS*:00000001 RP6R1
d:\programfiles\microchip\xc16\v1.11\bin\..\support\dsPIC33F\inc/p33FJ128GP802.inc:4454   *ABS*:00000002 RP6R2
d:\programfiles\microchip\xc16\v1.11\bin\..\support\dsPIC33F\inc/p33FJ128GP802.inc:4455   *ABS*:00000003 RP6R3
MPLAB ASM30 Listing:  ../src/ff-pic24-30-33.s 			page 177


d:\programfiles\microchip\xc16\v1.11\bin\..\support\dsPIC33F\inc/p33FJ128GP802.inc:4456   *ABS*:00000004 RP6R4
d:\programfiles\microchip\xc16\v1.11\bin\..\support\dsPIC33F\inc/p33FJ128GP802.inc:4457   *ABS*:00000008 RP7R0
d:\programfiles\microchip\xc16\v1.11\bin\..\support\dsPIC33F\inc/p33FJ128GP802.inc:4458   *ABS*:00000009 RP7R1
d:\programfiles\microchip\xc16\v1.11\bin\..\support\dsPIC33F\inc/p33FJ128GP802.inc:4459   *ABS*:0000000a RP7R2
d:\programfiles\microchip\xc16\v1.11\bin\..\support\dsPIC33F\inc/p33FJ128GP802.inc:4460   *ABS*:0000000b RP7R3
d:\programfiles\microchip\xc16\v1.11\bin\..\support\dsPIC33F\inc/p33FJ128GP802.inc:4461   *ABS*:0000000c RP7R4
d:\programfiles\microchip\xc16\v1.11\bin\..\support\dsPIC33F\inc/p33FJ128GP802.inc:4465   *ABS*:00000000 RP8R0
d:\programfiles\microchip\xc16\v1.11\bin\..\support\dsPIC33F\inc/p33FJ128GP802.inc:4466   *ABS*:00000001 RP8R1
d:\programfiles\microchip\xc16\v1.11\bin\..\support\dsPIC33F\inc/p33FJ128GP802.inc:4467   *ABS*:00000002 RP8R2
d:\programfiles\microchip\xc16\v1.11\bin\..\support\dsPIC33F\inc/p33FJ128GP802.inc:4468   *ABS*:00000003 RP8R3
d:\programfiles\microchip\xc16\v1.11\bin\..\support\dsPIC33F\inc/p33FJ128GP802.inc:4469   *ABS*:00000004 RP8R4
d:\programfiles\microchip\xc16\v1.11\bin\..\support\dsPIC33F\inc/p33FJ128GP802.inc:4470   *ABS*:00000008 RP9R0
d:\programfiles\microchip\xc16\v1.11\bin\..\support\dsPIC33F\inc/p33FJ128GP802.inc:4471   *ABS*:00000009 RP9R1
d:\programfiles\microchip\xc16\v1.11\bin\..\support\dsPIC33F\inc/p33FJ128GP802.inc:4472   *ABS*:0000000a RP9R2
d:\programfiles\microchip\xc16\v1.11\bin\..\support\dsPIC33F\inc/p33FJ128GP802.inc:4473   *ABS*:0000000b RP9R3
d:\programfiles\microchip\xc16\v1.11\bin\..\support\dsPIC33F\inc/p33FJ128GP802.inc:4474   *ABS*:0000000c RP9R4
d:\programfiles\microchip\xc16\v1.11\bin\..\support\dsPIC33F\inc/p33FJ128GP802.inc:4478   *ABS*:00000000 RP10R0
d:\programfiles\microchip\xc16\v1.11\bin\..\support\dsPIC33F\inc/p33FJ128GP802.inc:4479   *ABS*:00000001 RP10R1
d:\programfiles\microchip\xc16\v1.11\bin\..\support\dsPIC33F\inc/p33FJ128GP802.inc:4480   *ABS*:00000002 RP10R2
d:\programfiles\microchip\xc16\v1.11\bin\..\support\dsPIC33F\inc/p33FJ128GP802.inc:4481   *ABS*:00000003 RP10R3
d:\programfiles\microchip\xc16\v1.11\bin\..\support\dsPIC33F\inc/p33FJ128GP802.inc:4482   *ABS*:00000004 RP10R4
d:\programfiles\microchip\xc16\v1.11\bin\..\support\dsPIC33F\inc/p33FJ128GP802.inc:4483   *ABS*:00000008 RP11R0
d:\programfiles\microchip\xc16\v1.11\bin\..\support\dsPIC33F\inc/p33FJ128GP802.inc:4484   *ABS*:00000009 RP11R1
d:\programfiles\microchip\xc16\v1.11\bin\..\support\dsPIC33F\inc/p33FJ128GP802.inc:4485   *ABS*:0000000a RP11R2
d:\programfiles\microchip\xc16\v1.11\bin\..\support\dsPIC33F\inc/p33FJ128GP802.inc:4486   *ABS*:0000000b RP11R3
d:\programfiles\microchip\xc16\v1.11\bin\..\support\dsPIC33F\inc/p33FJ128GP802.inc:4487   *ABS*:0000000c RP11R4
d:\programfiles\microchip\xc16\v1.11\bin\..\support\dsPIC33F\inc/p33FJ128GP802.inc:4491   *ABS*:00000000 RP12R0
d:\programfiles\microchip\xc16\v1.11\bin\..\support\dsPIC33F\inc/p33FJ128GP802.inc:4492   *ABS*:00000001 RP12R1
d:\programfiles\microchip\xc16\v1.11\bin\..\support\dsPIC33F\inc/p33FJ128GP802.inc:4493   *ABS*:00000002 RP12R2
d:\programfiles\microchip\xc16\v1.11\bin\..\support\dsPIC33F\inc/p33FJ128GP802.inc:4494   *ABS*:00000003 RP12R3
d:\programfiles\microchip\xc16\v1.11\bin\..\support\dsPIC33F\inc/p33FJ128GP802.inc:4495   *ABS*:00000004 RP12R4
d:\programfiles\microchip\xc16\v1.11\bin\..\support\dsPIC33F\inc/p33FJ128GP802.inc:4496   *ABS*:00000008 RP13R0
d:\programfiles\microchip\xc16\v1.11\bin\..\support\dsPIC33F\inc/p33FJ128GP802.inc:4497   *ABS*:00000009 RP13R1
d:\programfiles\microchip\xc16\v1.11\bin\..\support\dsPIC33F\inc/p33FJ128GP802.inc:4498   *ABS*:0000000a RP13R2
d:\programfiles\microchip\xc16\v1.11\bin\..\support\dsPIC33F\inc/p33FJ128GP802.inc:4499   *ABS*:0000000b RP13R3
d:\programfiles\microchip\xc16\v1.11\bin\..\support\dsPIC33F\inc/p33FJ128GP802.inc:4500   *ABS*:0000000c RP13R4
d:\programfiles\microchip\xc16\v1.11\bin\..\support\dsPIC33F\inc/p33FJ128GP802.inc:4504   *ABS*:00000000 RP14R0
d:\programfiles\microchip\xc16\v1.11\bin\..\support\dsPIC33F\inc/p33FJ128GP802.inc:4505   *ABS*:00000001 RP14R1
d:\programfiles\microchip\xc16\v1.11\bin\..\support\dsPIC33F\inc/p33FJ128GP802.inc:4506   *ABS*:00000002 RP14R2
d:\programfiles\microchip\xc16\v1.11\bin\..\support\dsPIC33F\inc/p33FJ128GP802.inc:4507   *ABS*:00000003 RP14R3
d:\programfiles\microchip\xc16\v1.11\bin\..\support\dsPIC33F\inc/p33FJ128GP802.inc:4508   *ABS*:00000004 RP14R4
d:\programfiles\microchip\xc16\v1.11\bin\..\support\dsPIC33F\inc/p33FJ128GP802.inc:4509   *ABS*:00000008 RP15R0
d:\programfiles\microchip\xc16\v1.11\bin\..\support\dsPIC33F\inc/p33FJ128GP802.inc:4510   *ABS*:00000009 RP15R1
d:\programfiles\microchip\xc16\v1.11\bin\..\support\dsPIC33F\inc/p33FJ128GP802.inc:4511   *ABS*:0000000a RP15R2
d:\programfiles\microchip\xc16\v1.11\bin\..\support\dsPIC33F\inc/p33FJ128GP802.inc:4512   *ABS*:0000000b RP15R3
d:\programfiles\microchip\xc16\v1.11\bin\..\support\dsPIC33F\inc/p33FJ128GP802.inc:4513   *ABS*:0000000c RP15R4
d:\programfiles\microchip\xc16\v1.11\bin\..\support\dsPIC33F\inc/p33FJ128GP802.inc:4517   *ABS*:00000000 POR
d:\programfiles\microchip\xc16\v1.11\bin\..\support\dsPIC33F\inc/p33FJ128GP802.inc:4518   *ABS*:00000001 BOR
d:\programfiles\microchip\xc16\v1.11\bin\..\support\dsPIC33F\inc/p33FJ128GP802.inc:4519   *ABS*:00000002 IDLE
d:\programfiles\microchip\xc16\v1.11\bin\..\support\dsPIC33F\inc/p33FJ128GP802.inc:4520   *ABS*:00000003 SLEEP
d:\programfiles\microchip\xc16\v1.11\bin\..\support\dsPIC33F\inc/p33FJ128GP802.inc:4521   *ABS*:00000004 WDTO
d:\programfiles\microchip\xc16\v1.11\bin\..\support\dsPIC33F\inc/p33FJ128GP802.inc:4522   *ABS*:00000005 SWDTEN
d:\programfiles\microchip\xc16\v1.11\bin\..\support\dsPIC33F\inc/p33FJ128GP802.inc:4523   *ABS*:00000006 SWR
d:\programfiles\microchip\xc16\v1.11\bin\..\support\dsPIC33F\inc/p33FJ128GP802.inc:4524   *ABS*:00000007 EXTR
d:\programfiles\microchip\xc16\v1.11\bin\..\support\dsPIC33F\inc/p33FJ128GP802.inc:4525   *ABS*:00000008 VREGS
d:\programfiles\microchip\xc16\v1.11\bin\..\support\dsPIC33F\inc/p33FJ128GP802.inc:4526   *ABS*:00000009 CM
d:\programfiles\microchip\xc16\v1.11\bin\..\support\dsPIC33F\inc/p33FJ128GP802.inc:4527   *ABS*:0000000e IOPUWR
MPLAB ASM30 Listing:  ../src/ff-pic24-30-33.s 			page 178


d:\programfiles\microchip\xc16\v1.11\bin\..\support\dsPIC33F\inc/p33FJ128GP802.inc:4528   *ABS*:0000000f TRAPR
d:\programfiles\microchip\xc16\v1.11\bin\..\support\dsPIC33F\inc/p33FJ128GP802.inc:4532   *ABS*:00000000 OSWEN
d:\programfiles\microchip\xc16\v1.11\bin\..\support\dsPIC33F\inc/p33FJ128GP802.inc:4533   *ABS*:00000001 LPOSCEN
d:\programfiles\microchip\xc16\v1.11\bin\..\support\dsPIC33F\inc/p33FJ128GP802.inc:4534   *ABS*:00000003 CF
d:\programfiles\microchip\xc16\v1.11\bin\..\support\dsPIC33F\inc/p33FJ128GP802.inc:4535   *ABS*:00000005 LOCK
d:\programfiles\microchip\xc16\v1.11\bin\..\support\dsPIC33F\inc/p33FJ128GP802.inc:4536   *ABS*:00000006 IOLOCK
d:\programfiles\microchip\xc16\v1.11\bin\..\support\dsPIC33F\inc/p33FJ128GP802.inc:4537   *ABS*:00000007 CLKLOCK
d:\programfiles\microchip\xc16\v1.11\bin\..\support\dsPIC33F\inc/p33FJ128GP802.inc:4539   *ABS*:00000008 NOSC0
d:\programfiles\microchip\xc16\v1.11\bin\..\support\dsPIC33F\inc/p33FJ128GP802.inc:4540   *ABS*:00000009 NOSC1
d:\programfiles\microchip\xc16\v1.11\bin\..\support\dsPIC33F\inc/p33FJ128GP802.inc:4541   *ABS*:0000000a NOSC2
d:\programfiles\microchip\xc16\v1.11\bin\..\support\dsPIC33F\inc/p33FJ128GP802.inc:4542   *ABS*:0000000c COSC0
d:\programfiles\microchip\xc16\v1.11\bin\..\support\dsPIC33F\inc/p33FJ128GP802.inc:4543   *ABS*:0000000d COSC1
d:\programfiles\microchip\xc16\v1.11\bin\..\support\dsPIC33F\inc/p33FJ128GP802.inc:4544   *ABS*:0000000e COSC2
d:\programfiles\microchip\xc16\v1.11\bin\..\support\dsPIC33F\inc/p33FJ128GP802.inc:4548   *ABS*:0000000b DOZEN
d:\programfiles\microchip\xc16\v1.11\bin\..\support\dsPIC33F\inc/p33FJ128GP802.inc:4549   *ABS*:0000000f ROI
d:\programfiles\microchip\xc16\v1.11\bin\..\support\dsPIC33F\inc/p33FJ128GP802.inc:4551   *ABS*:00000000 PLLPRE0
d:\programfiles\microchip\xc16\v1.11\bin\..\support\dsPIC33F\inc/p33FJ128GP802.inc:4552   *ABS*:00000001 PLLPRE1
d:\programfiles\microchip\xc16\v1.11\bin\..\support\dsPIC33F\inc/p33FJ128GP802.inc:4553   *ABS*:00000002 PLLPRE2
d:\programfiles\microchip\xc16\v1.11\bin\..\support\dsPIC33F\inc/p33FJ128GP802.inc:4554   *ABS*:00000003 PLLPRE3
d:\programfiles\microchip\xc16\v1.11\bin\..\support\dsPIC33F\inc/p33FJ128GP802.inc:4555   *ABS*:00000004 PLLPRE4
d:\programfiles\microchip\xc16\v1.11\bin\..\support\dsPIC33F\inc/p33FJ128GP802.inc:4556   *ABS*:00000006 PLLPOST0
d:\programfiles\microchip\xc16\v1.11\bin\..\support\dsPIC33F\inc/p33FJ128GP802.inc:4557   *ABS*:00000007 PLLPOST1
d:\programfiles\microchip\xc16\v1.11\bin\..\support\dsPIC33F\inc/p33FJ128GP802.inc:4558   *ABS*:00000008 FRCDIV0
d:\programfiles\microchip\xc16\v1.11\bin\..\support\dsPIC33F\inc/p33FJ128GP802.inc:4559   *ABS*:00000009 FRCDIV1
d:\programfiles\microchip\xc16\v1.11\bin\..\support\dsPIC33F\inc/p33FJ128GP802.inc:4560   *ABS*:0000000a FRCDIV2
d:\programfiles\microchip\xc16\v1.11\bin\..\support\dsPIC33F\inc/p33FJ128GP802.inc:4561   *ABS*:0000000c DOZE0
d:\programfiles\microchip\xc16\v1.11\bin\..\support\dsPIC33F\inc/p33FJ128GP802.inc:4562   *ABS*:0000000d DOZE1
d:\programfiles\microchip\xc16\v1.11\bin\..\support\dsPIC33F\inc/p33FJ128GP802.inc:4563   *ABS*:0000000e DOZE2
d:\programfiles\microchip\xc16\v1.11\bin\..\support\dsPIC33F\inc/p33FJ128GP802.inc:4567   *ABS*:00000000 PLLDIV0
d:\programfiles\microchip\xc16\v1.11\bin\..\support\dsPIC33F\inc/p33FJ128GP802.inc:4568   *ABS*:00000001 PLLDIV1
d:\programfiles\microchip\xc16\v1.11\bin\..\support\dsPIC33F\inc/p33FJ128GP802.inc:4569   *ABS*:00000002 PLLDIV2
d:\programfiles\microchip\xc16\v1.11\bin\..\support\dsPIC33F\inc/p33FJ128GP802.inc:4570   *ABS*:00000003 PLLDIV3
d:\programfiles\microchip\xc16\v1.11\bin\..\support\dsPIC33F\inc/p33FJ128GP802.inc:4571   *ABS*:00000004 PLLDIV4
d:\programfiles\microchip\xc16\v1.11\bin\..\support\dsPIC33F\inc/p33FJ128GP802.inc:4572   *ABS*:00000005 PLLDIV5
d:\programfiles\microchip\xc16\v1.11\bin\..\support\dsPIC33F\inc/p33FJ128GP802.inc:4573   *ABS*:00000006 PLLDIV6
d:\programfiles\microchip\xc16\v1.11\bin\..\support\dsPIC33F\inc/p33FJ128GP802.inc:4574   *ABS*:00000007 PLLDIV7
d:\programfiles\microchip\xc16\v1.11\bin\..\support\dsPIC33F\inc/p33FJ128GP802.inc:4575   *ABS*:00000008 PLLDIV8
d:\programfiles\microchip\xc16\v1.11\bin\..\support\dsPIC33F\inc/p33FJ128GP802.inc:4579   *ABS*:00000000 TUN0
d:\programfiles\microchip\xc16\v1.11\bin\..\support\dsPIC33F\inc/p33FJ128GP802.inc:4580   *ABS*:00000001 TUN1
d:\programfiles\microchip\xc16\v1.11\bin\..\support\dsPIC33F\inc/p33FJ128GP802.inc:4581   *ABS*:00000002 TUN2
d:\programfiles\microchip\xc16\v1.11\bin\..\support\dsPIC33F\inc/p33FJ128GP802.inc:4582   *ABS*:00000003 TUN3
d:\programfiles\microchip\xc16\v1.11\bin\..\support\dsPIC33F\inc/p33FJ128GP802.inc:4583   *ABS*:00000004 TUN4
d:\programfiles\microchip\xc16\v1.11\bin\..\support\dsPIC33F\inc/p33FJ128GP802.inc:4584   *ABS*:00000005 TUN5
d:\programfiles\microchip\xc16\v1.11\bin\..\support\dsPIC33F\inc/p33FJ128GP802.inc:4588   *ABS*:00000007 ASRCSEL
d:\programfiles\microchip\xc16\v1.11\bin\..\support\dsPIC33F\inc/p33FJ128GP802.inc:4589   *ABS*:0000000d SELACLK
d:\programfiles\microchip\xc16\v1.11\bin\..\support\dsPIC33F\inc/p33FJ128GP802.inc:4591   *ABS*:00000008 APSTSCLR0
d:\programfiles\microchip\xc16\v1.11\bin\..\support\dsPIC33F\inc/p33FJ128GP802.inc:4592   *ABS*:00000009 APSTSCLR1
d:\programfiles\microchip\xc16\v1.11\bin\..\support\dsPIC33F\inc/p33FJ128GP802.inc:4593   *ABS*:0000000a APSTSCLR2
d:\programfiles\microchip\xc16\v1.11\bin\..\support\dsPIC33F\inc/p33FJ128GP802.inc:4594   *ABS*:0000000b AOSCMD0
d:\programfiles\microchip\xc16\v1.11\bin\..\support\dsPIC33F\inc/p33FJ128GP802.inc:4595   *ABS*:0000000c AOSCMD1
d:\programfiles\microchip\xc16\v1.11\bin\..\support\dsPIC33F\inc/p33FJ128GP802.inc:4599   *ABS*:00000000 RL_BSR
d:\programfiles\microchip\xc16\v1.11\bin\..\support\dsPIC33F\inc/p33FJ128GP802.inc:4600   *ABS*:00000001 IR_BSR
d:\programfiles\microchip\xc16\v1.11\bin\..\support\dsPIC33F\inc/p33FJ128GP802.inc:4601   *ABS*:00000002 IW_BSR
d:\programfiles\microchip\xc16\v1.11\bin\..\support\dsPIC33F\inc/p33FJ128GP802.inc:4605   *ABS*:00000000 RL_SSR
d:\programfiles\microchip\xc16\v1.11\bin\..\support\dsPIC33F\inc/p33FJ128GP802.inc:4606   *ABS*:00000001 IR_SSR
d:\programfiles\microchip\xc16\v1.11\bin\..\support\dsPIC33F\inc/p33FJ128GP802.inc:4607   *ABS*:00000002 IW_SSR
d:\programfiles\microchip\xc16\v1.11\bin\..\support\dsPIC33F\inc/p33FJ128GP802.inc:4611   *ABS*:00000006 ERASE
MPLAB ASM30 Listing:  ../src/ff-pic24-30-33.s 			page 179


d:\programfiles\microchip\xc16\v1.11\bin\..\support\dsPIC33F\inc/p33FJ128GP802.inc:4612   *ABS*:0000000d WRERR
d:\programfiles\microchip\xc16\v1.11\bin\..\support\dsPIC33F\inc/p33FJ128GP802.inc:4613   *ABS*:0000000e WREN
d:\programfiles\microchip\xc16\v1.11\bin\..\support\dsPIC33F\inc/p33FJ128GP802.inc:4614   *ABS*:0000000f WR
d:\programfiles\microchip\xc16\v1.11\bin\..\support\dsPIC33F\inc/p33FJ128GP802.inc:4616   *ABS*:00000000 NVMOP0
d:\programfiles\microchip\xc16\v1.11\bin\..\support\dsPIC33F\inc/p33FJ128GP802.inc:4617   *ABS*:00000001 NVMOP1
d:\programfiles\microchip\xc16\v1.11\bin\..\support\dsPIC33F\inc/p33FJ128GP802.inc:4618   *ABS*:00000002 NVMOP2
d:\programfiles\microchip\xc16\v1.11\bin\..\support\dsPIC33F\inc/p33FJ128GP802.inc:4619   *ABS*:00000003 NVMOP3
d:\programfiles\microchip\xc16\v1.11\bin\..\support\dsPIC33F\inc/p33FJ128GP802.inc:4623   *ABS*:00000000 AD1MD
d:\programfiles\microchip\xc16\v1.11\bin\..\support\dsPIC33F\inc/p33FJ128GP802.inc:4624   *ABS*:00000001 C1MD
d:\programfiles\microchip\xc16\v1.11\bin\..\support\dsPIC33F\inc/p33FJ128GP802.inc:4625   *ABS*:00000003 SPI1MD
d:\programfiles\microchip\xc16\v1.11\bin\..\support\dsPIC33F\inc/p33FJ128GP802.inc:4626   *ABS*:00000004 SPI2MD
d:\programfiles\microchip\xc16\v1.11\bin\..\support\dsPIC33F\inc/p33FJ128GP802.inc:4627   *ABS*:00000005 U1MD
d:\programfiles\microchip\xc16\v1.11\bin\..\support\dsPIC33F\inc/p33FJ128GP802.inc:4628   *ABS*:00000006 U2MD
d:\programfiles\microchip\xc16\v1.11\bin\..\support\dsPIC33F\inc/p33FJ128GP802.inc:4629   *ABS*:00000007 I2C1MD
d:\programfiles\microchip\xc16\v1.11\bin\..\support\dsPIC33F\inc/p33FJ128GP802.inc:4630   *ABS*:00000008 DCIMD
d:\programfiles\microchip\xc16\v1.11\bin\..\support\dsPIC33F\inc/p33FJ128GP802.inc:4631   *ABS*:0000000b T1MD
d:\programfiles\microchip\xc16\v1.11\bin\..\support\dsPIC33F\inc/p33FJ128GP802.inc:4632   *ABS*:0000000c T2MD
d:\programfiles\microchip\xc16\v1.11\bin\..\support\dsPIC33F\inc/p33FJ128GP802.inc:4633   *ABS*:0000000d T3MD
d:\programfiles\microchip\xc16\v1.11\bin\..\support\dsPIC33F\inc/p33FJ128GP802.inc:4634   *ABS*:0000000e T4MD
d:\programfiles\microchip\xc16\v1.11\bin\..\support\dsPIC33F\inc/p33FJ128GP802.inc:4635   *ABS*:0000000f T5MD
d:\programfiles\microchip\xc16\v1.11\bin\..\support\dsPIC33F\inc/p33FJ128GP802.inc:4639   *ABS*:00000000 OC1MD
d:\programfiles\microchip\xc16\v1.11\bin\..\support\dsPIC33F\inc/p33FJ128GP802.inc:4640   *ABS*:00000001 OC2MD
d:\programfiles\microchip\xc16\v1.11\bin\..\support\dsPIC33F\inc/p33FJ128GP802.inc:4641   *ABS*:00000002 OC3MD
d:\programfiles\microchip\xc16\v1.11\bin\..\support\dsPIC33F\inc/p33FJ128GP802.inc:4642   *ABS*:00000003 OC4MD
d:\programfiles\microchip\xc16\v1.11\bin\..\support\dsPIC33F\inc/p33FJ128GP802.inc:4643   *ABS*:00000008 IC1MD
d:\programfiles\microchip\xc16\v1.11\bin\..\support\dsPIC33F\inc/p33FJ128GP802.inc:4644   *ABS*:00000009 IC2MD
d:\programfiles\microchip\xc16\v1.11\bin\..\support\dsPIC33F\inc/p33FJ128GP802.inc:4645   *ABS*:0000000e IC7MD
d:\programfiles\microchip\xc16\v1.11\bin\..\support\dsPIC33F\inc/p33FJ128GP802.inc:4646   *ABS*:0000000f IC8MD
d:\programfiles\microchip\xc16\v1.11\bin\..\support\dsPIC33F\inc/p33FJ128GP802.inc:4650   *ABS*:00000006 DAC1MD
d:\programfiles\microchip\xc16\v1.11\bin\..\support\dsPIC33F\inc/p33FJ128GP802.inc:4651   *ABS*:00000007 CRCMD
d:\programfiles\microchip\xc16\v1.11\bin\..\support\dsPIC33F\inc/p33FJ128GP802.inc:4652   *ABS*:00000008 PMPMD
d:\programfiles\microchip\xc16\v1.11\bin\..\support\dsPIC33F\inc/p33FJ128GP802.inc:4653   *ABS*:00000009 RTCCMD
d:\programfiles\microchip\xc16\v1.11\bin\..\support\dsPIC33F\inc/p33FJ128GP802.inc:4654   *ABS*:0000000a CMPMD
d:\programfiles\microchip\xc16\v1.11\bin\..\support\dsPIC33F\inc/p33FJ128GP802.inc:4661   *ABS*:00000000 SLEEP_MODE
d:\programfiles\microchip\xc16\v1.11\bin\..\support\dsPIC33F\inc/p33FJ128GP802.inc:4662   *ABS*:00000001 IDLE_MODE
d:\programfiles\microchip\xc16\v1.11\bin\..\support\dsPIC33F\inc/p33FJ128GP802.inc:4752   *ABS*:0000fffe BWRP_WRPROTECT_ON
d:\programfiles\microchip\xc16\v1.11\bin\..\support\dsPIC33F\inc/p33FJ128GP802.inc:4753   *ABS*:0000ffff BWRP_WRPROTECT_OFF
d:\programfiles\microchip\xc16\v1.11\bin\..\support\dsPIC33F\inc/p33FJ128GP802.inc:4755   *ABS*:0000fff1 BSS_LARGE_FLASH_HIGH
d:\programfiles\microchip\xc16\v1.11\bin\..\support\dsPIC33F\inc/p33FJ128GP802.inc:4756   *ABS*:0000fff1 BSS_HIGH_LARGE_BOOT_CODE
d:\programfiles\microchip\xc16\v1.11\bin\..\support\dsPIC33F\inc/p33FJ128GP802.inc:4757   *ABS*:0000fff3 BSS_MEDIUM_FLASH_HIGH
d:\programfiles\microchip\xc16\v1.11\bin\..\support\dsPIC33F\inc/p33FJ128GP802.inc:4758   *ABS*:0000fff3 BSS_HIGH_MEDIUM_BOOT_CODE
d:\programfiles\microchip\xc16\v1.11\bin\..\support\dsPIC33F\inc/p33FJ128GP802.inc:4759   *ABS*:0000fff5 BSS_SMALL_FLASH_HIGH
d:\programfiles\microchip\xc16\v1.11\bin\..\support\dsPIC33F\inc/p33FJ128GP802.inc:4760   *ABS*:0000fff5 BSS_HIGH_SMALL_BOOT_CODE
d:\programfiles\microchip\xc16\v1.11\bin\..\support\dsPIC33F\inc/p33FJ128GP802.inc:4761   *ABS*:0000fff9 BSS_LARGE_FLASH_STD
d:\programfiles\microchip\xc16\v1.11\bin\..\support\dsPIC33F\inc/p33FJ128GP802.inc:4762   *ABS*:0000fff9 BSS_STRD_LARGE_BOOT_CODE
d:\programfiles\microchip\xc16\v1.11\bin\..\support\dsPIC33F\inc/p33FJ128GP802.inc:4763   *ABS*:0000fffb BSS_MEDIUM_FLASH_STD
d:\programfiles\microchip\xc16\v1.11\bin\..\support\dsPIC33F\inc/p33FJ128GP802.inc:4764   *ABS*:0000fffb BSS_STRD_MEDIUM_BOOT_CODE
d:\programfiles\microchip\xc16\v1.11\bin\..\support\dsPIC33F\inc/p33FJ128GP802.inc:4765   *ABS*:0000fffd BSS_SMALL_FLASH_STD
d:\programfiles\microchip\xc16\v1.11\bin\..\support\dsPIC33F\inc/p33FJ128GP802.inc:4766   *ABS*:0000fffd BSS_STRD_SMALL_BOOT_CODE
d:\programfiles\microchip\xc16\v1.11\bin\..\support\dsPIC33F\inc/p33FJ128GP802.inc:4767   *ABS*:0000ffff BSS_NO_FLASH
d:\programfiles\microchip\xc16\v1.11\bin\..\support\dsPIC33F\inc/p33FJ128GP802.inc:4768   *ABS*:0000ffff BSS_NO_BOOT_CODE
d:\programfiles\microchip\xc16\v1.11\bin\..\support\dsPIC33F\inc/p33FJ128GP802.inc:4770   *ABS*:0000ff3f RBS_LARGE_RAM
d:\programfiles\microchip\xc16\v1.11\bin\..\support\dsPIC33F\inc/p33FJ128GP802.inc:4771   *ABS*:0000ff3f RBS_LARGE_BOOT_RAM
d:\programfiles\microchip\xc16\v1.11\bin\..\support\dsPIC33F\inc/p33FJ128GP802.inc:4772   *ABS*:0000ff7f RBS_MEDIUM_RAM
d:\programfiles\microchip\xc16\v1.11\bin\..\support\dsPIC33F\inc/p33FJ128GP802.inc:4773   *ABS*:0000ff7f RBS_MEDIUM_BOOT_RAM
d:\programfiles\microchip\xc16\v1.11\bin\..\support\dsPIC33F\inc/p33FJ128GP802.inc:4774   *ABS*:0000ffbf RBS_SMALL_RAM
d:\programfiles\microchip\xc16\v1.11\bin\..\support\dsPIC33F\inc/p33FJ128GP802.inc:4775   *ABS*:0000ffbf RBS_SMALL_BOOT_RAM
MPLAB ASM30 Listing:  ../src/ff-pic24-30-33.s 			page 180


d:\programfiles\microchip\xc16\v1.11\bin\..\support\dsPIC33F\inc/p33FJ128GP802.inc:4776   *ABS*:0000ffff RBS_NO_RAM
d:\programfiles\microchip\xc16\v1.11\bin\..\support\dsPIC33F\inc/p33FJ128GP802.inc:4777   *ABS*:0000ffff RBS_NO_BOOT_RAM
d:\programfiles\microchip\xc16\v1.11\bin\..\support\dsPIC33F\inc/p33FJ128GP802.inc:4814   *ABS*:0000fffe SWRP_WRPROTECT_ON
d:\programfiles\microchip\xc16\v1.11\bin\..\support\dsPIC33F\inc/p33FJ128GP802.inc:4815   *ABS*:0000ffff SWRP_WRPROTECT_OFF
d:\programfiles\microchip\xc16\v1.11\bin\..\support\dsPIC33F\inc/p33FJ128GP802.inc:4817   *ABS*:0000fff1 SSS_LARGE_FLASH_HIGH
d:\programfiles\microchip\xc16\v1.11\bin\..\support\dsPIC33F\inc/p33FJ128GP802.inc:4818   *ABS*:0000fff1 SSS_HIGH_LARGE_SEC_CODE
d:\programfiles\microchip\xc16\v1.11\bin\..\support\dsPIC33F\inc/p33FJ128GP802.inc:4819   *ABS*:0000fff3 SSS_MEDIUM_FLASH_HIGH
d:\programfiles\microchip\xc16\v1.11\bin\..\support\dsPIC33F\inc/p33FJ128GP802.inc:4820   *ABS*:0000fff3 SSS_HIGH_MEDIUM_SEC_CODE
d:\programfiles\microchip\xc16\v1.11\bin\..\support\dsPIC33F\inc/p33FJ128GP802.inc:4821   *ABS*:0000fff5 SSS_SMALL_FLASH_HIGH
d:\programfiles\microchip\xc16\v1.11\bin\..\support\dsPIC33F\inc/p33FJ128GP802.inc:4822   *ABS*:0000fff5 SSS_HIGH_SMALL_SEC_CODE
d:\programfiles\microchip\xc16\v1.11\bin\..\support\dsPIC33F\inc/p33FJ128GP802.inc:4823   *ABS*:0000fff9 SSS_LARGE_FLASH_STD
d:\programfiles\microchip\xc16\v1.11\bin\..\support\dsPIC33F\inc/p33FJ128GP802.inc:4824   *ABS*:0000fff9 SSS_STRD_LARGE_SEC_CODE
d:\programfiles\microchip\xc16\v1.11\bin\..\support\dsPIC33F\inc/p33FJ128GP802.inc:4825   *ABS*:0000fffb SSS_MEDIUM_FLASH_STD
d:\programfiles\microchip\xc16\v1.11\bin\..\support\dsPIC33F\inc/p33FJ128GP802.inc:4826   *ABS*:0000fffb SSS_STRD_MEDIUM_SEC_CODE
d:\programfiles\microchip\xc16\v1.11\bin\..\support\dsPIC33F\inc/p33FJ128GP802.inc:4827   *ABS*:0000fffd SSS_SMALL_FLASH_STD
d:\programfiles\microchip\xc16\v1.11\bin\..\support\dsPIC33F\inc/p33FJ128GP802.inc:4828   *ABS*:0000fffd SSS_STRD_SMALL_SEC_CODE
d:\programfiles\microchip\xc16\v1.11\bin\..\support\dsPIC33F\inc/p33FJ128GP802.inc:4829   *ABS*:0000ffff SSS_NO_FLASH
d:\programfiles\microchip\xc16\v1.11\bin\..\support\dsPIC33F\inc/p33FJ128GP802.inc:4830   *ABS*:0000ffff SSS_NO_SEC_CODE
d:\programfiles\microchip\xc16\v1.11\bin\..\support\dsPIC33F\inc/p33FJ128GP802.inc:4832   *ABS*:0000ff3f RSS_LARGE_RAM
d:\programfiles\microchip\xc16\v1.11\bin\..\support\dsPIC33F\inc/p33FJ128GP802.inc:4833   *ABS*:0000ff3f RSS_LARGE_SEC_RAM
d:\programfiles\microchip\xc16\v1.11\bin\..\support\dsPIC33F\inc/p33FJ128GP802.inc:4834   *ABS*:0000ff7f RSS_MEDIUM_RAM
d:\programfiles\microchip\xc16\v1.11\bin\..\support\dsPIC33F\inc/p33FJ128GP802.inc:4835   *ABS*:0000ff7f RSS_MEDIUM_SEC_RAM
d:\programfiles\microchip\xc16\v1.11\bin\..\support\dsPIC33F\inc/p33FJ128GP802.inc:4836   *ABS*:0000ffbf RSS_SMALL_RAM
d:\programfiles\microchip\xc16\v1.11\bin\..\support\dsPIC33F\inc/p33FJ128GP802.inc:4837   *ABS*:0000ffbf RSS_SMALL_SEC_RAM
d:\programfiles\microchip\xc16\v1.11\bin\..\support\dsPIC33F\inc/p33FJ128GP802.inc:4838   *ABS*:0000ffff RSS_NO_RAM
d:\programfiles\microchip\xc16\v1.11\bin\..\support\dsPIC33F\inc/p33FJ128GP802.inc:4839   *ABS*:0000ffff RSS_NO_SEC_RAM
d:\programfiles\microchip\xc16\v1.11\bin\..\support\dsPIC33F\inc/p33FJ128GP802.inc:4857   *ABS*:0000fffe GWRP_ON
d:\programfiles\microchip\xc16\v1.11\bin\..\support\dsPIC33F\inc/p33FJ128GP802.inc:4858   *ABS*:0000ffff GWRP_OFF
d:\programfiles\microchip\xc16\v1.11\bin\..\support\dsPIC33F\inc/p33FJ128GP802.inc:4860   *ABS*:0000fffb GSS_HIGH
d:\programfiles\microchip\xc16\v1.11\bin\..\support\dsPIC33F\inc/p33FJ128GP802.inc:4861   *ABS*:0000fffd GSS_STD
d:\programfiles\microchip\xc16\v1.11\bin\..\support\dsPIC33F\inc/p33FJ128GP802.inc:4862   *ABS*:0000fffd GCP_ON
d:\programfiles\microchip\xc16\v1.11\bin\..\support\dsPIC33F\inc/p33FJ128GP802.inc:4863   *ABS*:0000ffff GSS_OFF
d:\programfiles\microchip\xc16\v1.11\bin\..\support\dsPIC33F\inc/p33FJ128GP802.inc:4864   *ABS*:0000ffff GCP_OFF
d:\programfiles\microchip\xc16\v1.11\bin\..\support\dsPIC33F\inc/p33FJ128GP802.inc:4885   *ABS*:0000fff8 FNOSC_FRC
d:\programfiles\microchip\xc16\v1.11\bin\..\support\dsPIC33F\inc/p33FJ128GP802.inc:4886   *ABS*:0000fff9 FNOSC_FRCPLL
d:\programfiles\microchip\xc16\v1.11\bin\..\support\dsPIC33F\inc/p33FJ128GP802.inc:4887   *ABS*:0000fffa FNOSC_PRI
d:\programfiles\microchip\xc16\v1.11\bin\..\support\dsPIC33F\inc/p33FJ128GP802.inc:4888   *ABS*:0000fffb FNOSC_PRIPLL
d:\programfiles\microchip\xc16\v1.11\bin\..\support\dsPIC33F\inc/p33FJ128GP802.inc:4889   *ABS*:0000fffc FNOSC_SOSC
d:\programfiles\microchip\xc16\v1.11\bin\..\support\dsPIC33F\inc/p33FJ128GP802.inc:4890   *ABS*:0000fffd FNOSC_LPRC
d:\programfiles\microchip\xc16\v1.11\bin\..\support\dsPIC33F\inc/p33FJ128GP802.inc:4891   *ABS*:0000fffe FNOSC_FRCDIV16
d:\programfiles\microchip\xc16\v1.11\bin\..\support\dsPIC33F\inc/p33FJ128GP802.inc:4892   *ABS*:0000ffff FNOSC_LPRCDIVN
d:\programfiles\microchip\xc16\v1.11\bin\..\support\dsPIC33F\inc/p33FJ128GP802.inc:4894   *ABS*:0000ff7f IESO_OFF
d:\programfiles\microchip\xc16\v1.11\bin\..\support\dsPIC33F\inc/p33FJ128GP802.inc:4895   *ABS*:0000ffff IESO_ON
d:\programfiles\microchip\xc16\v1.11\bin\..\support\dsPIC33F\inc/p33FJ128GP802.inc:4921   *ABS*:0000fffc POSCMD_EC
d:\programfiles\microchip\xc16\v1.11\bin\..\support\dsPIC33F\inc/p33FJ128GP802.inc:4922   *ABS*:0000fffd POSCMD_XT
d:\programfiles\microchip\xc16\v1.11\bin\..\support\dsPIC33F\inc/p33FJ128GP802.inc:4923   *ABS*:0000fffe POSCMD_HS
d:\programfiles\microchip\xc16\v1.11\bin\..\support\dsPIC33F\inc/p33FJ128GP802.inc:4924   *ABS*:0000ffff POSCMD_NONE
d:\programfiles\microchip\xc16\v1.11\bin\..\support\dsPIC33F\inc/p33FJ128GP802.inc:4926   *ABS*:0000fffb OSCIOFNC_ON
d:\programfiles\microchip\xc16\v1.11\bin\..\support\dsPIC33F\inc/p33FJ128GP802.inc:4927   *ABS*:0000ffff OSCIOFNC_OFF
d:\programfiles\microchip\xc16\v1.11\bin\..\support\dsPIC33F\inc/p33FJ128GP802.inc:4929   *ABS*:0000ffdf IOL1WAY_OFF
d:\programfiles\microchip\xc16\v1.11\bin\..\support\dsPIC33F\inc/p33FJ128GP802.inc:4930   *ABS*:0000ffff IOL1WAY_ON
d:\programfiles\microchip\xc16\v1.11\bin\..\support\dsPIC33F\inc/p33FJ128GP802.inc:4932   *ABS*:0000ff3f FCKSM_CSECME
d:\programfiles\microchip\xc16\v1.11\bin\..\support\dsPIC33F\inc/p33FJ128GP802.inc:4933   *ABS*:0000ff7f FCKSM_CSECMD
d:\programfiles\microchip\xc16\v1.11\bin\..\support\dsPIC33F\inc/p33FJ128GP802.inc:4934   *ABS*:0000ffbf FCKSM_CSDCMD
d:\programfiles\microchip\xc16\v1.11\bin\..\support\dsPIC33F\inc/p33FJ128GP802.inc:4971   *ABS*:0000fff0 WDTPOST_PS1
d:\programfiles\microchip\xc16\v1.11\bin\..\support\dsPIC33F\inc/p33FJ128GP802.inc:4972   *ABS*:0000fff1 WDTPOST_PS2
d:\programfiles\microchip\xc16\v1.11\bin\..\support\dsPIC33F\inc/p33FJ128GP802.inc:4973   *ABS*:0000fff2 WDTPOST_PS4
MPLAB ASM30 Listing:  ../src/ff-pic24-30-33.s 			page 181


d:\programfiles\microchip\xc16\v1.11\bin\..\support\dsPIC33F\inc/p33FJ128GP802.inc:4974   *ABS*:0000fff3 WDTPOST_PS8
d:\programfiles\microchip\xc16\v1.11\bin\..\support\dsPIC33F\inc/p33FJ128GP802.inc:4975   *ABS*:0000fff4 WDTPOST_PS16
d:\programfiles\microchip\xc16\v1.11\bin\..\support\dsPIC33F\inc/p33FJ128GP802.inc:4976   *ABS*:0000fff5 WDTPOST_PS32
d:\programfiles\microchip\xc16\v1.11\bin\..\support\dsPIC33F\inc/p33FJ128GP802.inc:4977   *ABS*:0000fff6 WDTPOST_PS64
d:\programfiles\microchip\xc16\v1.11\bin\..\support\dsPIC33F\inc/p33FJ128GP802.inc:4978   *ABS*:0000fff7 WDTPOST_PS128
d:\programfiles\microchip\xc16\v1.11\bin\..\support\dsPIC33F\inc/p33FJ128GP802.inc:4979   *ABS*:0000fff8 WDTPOST_PS256
d:\programfiles\microchip\xc16\v1.11\bin\..\support\dsPIC33F\inc/p33FJ128GP802.inc:4980   *ABS*:0000fff9 WDTPOST_PS512
d:\programfiles\microchip\xc16\v1.11\bin\..\support\dsPIC33F\inc/p33FJ128GP802.inc:4981   *ABS*:0000fffa WDTPOST_PS1024
d:\programfiles\microchip\xc16\v1.11\bin\..\support\dsPIC33F\inc/p33FJ128GP802.inc:4982   *ABS*:0000fffb WDTPOST_PS2048
d:\programfiles\microchip\xc16\v1.11\bin\..\support\dsPIC33F\inc/p33FJ128GP802.inc:4983   *ABS*:0000fffc WDTPOST_PS4096
d:\programfiles\microchip\xc16\v1.11\bin\..\support\dsPIC33F\inc/p33FJ128GP802.inc:4984   *ABS*:0000fffd WDTPOST_PS8192
d:\programfiles\microchip\xc16\v1.11\bin\..\support\dsPIC33F\inc/p33FJ128GP802.inc:4985   *ABS*:0000fffe WDTPOST_PS16384
d:\programfiles\microchip\xc16\v1.11\bin\..\support\dsPIC33F\inc/p33FJ128GP802.inc:4986   *ABS*:0000ffff WDTPOST_PS32768
d:\programfiles\microchip\xc16\v1.11\bin\..\support\dsPIC33F\inc/p33FJ128GP802.inc:4988   *ABS*:0000ffef WDTPRE_PR32
d:\programfiles\microchip\xc16\v1.11\bin\..\support\dsPIC33F\inc/p33FJ128GP802.inc:4989   *ABS*:0000ffff WDTPRE_PR128
d:\programfiles\microchip\xc16\v1.11\bin\..\support\dsPIC33F\inc/p33FJ128GP802.inc:4991   *ABS*:0000ffbf WINDIS_ON
d:\programfiles\microchip\xc16\v1.11\bin\..\support\dsPIC33F\inc/p33FJ128GP802.inc:4992   *ABS*:0000ffff WINDIS_OFF
d:\programfiles\microchip\xc16\v1.11\bin\..\support\dsPIC33F\inc/p33FJ128GP802.inc:4994   *ABS*:0000ff7f FWDTEN_OFF
d:\programfiles\microchip\xc16\v1.11\bin\..\support\dsPIC33F\inc/p33FJ128GP802.inc:4995   *ABS*:0000ffff FWDTEN_ON
d:\programfiles\microchip\xc16\v1.11\bin\..\support\dsPIC33F\inc/p33FJ128GP802.inc:5016   *ABS*:0000fff8 FPWRT_PWR1
d:\programfiles\microchip\xc16\v1.11\bin\..\support\dsPIC33F\inc/p33FJ128GP802.inc:5017   *ABS*:0000fff9 FPWRT_PWR2
d:\programfiles\microchip\xc16\v1.11\bin\..\support\dsPIC33F\inc/p33FJ128GP802.inc:5018   *ABS*:0000fffa FPWRT_PWR4
d:\programfiles\microchip\xc16\v1.11\bin\..\support\dsPIC33F\inc/p33FJ128GP802.inc:5019   *ABS*:0000fffb FPWRT_PWR8
d:\programfiles\microchip\xc16\v1.11\bin\..\support\dsPIC33F\inc/p33FJ128GP802.inc:5020   *ABS*:0000fffc FPWRT_PWR16
d:\programfiles\microchip\xc16\v1.11\bin\..\support\dsPIC33F\inc/p33FJ128GP802.inc:5021   *ABS*:0000fffd FPWRT_PWR32
d:\programfiles\microchip\xc16\v1.11\bin\..\support\dsPIC33F\inc/p33FJ128GP802.inc:5022   *ABS*:0000fffe FPWRT_PWR64
d:\programfiles\microchip\xc16\v1.11\bin\..\support\dsPIC33F\inc/p33FJ128GP802.inc:5023   *ABS*:0000ffff FPWRT_PWR128
d:\programfiles\microchip\xc16\v1.11\bin\..\support\dsPIC33F\inc/p33FJ128GP802.inc:5025   *ABS*:0000ffef ALTI2C_ON
d:\programfiles\microchip\xc16\v1.11\bin\..\support\dsPIC33F\inc/p33FJ128GP802.inc:5026   *ABS*:0000ffff ALTI2C_OFF
d:\programfiles\microchip\xc16\v1.11\bin\..\support\dsPIC33F\inc/p33FJ128GP802.inc:5042   *ABS*:0000fffd ICS_PGD3
d:\programfiles\microchip\xc16\v1.11\bin\..\support\dsPIC33F\inc/p33FJ128GP802.inc:5043   *ABS*:0000fffe ICS_PGD2
d:\programfiles\microchip\xc16\v1.11\bin\..\support\dsPIC33F\inc/p33FJ128GP802.inc:5044   *ABS*:0000ffff ICS_PGD1
d:\programfiles\microchip\xc16\v1.11\bin\..\support\dsPIC33F\inc/p33FJ128GP802.inc:5046   *ABS*:0000ffdf JTAGEN_OFF
d:\programfiles\microchip\xc16\v1.11\bin\..\support\dsPIC33F\inc/p33FJ128GP802.inc:5047   *ABS*:0000ffff JTAGEN_ON
d:\programfiles\microchip\xc16\v1.11\bin\..\support\dsPIC33F\inc/p33Fxxxx.inc:113    *ABS*:00000001 VALID_ID
../src/p33_config.inc:7      *ABS*:00015800 FLASH_SIZE
../src/p33_config.inc:9      *ABS*:00004000 RAM_SIZE
../src/p33_config.inc:16     __FOSCSEL.sec:00000000 __FOSCSEL
../src/p33_config.inc:19     __FOSC.sec:00000000 __FOSC
../src/p33_config.inc:24     *ABS*:0000002b PLL_DIV
../src/p33_config.inc:25     *ABS*:00000029 PLL_FBD
../src/p33_config.inc:26     *ABS*:00000002 PLL_POST
../src/p33_config.inc:27     *ABS*:00000002 PLL_PRE
../src/p33_config.inc:28     *ABS*:00707510 FREQ_FIN
../src/p33_config.inc:29     *ABS*:04b8ea6c FREQ_OSC
../src/p33_config.inc:35     *ABS*:0001c200 BAUDRATE1
../src/p33_config.inc:36     *ABS*:00000001 FC1_TYPE
../src/p33_config.inc:37     *ABS*:00000000 AUTOBAUD1
../src/p33_config.inc:42     *ABS*:00000001 FC2_TYPE
../src/p33_config.inc:43     *ABS*:00000000 AUTOBAUD2
../src/p33_config.inc:48     *ABS*:0000000b U1RXPIN
../src/p33_config.inc:49     *ABS*:0000000b RPINR18VAL
../src/p33_config.inc:50     *ABS*:0000000a U1TXPIN
../src/p33_config.inc:69     *ABS*:0000000a BASE_DEFAULT
../src/p33_config.inc:75     *ABS*:00000001 CPU_LOAD
../src/p33_config.inc:78     *ABS*:00000000 CPU_LOAD_LED
../src/p33_config.inc:81     *ABS*:00000008 CPU_LOAD_BIT
MPLAB ASM30 Listing:  ../src/ff-pic24-30-33.s 			page 182


../src/p33_config.inc:82     *ABS*:00000000 CPU_LOAD_LED_POLARITY
../src/p33_config.inc:85     *ABS*:000007d0 TURNKEY_DELAY
../src/p33_config.inc:88     *ABS*:00000040 TX1_BUF_SIZE
../src/p33_config.inc:89     *ABS*:00000080 RX1_BUF_SIZE
../src/p33_config.inc:90     *ABS*:00000020 RX1_OFF_FILL
../src/p33_config.inc:92     *ABS*:00000010 TX2_BUF_SIZE
../src/p33_config.inc:93     *ABS*:00000020 RX2_BUF_SIZE
../src/p33_config.inc:94     *ABS*:00000008 RX2_OFF_FILL
../src/p33_config.inc:97     *ABS*:00000060 RETURN_STACK_SIZE
../src/p33_config.inc:98     *ABS*:00000060 PARAMETER_STACK_SIZE
../src/p33_config.inc:99     *ABS*:00000080 TIB_SIZE
../src/p33_config.inc:100    *ABS*:0000000a HOLD_SIZE
../src/p33_config.inc:104    *ABS*:00000000 UADDSIZE
../src/p33_config.inc:107    *ABS*:00000000 DEBUG_INFO
../src/p33_config.inc:112    *ABS*:00000000 DEBUG_FLASH
../src/p33_config.inc:115    *ABS*:00000001 C_EXAMPLE
../src/p33_config.inc:118    *ABS*:00000001 CTRL_O_WARM_RESET
../src/p33_config.inc:121    *ABS*:00004800 PFLASH
../src/p33_config.inc:122    *ABS*:0001a000 HI_TEMP
../src/p33_config.inc:124    *ABS*:0000ffff FLASH_HI
../src/p33_config.inc:130    *ABS*:00004042 FLASH_ERASE
../src/p33_config.inc:131    *ABS*:00004001 FLASH_WRITE
../src/p33_config.inc:132    *ABS*:00004003 FLASH_WRITE_SINGLE
../src/p33_config.inc:133    *ABS*:00000100 PAIVT
../src/p33_config.inc:134    *ABS*:00000400 IBUFSIZEL
../src/p33_config.inc:135    *ABS*:00000200 IBUFSIZEH
../src/p33_config.inc:136    *ABS*:00000040 IBUFLEN1
../src/p33_config.inc:137    *ABS*:00000008 IBUFLEN2
../src/p33_config.inc:138    *ABS*:0000fc00 IBUFMASK
../src/p33_config.inc:141    *ABS*:025c7536 FCY
../src/p33_config.inc:142    *ABS*:00009abc MS_PR_VAL
../src/p33_config.inc:143    *ABS*:00000054 BAUD_DIV1
../src/p33_config.inc:147    *ABS*:00000014 write_delay
../src/ff-pic24-30-33.s:712    .text:000001e4 __reset
../src/ff-pic24-30-33.s:257    .text:0000002a __T1Interrupt
../src/ff-pic24-30-33.s:360    .text:000000a4 __U1TXInterrupt
../src/ff-pic24-30-33.s:290    .text:00000054 __U1RXInterrupt
../src/ff-pic24-30-33.s:247    .text:00000024 __OscillatorFail
../src/ff-pic24-30-33.s:250    .text:00000024 __AddressError
../src/ff-pic24-30-33.s:251    .text:00000024 __StackError
../src/ff-pic24-30-33.s:252    .text:00000024 __MathError
../src/ff-pic24-30-33.s:467    .text:000000be __DefaultInterrupt
../src/ff-pic24-30-33.s:57     *ABS*:00000080 NFA
../src/ff-pic24-30-33.s:58     *ABS*:00000040 IMMED
../src/ff-pic24-30-33.s:59     *ABS*:00000020 INLINE
../src/ff-pic24-30-33.s:60     *ABS*:00000010 COMPILE
../src/ff-pic24-30-33.s:61     *ABS*:0000000f NFL
../src/ff-pic24-30-33.s:64     *ABS*:0000c000 BUSYIDLE_MASK
../src/ff-pic24-30-33.s:65     *ABS*:0000000f fBUSY
../src/ff-pic24-30-33.s:66     *ABS*:0000000e fIDLE
../src/ff-pic24-30-33.s:67     *ABS*:0000000c edirty
../src/ff-pic24-30-33.s:68     *ABS*:0000000b fFC2
../src/ff-pic24-30-33.s:69     *ABS*:0000000a ixoff2
../src/ff-pic24-30-33.s:70     *ABS*:00000009 fLOCK
../src/ff-pic24-30-33.s:71     *ABS*:00000008 tailcall
../src/ff-pic24-30-33.s:72     *ABS*:00000006 noclear
../src/ff-pic24-30-33.s:73     *ABS*:00000005 idup
MPLAB ASM30 Listing:  ../src/ff-pic24-30-33.s 			page 183


../src/ff-pic24-30-33.s:74     *ABS*:00000004 izeroeq
../src/ff-pic24-30-33.s:75     *ABS*:00000003 istream
../src/ff-pic24-30-33.s:76     *ABS*:00000002 fFC1
../src/ff-pic24-30-33.s:77     *ABS*:00000001 ixoff1
../src/ff-pic24-30-33.s:78     *ABS*:00000000 idirty
../src/ff-pic24-30-33.s:82     *ABS*:00000011 XON
../src/ff-pic24-30-33.s:83     *ABS*:00000013 XOFF
../src/ff-pic24-30-33.s:86     *ABS*:00000040 IVECSIZE
../src/ff-pic24-30-33.s:91     *ABS*:ffffffe0 us0
../src/ff-pic24-30-33.s:92     *ABS*:ffffffe2 ur0
../src/ff-pic24-30-33.s:93     *ABS*:ffffffe4 uemit
../src/ff-pic24-30-33.s:94     *ABS*:ffffffe6 ukey
../src/ff-pic24-30-33.s:95     *ABS*:ffffffe8 ukeyq
../src/ff-pic24-30-33.s:96     *ABS*:ffffffea ulink
../src/ff-pic24-30-33.s:97     *ABS*:ffffffec ubase
../src/ff-pic24-30-33.s:98     *ABS*:ffffffee utib
../src/ff-pic24-30-33.s:99     *ABS*:fffffff0 utask
../src/ff-pic24-30-33.s:100    *ABS*:fffffff2 uflg
../src/ff-pic24-30-33.s:101    *ABS*:fffffff3 ustatus
../src/ff-pic24-30-33.s:102    *ABS*:fffffff4 ursave
../src/ff-pic24-30-33.s:103    *ABS*:fffffff6 ussave
../src/ff-pic24-30-33.s:104    *ABS*:fffffff8 upsave
../src/ff-pic24-30-33.s:105    *ABS*:fffffffa usource
../src/ff-pic24-30-33.s:106    *ABS*:fffffffe utoin
../src/ff-pic24-30-33.s:107    *ABS*:00000000 uhp
../src/ff-pic24-30-33.s:108    .bss:0000079e urbuf
../src/ff-pic24-30-33.s:208    .bss:0000077c ustart
../src/ff-pic24-30-33.s:109    .bss:000007fe usbuf
../src/ff-pic24-30-33.s:110    .bss:000007fc usbuf0
../src/ff-pic24-30-33.s:111    .bss:0000085e utibbuf
../src/ff-pic24-30-33.s:114    .bss:0000079c u0
../src/ff-pic24-30-33.s:115    *ABS*:0000016c uareasize
../src/ff-pic24-30-33.s:118    .bss:000008e8 dpdata
../src/ff-pic24-30-33.s:134    .bss:00000000 ibufl
../src/ff-pic24-30-33.s:135    .bss:00000400 ibufh
../src/ff-pic24-30-33.s:137    .bss:00000600 intcon1dbg
../src/ff-pic24-30-33.s:140    .bss:00000602 txqueue1
../src/ff-pic24-30-33.s:141    .bss:00000602 tbuf_len1
../src/ff-pic24-30-33.s:142    .bss:00000604 tbuf_wr1
../src/ff-pic24-30-33.s:143    .bss:00000606 tbuf_rd1
../src/ff-pic24-30-33.s:144    .bss:00000608 tbuf_lv1
../src/ff-pic24-30-33.s:145    .bss:0000060a tbuf1
../src/ff-pic24-30-33.s:148    .bss:0000064a rxqueue1
../src/ff-pic24-30-33.s:149    .bss:0000064a rbuf_len1
../src/ff-pic24-30-33.s:150    .bss:0000064c rbuf_wr1
../src/ff-pic24-30-33.s:151    .bss:0000064e rbuf_rd1
../src/ff-pic24-30-33.s:152    .bss:00000650 rbuf_lv1
../src/ff-pic24-30-33.s:153    .bss:00000652 rbuf1
../src/ff-pic24-30-33.s:174    .bss:000006d2 temp
../src/ff-pic24-30-33.s:175    .bss:000006d4 ibase
../src/ff-pic24-30-33.s:176    .bss:000006d6 iaddr
../src/ff-pic24-30-33.s:177    .bss:000006d8 iflags
../src/ff-pic24-30-33.s:178    .bss:000006da status
../src/ff-pic24-30-33.s:179    .bss:000006dc load
../src/ff-pic24-30-33.s:180    .bss:000006de load_acc
../src/ff-pic24-30-33.s:182    .bss:000006e2 ms_count
../src/ff-pic24-30-33.s:184    .bss:000006e4 dpSTART
MPLAB ASM30 Listing:  ../src/ff-pic24-30-33.s 			page 184


../src/ff-pic24-30-33.s:193    .bss:000006e6 dpRAM
../src/ff-pic24-30-33.s:194    .bss:000006e8 dpLATEST
../src/ff-pic24-30-33.s:195    .bss:000006ea dpFLASH
../src/ff-pic24-30-33.s:196    .bss:000006ec dpSAVE
../src/ff-pic24-30-33.s:197    *ABS*:00000004 MARKER_LENGTH
../src/ff-pic24-30-33.s:201    .bss:000006f4 IVECTAB
../src/ff-pic24-30-33.s:204    .bss:00000774 cse
../src/ff-pic24-30-33.s:205    .bss:00000776 prompt
../src/ff-pic24-30-33.s:206    .bss:00000778 state
../src/ff-pic24-30-33.s:207    .bss:0000077a upcurr
../src/ff-pic24-30-33.s:214    .text:00000000 COLDLIT
../src/ff-pic24-30-33.s:215    .text:00000000 STARTV
../src/ff-pic24-30-33.s:223    .text:00000002 DPD
../src/ff-pic24-30-33.s:224    .text:00000004 LW
../src/ff-pic24-30-33.s:6430   .text:000020ac lastword
../src/ff-pic24-30-33.s:225    .text:00000006 DPC
                            .text:00003400 KERNEL_END
../src/ff-pic24-30-33.s:226    *ABS*:00000004 coldlitsize
../src/ff-pic24-30-33.s:230    *ABS*:0000000e warmlitsize
../src/ff-pic24-30-33.s:231    .text:00000008 WARMLIT
../src/ff-pic24-30-33.s:5191   .text:000018a6 DOTSTATUS
../src/ff-pic24-30-33.s:2245   .text:00000906 TX1
../src/ff-pic24-30-33.s:2282   .text:00000930 RX1
../src/ff-pic24-30-33.s:2296   .text:00000948 RX1Q
../src/ff-pic24-30-33.s:1206   .text:000003d6 OPERATOR_AREA
../src/ff-pic24-30-33.s:284    .text:00000050 RETFIE_T1_0
../src/ff-pic24-30-33.s:296    .text:00000058 __U1RXInterrupt0
../src/ff-pic24-30-33.s:351    .text:00000098 U1RX_ERR1
../src/ff-pic24-30-33.s:709    .text:000001e2 RESET_FF_1
../src/ff-pic24-30-33.s:315    .text:00000072 U1_SKIP_FC_1
../src/ff-pic24-30-33.s:339    .text:0000008e __U1RXInterrupt3
../src/ff-pic24-30-33.s:2236   .text:000008fc U1RXQUEUE_DATA
../src/ff-pic24-30-33.s:2099   .text:0000082c CQUEUE_TO
../src/ff-pic24-30-33.s:337    .text:0000008e U1_SKIP_FC_2
../src/ff-pic24-30-33.s:326    .text:00000084 __U1RXInterrupt2
../src/ff-pic24-30-33.s:342    .text:00000092 __U1RXTXIRQ_END
../src/ff-pic24-30-33.s:347    .text:00000094 ALT_INT_EXIT
../src/ff-pic24-30-33.s:367    .text:000000aa __U1TXInterrupt0
../src/ff-pic24-30-33.s:2223   .text:000008ea U1TXQUEUE_DATA
../src/ff-pic24-30-33.s:2139   .text:00000868 CQUEUE_FROM
../src/ff-pic24-30-33.s:487    .text:000000d2 iupdatebuf
../src/ff-pic24-30-33.s:502    .text:000000de iupdatebuf0
../src/ff-pic24-30-33.s:1436   .text:00000528 IFLUSH
../src/ff-pic24-30-33.s:508    .text:000000e8 fill_buffer_from_imem
../src/ff-pic24-30-33.s:549    .text:00000116 wbti_init
../src/ff-pic24-30-33.s:511    .text:000000ec fill_buffer_from_imem1
../src/ff-pic24-30-33.s:513    .text:000000ee fill_buffer_from_imem2
../src/ff-pic24-30-33.s:522    .text:000000fc wait_silence
../src/ff-pic24-30-33.s:1715   .text:0000063a LOCKED
../src/ff-pic24-30-33.s:536    .text:00000108 wbtil
../src/ff-pic24-30-33.s:541    .text:0000010c wbtil2
../src/ff-pic24-30-33.s:561    .text:00000124 write_buffer_to_imem
../src/ff-pic24-30-33.s:1545   .text:000005be EWENABLE0
../src/ff-pic24-30-33.s:576    .text:00000130 wbtil3
../src/ff-pic24-30-33.s:578    .text:00000132 wbtil4
../src/ff-pic24-30-33.s:589    .text:00000144 wbtil5
../src/ff-pic24-30-33.s:591    .text:00000146 wbtil6
MPLAB ASM30 Listing:  ../src/ff-pic24-30-33.s 			page 185


../src/ff-pic24-30-33.s:606    .text:00000160 verify_imem_2
../src/ff-pic24-30-33.s:611    .text:00000164 LITERAL_L
../src/ff-pic24-30-33.s:615    .text:0000016c LITERAL
../src/ff-pic24-30-33.s:1373   .text:000004ce AS_COMMA
../src/ff-pic24-30-33.s:635    .text:0000018a TO_A_L
../src/ff-pic24-30-33.s:643    .text:00000194 A_FROM_L
../src/ff-pic24-30-33.s:651    .text:0000019e IDLE_L
../src/ff-pic24-30-33.s:655    .text:000001a4 IDLE_
../src/ff-pic24-30-33.s:660    .text:000001aa BUSY_L
../src/ff-pic24-30-33.s:664    .text:000001b0 BUSY_
../src/ff-pic24-30-33.s:669    .text:000001b6 LOAD_L
../src/ff-pic24-30-33.s:673    .text:000001bc LOAD_
../src/ff-pic24-30-33.s:680    .text:000001c4 COLD_L
../src/ff-pic24-30-33.s:684    .text:000001ca COLD
../src/ff-pic24-30-33.s:5223   .text:000018d6 DP_COLD
../src/ff-pic24-30-33.s:5251   .text:000018f8 DP_TO_RAM
../src/ff-pic24-30-33.s:699    .text:000001d2 WARM_L
../src/ff-pic24-30-33.s:703    .text:000001d8 WARM_
../src/ff-pic24-30-33.s:5287   .text:00001926 DP_TO_EEPROM
../src/ff-pic24-30-33.s:706    .text:000001dc RESET_FF
../src/ff-pic24-30-33.s:6197   .text:00001e04 MS
../src/ff-pic24-30-33.s:713    .text:000001e4 WARM
../src/ff-pic24-30-33.s:729    .text:000001f8 FILL_RAM
../src/ff-pic24-30-33.s:740    .text:0000020a WARM_FILL_IVEC
../src/ff-pic24-30-33.s:752    .text:00000216 WARM_0
../src/ff-pic24-30-33.s:2220   .text:000008e4 U1TXQUEUE
../src/ff-pic24-30-33.s:2176   .text:0000089e CQUEUEZ
../src/ff-pic24-30-33.s:2233   .text:000008f6 U1RXQUEUE
../src/ff-pic24-30-33.s:785    .text:0000022e PLL_IN_USE
../src/ff-pic24-30-33.s:793    .text:00000236 PLL_NOT_IN_USE
../src/ff-pic24-30-33.s:790    .text:00000232 WAITFORLOCK
../src/ff-pic24-30-33.s:4603   .text:00001506 WMOVE
../src/ff-pic24-30-33.s:5206   .text:000018c6 FTURNKEY_A
../src/ff-pic24-30-33.s:1802   .text:00000680 FETCH
../src/ff-pic24-30-33.s:2495   .text:000009bc DOEMIT
../src/ff-pic24-30-33.s:940    .text:00000298 RQ_DIV0
../src/ff-pic24-30-33.s:944    .text:0000029e RQ_ADDR
../src/ff-pic24-30-33.s:948    .text:000002a4 RQ_BOR
../src/ff-pic24-30-33.s:952    .text:000002aa RQ_POR
../src/ff-pic24-30-33.s:956    .text:000002b0 RQ_TO
../src/ff-pic24-30-33.s:960    .text:000002b6 RQ_RI
../src/ff-pic24-30-33.s:964    .text:000002bc RQ_EXTR
../src/ff-pic24-30-33.s:968    .text:000002c2 RQ_END
../src/ff-pic24-30-33.s:973    .text:000002c6 WARM1
../src/ff-pic24-30-33.s:3749   .text:00001078 XSQUOTE
../src/ff-pic24-30-33.s:3729   .text:0000105e TYPE
../src/ff-pic24-30-33.s:2044   .text:000007e2 EMIT
../src/ff-pic24-30-33.s:1013   .text:0000031e TURNKEY
../src/ff-pic24-30-33.s:1004   .text:00000312 STARTQ2
../src/ff-pic24-30-33.s:2062   .text:000007fc KEYQ
../src/ff-pic24-30-33.s:1001   .text:0000030e STARTQ1
../src/ff-pic24-30-33.s:2053   .text:000007ee KEY
../src/ff-pic24-30-33.s:3843   .text:000010fc NOTEQUAL
../src/ff-pic24-30-33.s:2444   .text:00000978 EXECUTE
../src/ff-pic24-30-33.s:5421   .text:000019c4 ABORT
../src/ff-pic24-30-33.s:1009   .text:00000316 TURNKEY_L
../src/ff-pic24-30-33.s:3158   .text:00000d20 VALUE_DOES
MPLAB ASM30 Listing:  ../src/ff-pic24-30-33.s 			page 186


../src/ff-pic24-30-33.s:1019   .text:00000324 PAUSE_L
../src/ff-pic24-30-33.s:1023   .text:0000032a PAUSE
../src/ff-pic24-30-33.s:1047   .text:0000033a PAUSE_BUSY
../src/ff-pic24-30-33.s:1056   .text:0000033a PAUSE2
../src/ff-pic24-30-33.s:1074   .text:00000358 CWD_L
../src/ff-pic24-30-33.s:1078   .text:0000035c CWD
../src/ff-pic24-30-33.s:1088   .text:00000362 INTERRUPT_STORE_L
../src/ff-pic24-30-33.s:1092   .text:00000368 INTERRUPT_STORE
../src/ff-pic24-30-33.s:1121   .text:0000037c IVT_L
../src/ff-pic24-30-33.s:1125   .text:00000380 IVT
../src/ff-pic24-30-33.s:1131   .text:00000386 AIVT_L
../src/ff-pic24-30-33.s:1135   .text:0000038c AIVT
../src/ff-pic24-30-33.s:1141   .text:00000392 BRACKETI_L
../src/ff-pic24-30-33.s:1145   .text:00000396 BRACKETI
../src/ff-pic24-30-33.s:1159   .text:000003a0 IBRACKET_L
../src/ff-pic24-30-33.s:1163   .text:000003a4 IBRACKET
../src/ff-pic24-30-33.s:1178   .text:000003ae DI_L
../src/ff-pic24-30-33.s:1182   .text:000003b2 DI
../src/ff-pic24-30-33.s:1190   .text:000003bc EI_L
../src/ff-pic24-30-33.s:1194   .text:000003c0 EI
../src/ff-pic24-30-33.s:1199   .text:000003c6 OPERATOR_L
../src/ff-pic24-30-33.s:1203   .text:000003d0 OPERATOR
../src/ff-pic24-30-33.s:2487   .text:000009b4 DOCREATE
../src/ff-pic24-30-33.s:1216   .text:000003de RCALL_L
../src/ff-pic24-30-33.s:1220   .text:000003e6 RCALL_
../src/ff-pic24-30-33.s:1228   .text:000003f2 RETURN_L
../src/ff-pic24-30-33.s:1232   .text:000003fa RETURN_
../src/ff-pic24-30-33.s:6361   .text:0000205c FALSE_
../src/ff-pic24-30-33.s:1240   .text:00000406 RETFIE_L
../src/ff-pic24-30-33.s:1244   .text:0000040e RETFIE_
../src/ff-pic24-30-33.s:1252   .text:0000041c BRA_L
../src/ff-pic24-30-33.s:1256   .text:00000422 BRA_
../src/ff-pic24-30-33.s:2577   .text:00000a20 SWOP
../src/ff-pic24-30-33.s:2735   .text:00000ae6 OR
../src/ff-pic24-30-33.s:1267   .text:00000432 AS0_L
../src/ff-pic24-30-33.s:1271   .text:00000436 AS0
../src/ff-pic24-30-33.s:3957   .text:00001178 USLASH
../src/ff-pic24-30-33.s:2663   .text:00000a88 PLUS
../src/ff-pic24-30-33.s:2725   .text:00000ada AND
../src/ff-pic24-30-33.s:1928   .text:0000072c LSHIFT
../src/ff-pic24-30-33.s:1287   .text:00000456 BCLR_L
../src/ff-pic24-30-33.s:1291   .text:0000045c BCLR_
../src/ff-pic24-30-33.s:1299   .text:00000468 BSET_L
../src/ff-pic24-30-33.s:1303   .text:0000046e BSET_
../src/ff-pic24-30-33.s:1310   .text:0000047a BTST_L
../src/ff-pic24-30-33.s:1314   .text:00000480 BTST_
../src/ff-pic24-30-33.s:1322   .text:0000048c BTSC_L
../src/ff-pic24-30-33.s:1326   .text:00000492 BTSC_
../src/ff-pic24-30-33.s:1334   .text:0000049e BTSS_L
../src/ff-pic24-30-33.s:1338   .text:000004a4 BTSS_
../src/ff-pic24-30-33.s:1346   .text:000004b0 CF_STORE_L
../src/ff-pic24-30-33.s:1350   .text:000004b4 CF_STORE
../src/ff-pic24-30-33.s:1450   .text:00000538 CFISTORE
../src/ff-pic24-30-33.s:1358   .text:000004be CF_FETCH_L
../src/ff-pic24-30-33.s:1362   .text:000004c2 CF_FETCH
../src/ff-pic24-30-33.s:1369   .text:000004ca AS_COMMA_L
../src/ff-pic24-30-33.s:1394   .text:000004f0 AS_COMMA1
MPLAB ASM30 Listing:  ../src/ff-pic24-30-33.s 			page 187


../src/ff-pic24-30-33.s:5951   .text:00001cc8 IDPMINUS
../src/ff-pic24-30-33.s:1402   .text:000004fe AS_COMMA2
../src/ff-pic24-30-33.s:5514   .text:00001a40 IHERE
../src/ff-pic24-30-33.s:3401   .text:00000e72 CELL
../src/ff-pic24-30-33.s:6279   .text:00001e86 IALLOT
../src/ff-pic24-30-33.s:1407   .text:00000500 ICOMMA_L
../src/ff-pic24-30-33.s:1411   .text:00000504 ICOMMA
../src/ff-pic24-30-33.s:1761   .text:00000658 STORE
../src/ff-pic24-30-33.s:1420   .text:00000510 COMMAXT_L
../src/ff-pic24-30-33.s:1424   .text:00000514 COMMAXT
../src/ff-pic24-30-33.s:2700   .text:00000ab8 MINUS
../src/ff-pic24-30-33.s:1432   .text:00000520 IFLUSH_L
../src/ff-pic24-30-33.s:1442   .text:0000052e ICSTORE
../src/ff-pic24-30-33.s:1485   .text:0000056a ISTORE_ADDRCHK
../src/ff-pic24-30-33.s:1463   .text:00000546 ISTORE_SUB
../src/ff-pic24-30-33.s:1455   .text:0000053e ISTORECF
../src/ff-pic24-30-33.s:1453   .text:0000053c ISTORE
../src/ff-pic24-30-33.s:1457   .text:00000540 ISTORE_RAW
../src/ff-pic24-30-33.s:1460   .text:00000544 ISTORE1
../src/ff-pic24-30-33.s:1490   .text:00000572 ISTORE_ADDRERR
../src/ff-pic24-30-33.s:1493   .text:00000574 PCFETCH1
../src/ff-pic24-30-33.s:1497   .text:00000578 ICFETCH
../src/ff-pic24-30-33.s:1532   .text:000005b0 IFETCH_INIT
../src/ff-pic24-30-33.s:1508   .text:0000058a PFETCH1
../src/ff-pic24-30-33.s:1514   .text:00000592 IFETCH
../src/ff-pic24-30-33.s:1543   .text:000005bc EWENABLE
../src/ff-pic24-30-33.s:1554   .text:000005ce EWENABLE1
../src/ff-pic24-30-33.s:1629   .text:000005d4 EEREAD
../src/ff-pic24-30-33.s:1638   .text:000005de EEREAD1
../src/ff-pic24-30-33.s:1646   .text:000005ea EEINIT
../src/ff-pic24-30-33.s:1685   .text:00000618 EEERASE
../src/ff-pic24-30-33.s:1656   .text:000005f0 EEWRITE
../src/ff-pic24-30-33.s:1665   .text:000005fa EEWRITE1
../src/ff-pic24-30-33.s:1672   .text:00000606 EEWRITE2
../src/ff-pic24-30-33.s:1677   .text:0000060e EEWRITE3
../src/ff-pic24-30-33.s:1700   .text:00000628 FLOCK_L
../src/ff-pic24-30-33.s:1708   .text:00000632 FUNLOCK_L
../src/ff-pic24-30-33.s:1721   .text:00000642 FCON_L
../src/ff-pic24-30-33.s:1729   .text:0000064c FCOFF_L
../src/ff-pic24-30-33.s:1757   .text:00000656 STORE_L
../src/ff-pic24-30-33.s:1768   .text:00000664 STORE1
../src/ff-pic24-30-33.s:1777   .text:00000668 CSTORE_L
../src/ff-pic24-30-33.s:1781   .text:0000066c CSTORE
../src/ff-pic24-30-33.s:1789   .text:0000067a CSTORE1
../src/ff-pic24-30-33.s:1798   .text:0000067e FETCH_L
../src/ff-pic24-30-33.s:1809   .text:0000068c FETCH1
../src/ff-pic24-30-33.s:1818   .text:00000690 CFETCH_L
../src/ff-pic24-30-33.s:1822   .text:00000694 CFETCH
../src/ff-pic24-30-33.s:1830   .text:000006a2 CFETCH1
../src/ff-pic24-30-33.s:1839   .text:000006a6 MSET_L
../src/ff-pic24-30-33.s:1843   .text:000006ac MSET
../src/ff-pic24-30-33.s:1850   .text:000006b6 MCLR_L
../src/ff-pic24-30-33.s:1854   .text:000006bc MCLR
../src/ff-pic24-30-33.s:1861   .text:000006c6 MTST_L
../src/ff-pic24-30-33.s:1865   .text:000006cc MTST
../src/ff-pic24-30-33.s:1874   .text:000006d8 BSET__L
../src/ff-pic24-30-33.s:1878   .text:000006de BSET__
MPLAB ASM30 Listing:  ../src/ff-pic24-30-33.s 			page 188


../src/ff-pic24-30-33.s:1891   .text:000006f0 BCLR__L
../src/ff-pic24-30-33.s:1895   .text:000006f6 BCLR__
../src/ff-pic24-30-33.s:1907   .text:00000708 BTST__L
../src/ff-pic24-30-33.s:1911   .text:0000070e BTST__
../src/ff-pic24-30-33.s:1924   .text:00000724 LSHIFT_L
../src/ff-pic24-30-33.s:1936   .text:00000738 RSHIFT_L
../src/ff-pic24-30-33.s:1940   .text:00000740 RSHIFT
../src/ff-pic24-30-33.s:1948   .text:0000074c NEQUAL_L
../src/ff-pic24-30-33.s:1952   .text:00000750 NEQUAL
../src/ff-pic24-30-33.s:1976   .text:0000077c NEQUAL_TRUE
../src/ff-pic24-30-33.s:1962   .text:00000762 NEQUAL1
../src/ff-pic24-30-33.s:1983   .text:00000782 SKIP_L
../src/ff-pic24-30-33.s:1987   .text:00000788 SKIP
../src/ff-pic24-30-33.s:2006   .text:000007a8 SKIP2
../src/ff-pic24-30-33.s:1993   .text:00000792 SKIP0
../src/ff-pic24-30-33.s:2002   .text:000007a2 SKIP1
../src/ff-pic24-30-33.s:2012   .text:000007b0 SCAN_L
../src/ff-pic24-30-33.s:2016   .text:000007b6 SCAN
../src/ff-pic24-30-33.s:2034   .text:000007d4 SCAN3
../src/ff-pic24-30-33.s:2022   .text:000007c0 SCAN0
../src/ff-pic24-30-33.s:2028   .text:000007ca SCAN2
../src/ff-pic24-30-33.s:2040   .text:000007dc EMIT_L
../src/ff-pic24-30-33.s:2071   .text:0000080a UEMIT
../src/ff-pic24-30-33.s:2455   .text:00000986 FEXECUTE
../src/ff-pic24-30-33.s:2049   .text:000007ea KEY_L
../src/ff-pic24-30-33.s:2080   .text:00000816 UKEY
../src/ff-pic24-30-33.s:2058   .text:000007f6 KEYQ_L
../src/ff-pic24-30-33.s:2089   .text:00000822 UKEYQ
../src/ff-pic24-30-33.s:2067   .text:00000804 UEMIT_L
../src/ff-pic24-30-33.s:3137   .text:00000d06 DOUSER
../src/ff-pic24-30-33.s:2076   .text:00000810 UKEY_L
../src/ff-pic24-30-33.s:2085   .text:0000081c UKEYQ_L
../src/ff-pic24-30-33.s:2095   .text:00000828 CQUEUE_TO_L
../src/ff-pic24-30-33.s:2111   .text:00000842 CQUEUE_TO_1
../src/ff-pic24-30-33.s:2119   .text:0000084c CQUEUE_TOQ_L
../src/ff-pic24-30-33.s:2123   .text:00000852 CQUEUE_TOQ
../src/ff-pic24-30-33.s:2135   .text:00000864 CQUEUE_FROM_L
../src/ff-pic24-30-33.s:2151   .text:0000087e CQUEUE_FROM_1
../src/ff-pic24-30-33.s:2159   .text:00000888 CQUEUE_FROMQ_L
../src/ff-pic24-30-33.s:2163   .text:0000088e CQUEUE_FROMQ
../src/ff-pic24-30-33.s:2172   .text:0000089a CQUEUEZ_L
../src/ff-pic24-30-33.s:4653   .text:0000154c FETCHPP
../src/ff-pic24-30-33.s:2193   .text:000008ba CQUEUE_L
../src/ff-pic24-30-33.s:2197   .text:000008be CQUEUE
../src/ff-pic24-30-33.s:3308   .text:00000e0c FLASH
../src/ff-pic24-30-33.s:5548   .text:00001a60 CREATE
../src/ff-pic24-30-33.s:6139   .text:00001dc6 RHERE
../src/ff-pic24-30-33.s:3379   .text:00000e50 COMMA
../src/ff-pic24-30-33.s:3330   .text:00000e18 RAM
../src/ff-pic24-30-33.s:6289   .text:00001e94 ALLOT
../src/ff-pic24-30-33.s:5625   .text:00001af4 XDOES
../src/ff-pic24-30-33.s:2210   .text:000008d8 CQUEUE_DOES
../src/ff-pic24-30-33.s:2509   .text:000009cc DODOES
../src/ff-pic24-30-33.s:2216   .text:000008de U1TXQUEUE_L
../src/ff-pic24-30-33.s:2229   .text:000008f0 U1RXQUEUE_L
../src/ff-pic24-30-33.s:2241   .text:00000902 TX1_L
../src/ff-pic24-30-33.s:2268   .text:00000922 TX1Q
MPLAB ASM30 Listing:  ../src/ff-pic24-30-33.s 			page 189


../src/ff-pic24-30-33.s:2251   .text:00000910 TX1_1
../src/ff-pic24-30-33.s:2264   .text:0000091c TX1Q_L
../src/ff-pic24-30-33.s:2278   .text:0000092c RX1_L
../src/ff-pic24-30-33.s:2292   .text:00000942 RX1Q_L
../src/ff-pic24-30-33.s:2318   .text:00000962 RX1Q1
../src/ff-pic24-30-33.s:2431   .text:00000966 DUP_L
../src/ff-pic24-30-33.s:2435   .text:0000096a DUP
../src/ff-pic24-30-33.s:2440   .text:00000970 EXECUTE_L
../src/ff-pic24-30-33.s:2451   .text:00000982 FEXECUTE_L
../src/ff-pic24-30-33.s:2463   .text:00000992 EXIT_L
../src/ff-pic24-30-33.s:2467   .text:00000998 EXIT
../src/ff-pic24-30-33.s:2474   .text:000009a0 DOCOMMAXT
../src/ff-pic24-30-33.s:2483   .text:000009b0 DOCREATE_L
../src/ff-pic24-30-33.s:2505   .text:000009c8 DODOES_L
../src/ff-pic24-30-33.s:2521   .text:000009da SPSTORE_L
../src/ff-pic24-30-33.s:2525   .text:000009de SPSTORE
../src/ff-pic24-30-33.s:2530   .text:000009e4 SPFETCH_L
../src/ff-pic24-30-33.s:2534   .text:000009e8 SPFETCH
../src/ff-pic24-30-33.s:2540   .text:000009ee RPFETCH_L
../src/ff-pic24-30-33.s:2544   .text:000009f2 RPFETCH
../src/ff-pic24-30-33.s:2550   .text:000009fa RPEMPTY_L
../src/ff-pic24-30-33.s:2554   .text:000009fe RPEMPTY
../src/ff-pic24-30-33.s:6170   .text:00001dec R0
../src/ff-pic24-30-33.s:2564   .text:00000a0e DROP_L
../src/ff-pic24-30-33.s:2568   .text:00000a14 DROP
../src/ff-pic24-30-33.s:2573   .text:00000a1a SWAP_L
../src/ff-pic24-30-33.s:2584   .text:00000a2a OVER_L
../src/ff-pic24-30-33.s:2588   .text:00000a30 OVER
../src/ff-pic24-30-33.s:2594   .text:00000a38 ROT_L
../src/ff-pic24-30-33.s:2598   .text:00000a3c ROT
../src/ff-pic24-30-33.s:2608   .text:00000a4c TOR_L
../src/ff-pic24-30-33.s:2612   .text:00000a50 TOR
../src/ff-pic24-30-33.s:2618   .text:00000a56 RFROM_L
../src/ff-pic24-30-33.s:2622   .text:00000a5a RFROM
../src/ff-pic24-30-33.s:2628   .text:00000a60 RFETCH_L
../src/ff-pic24-30-33.s:2632   .text:00000a64 RFETCH
../src/ff-pic24-30-33.s:2639   .text:00000a6c ABS_L
../src/ff-pic24-30-33.s:2643   .text:00000a70 ABS
../src/ff-pic24-30-33.s:4077   .text:00001222 QNEGATE
../src/ff-pic24-30-33.s:2650   .text:00000a78 DABS_L
../src/ff-pic24-30-33.s:2654   .text:00000a7e DABS
../src/ff-pic24-30-33.s:2796   .text:00000b48 QDNEGATE
../src/ff-pic24-30-33.s:2659   .text:00000a86 PLUS_L
../src/ff-pic24-30-33.s:2669   .text:00000a90 MPLUS_L
../src/ff-pic24-30-33.s:2673   .text:00000a94 MPLUS
../src/ff-pic24-30-33.s:2683   .text:00000aa4 DPLUS_L
../src/ff-pic24-30-33.s:2687   .text:00000aa8 DPLUS
../src/ff-pic24-30-33.s:2696   .text:00000ab6 MINUS_L
../src/ff-pic24-30-33.s:2707   .text:00000ac2 DMINUS_L
../src/ff-pic24-30-33.s:2711   .text:00000ac6 DMINUS
../src/ff-pic24-30-33.s:2721   .text:00000ad6 AND_L
../src/ff-pic24-30-33.s:2731   .text:00000ae2 OR_L
../src/ff-pic24-30-33.s:2741   .text:00000aee XOR_L
../src/ff-pic24-30-33.s:2745   .text:00000af2 XOR
../src/ff-pic24-30-33.s:2751   .text:00000afa INVERT_L
../src/ff-pic24-30-33.s:2755   .text:00000b02 INVERT
../src/ff-pic24-30-33.s:2760   .text:00000b08 DINVERT_L
MPLAB ASM30 Listing:  ../src/ff-pic24-30-33.s 			page 190


../src/ff-pic24-30-33.s:2764   .text:00000b10 DINVERT
../src/ff-pic24-30-33.s:2770   .text:00000b18 NEGATE_L
../src/ff-pic24-30-33.s:2774   .text:00000b20 NEGATE
../src/ff-pic24-30-33.s:2779   .text:00000b26 DNEGATE_L
../src/ff-pic24-30-33.s:2783   .text:00000b2e DNEGATE
../src/ff-pic24-30-33.s:3600   .text:00000f96 ONE
../src/ff-pic24-30-33.s:2792   .text:00000b3e QDNEGATE_L
../src/ff-pic24-30-33.s:2906   .text:00000bca ZEROLESS
../src/ff-pic24-30-33.s:2801   .text:00000b50 QDNEGATE1
../src/ff-pic24-30-33.s:2805   .text:00000b54 ONEPLUS_L
../src/ff-pic24-30-33.s:2809   .text:00000b58 ONEPLUS
../src/ff-pic24-30-33.s:2814   .text:00000b5e TWOPLUS_L
../src/ff-pic24-30-33.s:2818   .text:00000b62 TWOPLUS
../src/ff-pic24-30-33.s:2823   .text:00000b68 ONEMINUS_L
../src/ff-pic24-30-33.s:2827   .text:00000b6c ONEMINUS
../src/ff-pic24-30-33.s:2832   .text:00000b72 TWOMINUS_L
../src/ff-pic24-30-33.s:2836   .text:00000b76 TWOMINUS
../src/ff-pic24-30-33.s:2841   .text:00000b7c TWOSTAR_L
../src/ff-pic24-30-33.s:2845   .text:00000b80 TWOSTAR
../src/ff-pic24-30-33.s:2850   .text:00000b86 DTWOSTAR_L
../src/ff-pic24-30-33.s:2854   .text:00000b8a DTWOSTAR
../src/ff-pic24-30-33.s:2860   .text:00000b92 TWOSLASH_L
../src/ff-pic24-30-33.s:2864   .text:00000b96 TWOSLASH
../src/ff-pic24-30-33.s:2869   .text:00000b9c DTWOSLASH_L
../src/ff-pic24-30-33.s:2873   .text:00000ba0 DTWOSLASH
../src/ff-pic24-30-33.s:2879   .text:00000ba8 ZEROEQUAL_L
../src/ff-pic24-30-33.s:2883   .text:00000bac ZEROEQUAL
../src/ff-pic24-30-33.s:2909   .text:00000bce test_false
../src/ff-pic24-30-33.s:2886   .text:00000bb0 test_true
../src/ff-pic24-30-33.s:2891   .text:00000bb6 DZEROEQUAL_L
../src/ff-pic24-30-33.s:2895   .text:00000bba DZEROEQUAL
../src/ff-pic24-30-33.s:2902   .text:00000bc6 ZEROLESS_L
../src/ff-pic24-30-33.s:2914   .text:00000bd4 DZEROLESS_L
../src/ff-pic24-30-33.s:2918   .text:00000bd8 DZEROLESS
../src/ff-pic24-30-33.s:2924   .text:00000be2 STORE_P_L
../src/ff-pic24-30-33.s:2928   .text:00000be6 STORE_P
../src/ff-pic24-30-33.s:2933   .text:00000bec STORE_P_TO_R_L
../src/ff-pic24-30-33.s:2937   .text:00000bf2 STORE_P_TO_R
../src/ff-pic24-30-33.s:2943   .text:00000bfa R_TO_P_L
../src/ff-pic24-30-33.s:2947   .text:00000bfe R_TO_P
../src/ff-pic24-30-33.s:2952   .text:00000c04 FETCH_P_L
../src/ff-pic24-30-33.s:2956   .text:00000c08 FETCH_P
../src/ff-pic24-30-33.s:2961   .text:00000c0e PFETCH_L
../src/ff-pic24-30-33.s:2965   .text:00000c12 PFETCH
../src/ff-pic24-30-33.s:2970   .text:00000c1a PCFETCH_L
../src/ff-pic24-30-33.s:2974   .text:00000c1e PCFETCH
../src/ff-pic24-30-33.s:2979   .text:00000c26 PSTORE_L
../src/ff-pic24-30-33.s:2983   .text:00000c2a PSTORE
../src/ff-pic24-30-33.s:2988   .text:00000c32 PCSTORE_L
../src/ff-pic24-30-33.s:2992   .text:00000c36 PCSTORE
../src/ff-pic24-30-33.s:2997   .text:00000c3e PPLUS_L
../src/ff-pic24-30-33.s:3001   .text:00000c42 PPLUS
../src/ff-pic24-30-33.s:3006   .text:00000c48 PPLUS2_L
../src/ff-pic24-30-33.s:3010   .text:00000c4c PPLUS2
../src/ff-pic24-30-33.s:3015   .text:00000c52 PNPLUS_L
../src/ff-pic24-30-33.s:3019   .text:00000c56 PNPLUS
../src/ff-pic24-30-33.s:3025   .text:00000c5e STOD_L
MPLAB ASM30 Listing:  ../src/ff-pic24-30-33.s 			page 191


../src/ff-pic24-30-33.s:3029   .text:00000c62 STOD
../src/ff-pic24-30-33.s:3034   .text:00000c6a UMSTAR_L
../src/ff-pic24-30-33.s:3038   .text:00000c6e UMSTAR
../src/ff-pic24-30-33.s:3046   .text:00000c7a MSTAR_L
../src/ff-pic24-30-33.s:3050   .text:00000c7e MSTAR
../src/ff-pic24-30-33.s:3058   .text:00000c8a UMSLASHMOD_L
../src/ff-pic24-30-33.s:3062   .text:00000c92 UMSLASHMOD
../src/ff-pic24-30-33.s:3073   .text:00000ca4 SMSLASHREM_L
../src/ff-pic24-30-33.s:3077   .text:00000cac SMSLASHREM
../src/ff-pic24-30-33.s:3088   .text:00000cbe USLASHMOD_L
../src/ff-pic24-30-33.s:3092   .text:00000cc4 USLASHMOD
../src/ff-pic24-30-33.s:3102   .text:00000cd4 SLASHMOD_L
../src/ff-pic24-30-33.s:3106   .text:00000cda SLASHMOD
../src/ff-pic24-30-33.s:3116   .text:00000cea MOD_L
../src/ff-pic24-30-33.s:3120   .text:00000cee MOD
../src/ff-pic24-30-33.s:3130   .text:00000cfc USER_L
../src/ff-pic24-30-33.s:3134   .text:00000d02 USER
../src/ff-pic24-30-33.s:3244   .text:00000da6 CONSTANT
../src/ff-pic24-30-33.s:3150   .text:00000d14 VALUE_L
../src/ff-pic24-30-33.s:3154   .text:00000d1a VALUE
../src/ff-pic24-30-33.s:3164   .text:00000d28 DEFER_L
../src/ff-pic24-30-33.s:3168   .text:00000d2e DEFER
../src/ff-pic24-30-33.s:3173   .text:00000d38 DEFER_DOES
../src/ff-pic24-30-33.s:3178   .text:00000d40 IS_L
../src/ff-pic24-30-33.s:3182   .text:00000d44 IS
../src/ff-pic24-30-33.s:5476   .text:00001a0e TICK
../src/ff-pic24-30-33.s:6127   .text:00001db8 STATE
../src/ff-pic24-30-33.s:3193   .text:00000d58 IS1
../src/ff-pic24-30-33.s:3195   .text:00000d5a IS2
../src/ff-pic24-30-33.s:3199   .text:00000d5e TO_L
../src/ff-pic24-30-33.s:3203   .text:00000d62 TO
../src/ff-pic24-30-33.s:3209   .text:00000d68 TOBODY_L
../src/ff-pic24-30-33.s:3213   .text:00000d6e TOBODY
../src/ff-pic24-30-33.s:3218   .text:00000d74 VARIABLE_L
../src/ff-pic24-30-33.s:3222   .text:00000d7e VARIABLE_
../src/ff-pic24-30-33.s:3370   .text:00000e46 HERE
../src/ff-pic24-30-33.s:3256   .text:00000dbe CON_
../src/ff-pic24-30-33.s:3229   .text:00000d8a TWOVARIABLE_L
../src/ff-pic24-30-33.s:3233   .text:00000d94 TWOVARIABLE
../src/ff-pic24-30-33.s:3240   .text:00000da2 CONSTANT_L
../src/ff-pic24-30-33.s:3252   .text:00000db4 CON_L
../src/ff-pic24-30-33.s:5683   .text:00001b3a COLON
../src/ff-pic24-30-33.s:5707   .text:00001b5a SEMICOLON
../src/ff-pic24-30-33.s:3262   .text:00000dc8 TWOCON_L
../src/ff-pic24-30-33.s:3266   .text:00000dd2 TWOCON_
../src/ff-pic24-30-33.s:3274   .text:00000de0 PFLASH_L
../src/ff-pic24-30-33.s:3278   .text:00000de4 PFLASH_
../src/ff-pic24-30-33.s:3283   .text:00000dec TO_XA_L
../src/ff-pic24-30-33.s:3287   .text:00000df0 TO_XA
../src/ff-pic24-30-33.s:3294   .text:00000dfa XA_FROM_L
../src/ff-pic24-30-33.s:3298   .text:00000dfe XA_FROM
../src/ff-pic24-30-33.s:3304   .text:00000e06 FLASH_L
../src/ff-pic24-30-33.s:3326   .text:00000e14 RAM_L
../src/ff-pic24-30-33.s:3339   .text:00000e20 CSE
../src/ff-pic24-30-33.s:3351   .text:00000e2a IDP
../src/ff-pic24-30-33.s:3356   .text:00000e30 DP_L
../src/ff-pic24-30-33.s:3360   .text:00000e34 DP
MPLAB ASM30 Listing:  ../src/ff-pic24-30-33.s 			page 192


../src/ff-pic24-30-33.s:3366   .text:00000e40 HERE_L
../src/ff-pic24-30-33.s:3375   .text:00000e4e COMMA_L
../src/ff-pic24-30-33.s:3386   .text:00000e5c CCOMMA_L
../src/ff-pic24-30-33.s:3390   .text:00000e60 CCOMMA
../src/ff-pic24-30-33.s:3397   .text:00000e6c CELL_L
../src/ff-pic24-30-33.s:3407   .text:00000e7a ALIGN_L
../src/ff-pic24-30-33.s:3411   .text:00000e80 ALIGN
../src/ff-pic24-30-33.s:3422   .text:00000e94 ALIGNED
../src/ff-pic24-30-33.s:3418   .text:00000e8c ALIGNED_L
../src/ff-pic24-30-33.s:3428   .text:00000ea0 CELLPLUS_L
../src/ff-pic24-30-33.s:3432   .text:00000ea6 CELLPLUS
../src/ff-pic24-30-33.s:3437   .text:00000eac CELLS_L
../src/ff-pic24-30-33.s:3441   .text:00000eb2 CELLS
../src/ff-pic24-30-33.s:3446   .text:00000eb8 CHARPLUS_L
../src/ff-pic24-30-33.s:3450   .text:00000ebe CHARPLUS
../src/ff-pic24-30-33.s:3455   .text:00000ec4 CHARS_L
../src/ff-pic24-30-33.s:3459   .text:00000eca CHARS
../src/ff-pic24-30-33.s:3462   .text:00000ecc STORCOLON
../src/ff-pic24-30-33.s:3467   .text:00000ed6 TWOFETCH_L
../src/ff-pic24-30-33.s:3471   .text:00000eda TWOFETCH
../src/ff-pic24-30-33.s:3479   .text:00000ee8 TWOSTORE_L
../src/ff-pic24-30-33.s:3483   .text:00000eec TWOSTORE
../src/ff-pic24-30-33.s:3491   .text:00000efa TWODROP_L
../src/ff-pic24-30-33.s:3495   .text:00000f00 TWODROP
../src/ff-pic24-30-33.s:3500   .text:00000f06 TWODUP_L
../src/ff-pic24-30-33.s:3504   .text:00000f0c TWODUP
../src/ff-pic24-30-33.s:3509   .text:00000f14 TWOSWAP_L
../src/ff-pic24-30-33.s:3513   .text:00000f1a TWOSWAP
../src/ff-pic24-30-33.s:3521   .text:00000f26 CR_L
../src/ff-pic24-30-33.s:3525   .text:00000f2a CR
../src/ff-pic24-30-33.s:3532   .text:00000f3a SPACE_L
../src/ff-pic24-30-33.s:3536   .text:00000f40 SPACE_
../src/ff-pic24-30-33.s:6116   .text:00001daa BL
../src/ff-pic24-30-33.s:3541   .text:00000f48 SPACES_L
../src/ff-pic24-30-33.s:3545   .text:00000f50 SPACES
../src/ff-pic24-30-33.s:3546   .text:00000f50 SPCS1
../src/ff-pic24-30-33.s:3552   .text:00000f5a SPCS2
../src/ff-pic24-30-33.s:3557   .text:00000f60 UMIN_L
../src/ff-pic24-30-33.s:3561   .text:00000f66 UMIN
../src/ff-pic24-30-33.s:3933   .text:00001160 UGREATER
../src/ff-pic24-30-33.s:3567   .text:00000f70 UMIN1
../src/ff-pic24-30-33.s:3572   .text:00000f76 UMAX_L
../src/ff-pic24-30-33.s:3576   .text:00000f7c UMAX
../src/ff-pic24-30-33.s:3921   .text:00001152 ULESS
../src/ff-pic24-30-33.s:3582   .text:00000f86 UMAX1
../src/ff-pic24-30-33.s:3587   .text:00000f8c ZERO_L
../src/ff-pic24-30-33.s:3591   .text:00000f8e ZERO
../src/ff-pic24-30-33.s:3596   .text:00000f94 ONE_L
../src/ff-pic24-30-33.s:3606   .text:00000f9e ACCEPT_L
../src/ff-pic24-30-33.s:3610   .text:00000fa6 ACCEPT
../src/ff-pic24-30-33.s:3614   .text:00000fac ACC1
../src/ff-pic24-30-33.s:3627   .text:00000fbe ACC_LF
../src/ff-pic24-30-33.s:6371   .text:00002068 TRUE_
../src/ff-pic24-30-33.s:3678   .text:00001016 FCR
../src/ff-pic24-30-33.s:3669   .text:0000100a ACC6
../src/ff-pic24-30-33.s:3640   .text:00000fd4 ACC2
../src/ff-pic24-30-33.s:5783   .text:00001bd2 ZEROSENSE
MPLAB ASM30 Listing:  ../src/ff-pic24-30-33.s 			page 193


../src/ff-pic24-30-33.s:3855   .text:00001108 EQUAL
../src/ff-pic24-30-33.s:3659   .text:00000ff8 ACC3
../src/ff-pic24-30-33.s:3674   .text:00001012 FCR_L
../src/ff-pic24-30-33.s:3684   .text:0000101c DOTID_L
../src/ff-pic24-30-33.s:3688   .text:00001020 DOTID
../src/ff-pic24-30-33.s:4639   .text:0000153a CFETCHPP
../src/ff-pic24-30-33.s:3698   .text:00001032 DOTID3
../src/ff-pic24-30-33.s:3694   .text:0000102c DOTID1
../src/ff-pic24-30-33.s:3712   .text:00001042 TO_PR
../src/ff-pic24-30-33.s:3708   .text:0000103e TO_PR_L
../src/ff-pic24-30-33.s:3829   .text:000010e8 WITHIN
../src/ff-pic24-30-33.s:3721   .text:00001054 TO_PR1
../src/ff-pic24-30-33.s:3725   .text:00001058 TYPE_L
../src/ff-pic24-30-33.s:3735   .text:00001066 TYPE2
../src/ff-pic24-30-33.s:3732   .text:00001062 TYPE1
../src/ff-pic24-30-33.s:3743   .text:00001072 XSQUOTE_L
../src/ff-pic24-30-33.s:3765   .text:00001092 SQUOTE_L
../src/ff-pic24-30-33.s:3770   .text:00001096 SQUOTE
../src/ff-pic24-30-33.s:3784   .text:000010a8 CQUOTE
../src/ff-pic24-30-33.s:3779   .text:000010a4 CQUOTE_L
../src/ff-pic24-30-33.s:4487   .text:0000144e PARSE
../src/ff-pic24-30-33.s:4626   .text:00001528 PLACE
../src/ff-pic24-30-33.s:3797   .text:000010be DOTQUOTE_L
../src/ff-pic24-30-33.s:3802   .text:000010c2 DOTQUOTE
../src/ff-pic24-30-33.s:3810   .text:000010cc PLUSSTORE_L
../src/ff-pic24-30-33.s:3814   .text:000010d0 PLUSSTORE
../src/ff-pic24-30-33.s:3825   .text:000010e0 WITHIN_L
../src/ff-pic24-30-33.s:3839   .text:000010f8 NOTEQUAL_L
../src/ff-pic24-30-33.s:3851   .text:00001106 EQUAL_L
../src/ff-pic24-30-33.s:3863   .text:00001112 DEQUAL_L
../src/ff-pic24-30-33.s:3867   .text:00001116 DEQUAL
../src/ff-pic24-30-33.s:3873   .text:0000111e LESS_L
../src/ff-pic24-30-33.s:3877   .text:00001120 LESS
../src/ff-pic24-30-33.s:3885   .text:0000112a DLESS_L
../src/ff-pic24-30-33.s:3889   .text:0000112e DLESS
../src/ff-pic24-30-33.s:3895   .text:00001136 GREATER_L
../src/ff-pic24-30-33.s:3899   .text:00001138 GREATER
../src/ff-pic24-30-33.s:3907   .text:00001142 DGREATER_L
../src/ff-pic24-30-33.s:3911   .text:00001146 DGREATER
../src/ff-pic24-30-33.s:3917   .text:0000114e ULESS_L
../src/ff-pic24-30-33.s:3929   .text:0000115c UGREATER_L
../src/ff-pic24-30-33.s:3942   .text:0000116a STAR_L
../src/ff-pic24-30-33.s:3946   .text:0000116c STAR
../src/ff-pic24-30-33.s:3953   .text:00001174 USLASH_L
../src/ff-pic24-30-33.s:3964   .text:00001180 USSMOD_L
../src/ff-pic24-30-33.s:3968   .text:00001188 USSMOD
../src/ff-pic24-30-33.s:3976   .text:00001194 SSMOD_L
../src/ff-pic24-30-33.s:3980   .text:0000119a SSMOD
../src/ff-pic24-30-33.s:3988   .text:000011a6 SS_L
../src/ff-pic24-30-33.s:3992   .text:000011aa SS
../src/ff-pic24-30-33.s:4002   .text:000011b8 SLASH_L
../src/ff-pic24-30-33.s:4006   .text:000011ba SLASH
../src/ff-pic24-30-33.s:4016   .text:000011c8 L_UDSTAR
../src/ff-pic24-30-33.s:4020   .text:000011cc UDSTAR
../src/ff-pic24-30-33.s:4033   .text:000011e2 L_UDSLASHMOD
../src/ff-pic24-30-33.s:4037   .text:000011ea UDSLASHMOD
../src/ff-pic24-30-33.s:4052   .text:00001202 NIP_L
MPLAB ASM30 Listing:  ../src/ff-pic24-30-33.s 			page 194


../src/ff-pic24-30-33.s:4056   .text:00001206 NIP
../src/ff-pic24-30-33.s:4062   .text:0000120c TUCK_L
../src/ff-pic24-30-33.s:4066   .text:00001212 TUCK
../src/ff-pic24-30-33.s:4073   .text:0000121a QNEGATE_L
../src/ff-pic24-30-33.s:4082   .text:0000122a QNEGATE1
../src/ff-pic24-30-33.s:4088   .text:0000122e MAX_L
../src/ff-pic24-30-33.s:4092   .text:00001232 MAX
../src/ff-pic24-30-33.s:4098   .text:0000123c max1
../src/ff-pic24-30-33.s:4104   .text:00001242 MIN_L
../src/ff-pic24-30-33.s:4108   .text:00001246 MIN
../src/ff-pic24-30-33.s:4114   .text:00001250 min1
../src/ff-pic24-30-33.s:4119   .text:00001256 UPTR_L
../src/ff-pic24-30-33.s:4123   .text:0000125a UPTR
../src/ff-pic24-30-33.s:4130   .text:00001260 HOLD_L
../src/ff-pic24-30-33.s:4134   .text:00001266 HOLD
../src/ff-pic24-30-33.s:4415   .text:000013f2 HP
../src/ff-pic24-30-33.s:4145   .text:00001276 LESSNUM_L
../src/ff-pic24-30-33.s:4149   .text:0000127a LESSNUM
../src/ff-pic24-30-33.s:4425   .text:000013fc PAD
../src/ff-pic24-30-33.s:4157   .text:00001284 TODIGIT_L
../src/ff-pic24-30-33.s:4161   .text:0000128c TODIGIT
../src/ff-pic24-30-33.s:4174   .text:000012a6 NUM_L
../src/ff-pic24-30-33.s:4178   .text:000012a8 NUM
../src/ff-pic24-30-33.s:4436   .text:0000140c BASE
../src/ff-pic24-30-33.s:4189   .text:000012b8 NUMS_L
../src/ff-pic24-30-33.s:4193   .text:000012bc NUMS
../src/ff-pic24-30-33.s:4204   .text:000012ca NUMGREATER_L
../src/ff-pic24-30-33.s:4208   .text:000012ce NUMGREATER
../src/ff-pic24-30-33.s:4219   .text:000012de SIGN_L
../src/ff-pic24-30-33.s:4223   .text:000012e4 SIGN
../src/ff-pic24-30-33.s:4229   .text:000012f0 SIGN1
../src/ff-pic24-30-33.s:4235   .text:000012f4 UDOT_L
../src/ff-pic24-30-33.s:4239   .text:000012f8 UDOT
../src/ff-pic24-30-33.s:4250   .text:00001308 UDOTR_L
../src/ff-pic24-30-33.s:4254   .text:0000130c UDOTR
../src/ff-pic24-30-33.s:4262   .text:00001318 UDOTR2
../src/ff-pic24-30-33.s:4260   .text:00001316 UDOTR1
../src/ff-pic24-30-33.s:4273   .text:0000132a DOT_L
../src/ff-pic24-30-33.s:4277   .text:0000132c DOT
../src/ff-pic24-30-33.s:4291   .text:00001344 UDDOT_L
../src/ff-pic24-30-33.s:4295   .text:00001348 UDDOT
../src/ff-pic24-30-33.s:4305   .text:00001356 DDOT_L
../src/ff-pic24-30-33.s:4309   .text:0000135a DDOT
../src/ff-pic24-30-33.s:4321   .text:00001370 MEMHI_L
../src/ff-pic24-30-33.s:4325   .text:00001374 MEMHI
../src/ff-pic24-30-33.s:4330   .text:00001384 FLASHHI
../src/ff-pic24-30-33.s:4338   .text:0000138c DECIMAL_L
../src/ff-pic24-30-33.s:4342   .text:00001394 DECIMAL
../src/ff-pic24-30-33.s:4349   .text:000013a0 HEX_L
../src/ff-pic24-30-33.s:4353   .text:000013a4 HEX
../src/ff-pic24-30-33.s:4360   .text:000013b0 BIN_L
../src/ff-pic24-30-33.s:4364   .text:000013b4 BIN
../src/ff-pic24-30-33.s:4371   .text:000013be ULINK_L
../src/ff-pic24-30-33.s:4375   .text:000013c4 ULINK
../src/ff-pic24-30-33.s:4381   .text:000013ca RSAVE_L
../src/ff-pic24-30-33.s:4385   .text:000013d0 RSAVE
../src/ff-pic24-30-33.s:4391   .text:000013d6 SSAVE_L
MPLAB ASM30 Listing:  ../src/ff-pic24-30-33.s 			page 195


../src/ff-pic24-30-33.s:4395   .text:000013dc SSAVE
../src/ff-pic24-30-33.s:4401   .text:000013e2 TASK_L
../src/ff-pic24-30-33.s:4405   .text:000013e8 TASK
../src/ff-pic24-30-33.s:4411   .text:000013ee HP_L
../src/ff-pic24-30-33.s:4421   .text:000013f8 PAD_L
../src/ff-pic24-30-33.s:4961   .text:0000173e TIB
../src/ff-pic24-30-33.s:4948   .text:0000172a TIBSIZE
../src/ff-pic24-30-33.s:4432   .text:00001406 BASE_L
../src/ff-pic24-30-33.s:4443   .text:00001412 SOURCE_L
../src/ff-pic24-30-33.s:4447   .text:0000141a SOURCE
../src/ff-pic24-30-33.s:4992   .text:00001762 TICKSOURCE
../src/ff-pic24-30-33.s:4454   .text:00001422 SLASHSTRING_L
../src/ff-pic24-30-33.s:4458   .text:0000142a SLASHSTRING
../src/ff-pic24-30-33.s:4469   .text:0000143a BSLASH_L
../src/ff-pic24-30-33.s:4473   .text:0000143c BSLASH
../src/ff-pic24-30-33.s:4982   .text:00001754 TOIN
../src/ff-pic24-30-33.s:4483   .text:00001448 PARSE_L
../src/ff-pic24-30-33.s:4504   .text:0000146e PARSE1
../src/ff-pic24-30-33.s:4517   .text:00001482 WORD_L
../src/ff-pic24-30-33.s:4521   .text:00001488 WORD
../src/ff-pic24-30-33.s:4529   .text:00001496 ERASE_L
../src/ff-pic24-30-33.s:4533   .text:0000149c ERASE_
../src/ff-pic24-30-33.s:4553   .text:000014be FILL
../src/ff-pic24-30-33.s:4538   .text:000014a6 BLANKS_L
../src/ff-pic24-30-33.s:4542   .text:000014ae BLANKS
../src/ff-pic24-30-33.s:4549   .text:000014b8 FILL_L
../src/ff-pic24-30-33.s:4564   .text:000014d0 FILL2
../src/ff-pic24-30-33.s:4560   .text:000014ca FILL1
../src/ff-pic24-30-33.s:4575   .text:000014de CMOVE_L
../src/ff-pic24-30-33.s:4579   .text:000014e4 CMOVE
../src/ff-pic24-30-33.s:4588   .text:000014f2 CMOVE2
../src/ff-pic24-30-33.s:4584   .text:000014ec CMOVE1
../src/ff-pic24-30-33.s:4599   .text:00001500 WMOVE_L
../src/ff-pic24-30-33.s:4612   .text:00001514 WMOVE2
../src/ff-pic24-30-33.s:4608   .text:0000150e WMOVE1
../src/ff-pic24-30-33.s:4622   .text:00001522 PLACE_L
../src/ff-pic24-30-33.s:4635   .text:00001536 CFETCHPP_L
../src/ff-pic24-30-33.s:4649   .text:00001548 FETCHPP_L
../src/ff-pic24-30-33.s:4663   .text:0000155a NFATOCFA_L
../src/ff-pic24-30-33.s:4667   .text:0000155e NFATOCFA
../src/ff-pic24-30-33.s:4678   .text:00001574 CFATONFA_L
../src/ff-pic24-30-33.s:4682   .text:00001578 CFATONFA
../src/ff-pic24-30-33.s:4684   .text:0000157a CFATONFA1
../src/ff-pic24-30-33.s:4698   .text:0000158e FINDI_L
../src/ff-pic24-30-33.s:4702   .text:00001592 findi
../src/ff-pic24-30-33.s:4703   .text:00001592 findi1
../src/ff-pic24-30-33.s:4704   .text:00001592 FIND_1
../src/ff-pic24-30-33.s:4716   .text:000015a8 findi2
../src/ff-pic24-30-33.s:4729   .text:000015c0 findi3
../src/ff-pic24-30-33.s:4739   .text:000015ce IMMEDQ
../src/ff-pic24-30-33.s:4735   .text:000015c6 IMMEDQ_L
../src/ff-pic24-30-33.s:4748   .text:000015da FIND_L
../src/ff-pic24-30-33.s:4752   .text:000015e0 FIND
../src/ff-pic24-30-33.s:6367   .text:00002062 kernellink
../src/ff-pic24-30-33.s:4761   .text:000015f2 FIND1
../src/ff-pic24-30-33.s:6150   .text:00001dd8 LATEST
../src/ff-pic24-30-33.s:4766   .text:000015f6 DIGITQ_L
MPLAB ASM30 Listing:  ../src/ff-pic24-30-33.s 			page 196


../src/ff-pic24-30-33.s:4770   .text:000015fe DIGITQ
../src/ff-pic24-30-33.s:4779   .text:00001610 DIGITQ1
../src/ff-pic24-30-33.s:4793   .text:0000162a SIGNQ_L
../src/ff-pic24-30-33.s:4797   .text:00001630 SIGNQ
../src/ff-pic24-30-33.s:4814   .text:00001652 QSIGN1
../src/ff-pic24-30-33.s:4819   .text:00001656 TONUMBER_L
../src/ff-pic24-30-33.s:4823   .text:0000165e TONUMBER
../src/ff-pic24-30-33.s:4824   .text:0000165e TONUM1
../src/ff-pic24-30-33.s:4849   .text:0000168c TONUM3
../src/ff-pic24-30-33.s:4837   .text:00001676 TONUM2
../src/ff-pic24-30-33.s:4852   .text:0000168e BASEQV
../src/ff-pic24-30-33.s:4860   .text:00001696 NUMBERQ_L
../src/ff-pic24-30-33.s:4864   .text:0000169e NUMBERQ
../src/ff-pic24-30-33.s:4891   .text:000016d8 BASEQ1
../src/ff-pic24-30-33.s:4893   .text:000016da BASEQ2
../src/ff-pic24-30-33.s:4913   .text:000016f6 QNUMD
../src/ff-pic24-30-33.s:4905   .text:000016ec QNUM_ERR
../src/ff-pic24-30-33.s:4908   .text:000016f0 QNUM_ERR1
../src/ff-pic24-30-33.s:4938   .text:00001722 QNUM3
../src/ff-pic24-30-33.s:4920   .text:00001700 QNUMD1
../src/ff-pic24-30-33.s:4933   .text:0000171c QNUM1
../src/ff-pic24-30-33.s:4944   .text:00001726 TIBSIZE_L
../src/ff-pic24-30-33.s:4957   .text:0000173a TIB_L
../src/ff-pic24-30-33.s:4971   .text:0000174a TIU
../src/ff-pic24-30-33.s:4967   .text:00001746 TIU_L
../src/ff-pic24-30-33.s:4978   .text:00001750 TOIN_L
../src/ff-pic24-30-33.s:4988   .text:0000175a TICKSOURCE_L
../src/ff-pic24-30-33.s:5000   .text:00001768 INQ_L
../src/ff-pic24-30-33.s:5004   .text:0000176c INQ
../src/ff-pic24-30-33.s:5024   .text:00001778 INTERPRET_L
../src/ff-pic24-30-33.s:5028   .text:00001782 INTERPRET
../src/ff-pic24-30-33.s:5034   .text:0000178c INTER1
../src/ff-pic24-30-33.s:5146   .text:0000185e INTER6
../src/ff-pic24-30-33.s:5117   .text:00001830 INUMBER
../src/ff-pic24-30-33.s:5084   .text:000017f8 INTER2
../src/ff-pic24-30-33.s:5064   .text:000017ce INTER11
../src/ff-pic24-30-33.s:5446   .text:000019e8 QABORT
../src/ff-pic24-30-33.s:5094   .text:0000180c INTER3
../src/ff-pic24-30-33.s:5113   .text:0000182c INTERCALL
../src/ff-pic24-30-33.s:5102   .text:0000181c INTERDUPCLR
../src/ff-pic24-30-33.s:5104   .text:0000181e INTERXT
../src/ff-pic24-30-33.s:5806   .text:00001bf4 INLINE_0
../src/ff-pic24-30-33.s:5139   .text:00001854 IUNKNOWN
../src/ff-pic24-30-33.s:5136   .text:00001850 INUMBER1
../src/ff-pic24-30-33.s:5133   .text:0000184c ISINGLE
../src/ff-pic24-30-33.s:5130   .text:00001848 IDOUBLE
../src/ff-pic24-30-33.s:5433   .text:000019d8 QABORTQ
../src/ff-pic24-30-33.s:5151   .text:00001864 SHB_L
../src/ff-pic24-30-33.s:5155   .text:00001868 SHB
../src/ff-pic24-30-33.s:5166   .text:0000187c IMMEDIATE_L
../src/ff-pic24-30-33.s:5170   .text:00001886 IMMEDIATE
../src/ff-pic24-30-33.s:5175   .text:00001890 INLINED_L
../src/ff-pic24-30-33.s:5179   .text:00001898 INLINED
../src/ff-pic24-30-33.s:5187   .text:000018a2 DOTSTATUS_L
../src/ff-pic24-30-33.s:6380   .text:0000206c DOTBASE
../src/ff-pic24-30-33.s:6419   .text:00002096 MEMQ
../src/ff-pic24-30-33.s:6256   .text:00001e64 DOTS
MPLAB ASM30 Listing:  ../src/ff-pic24-30-33.s 			page 197


../src/ff-pic24-30-33.s:6457   .text:00002400 CONFIG_DATA
../src/ff-pic24-30-33.s:5209   .text:000018ca FRAM_A
../src/ff-pic24-30-33.s:5212   .text:000018ce FLATEST_A
../src/ff-pic24-30-33.s:5215   .text:000018d2 FFLASH_A
../src/ff-pic24-30-33.s:5247   .text:000018f4 DP_TO_RAM_L
../src/ff-pic24-30-33.s:5263   .text:00001904 DP_TO_RAM1
../src/ff-pic24-30-33.s:5276   .text:0000191a PLUS0x400
../src/ff-pic24-30-33.s:5271   .text:00001912 DP_TO_RAM2
../src/ff-pic24-30-33.s:5283   .text:00001922 DP_TO_EEPROM_L
../src/ff-pic24-30-33.s:5327   .text:00001936 DP_TO_EEPROM_0
../src/ff-pic24-30-33.s:5341   .text:00001948 DP_TO_EEPROM_1
../src/ff-pic24-30-33.s:5356   .text:0000195c check_sp
../src/ff-pic24-30-33.s:6160   .text:00001de2 S0
../src/ff-pic24-30-33.s:5370   .text:00001972 QUIT_L
../src/ff-pic24-30-33.s:5374   .text:00001978 QUIT
../src/ff-pic24-30-33.s:5663   .text:00001b2a LEFTBRACKET
../src/ff-pic24-30-33.s:5378   .text:0000197e QUIT0
../src/ff-pic24-30-33.s:5382   .text:00001982 QUIT1
../src/ff-pic24-30-33.s:5411   .text:000019b8 PROMPT
../src/ff-pic24-30-33.s:5407   .text:000019b0 PROMPT_L
../src/ff-pic24-30-33.s:5417   .text:000019be ABORT_L
../src/ff-pic24-30-33.s:5429   .text:000019d0 QABORTQ_L
../src/ff-pic24-30-33.s:5442   .text:000019e0 QABORT_L
../src/ff-pic24-30-33.s:5454   .text:000019f4 QABO1
../src/ff-pic24-30-33.s:5450   .text:000019ee QABORT1
../src/ff-pic24-30-33.s:5460   .text:000019fa ABORTQUOTE_L
../src/ff-pic24-30-33.s:5464   .text:00001a02 ABORTQUOTE
../src/ff-pic24-30-33.s:5472   .text:00001a0c TICK_L
../src/ff-pic24-30-33.s:5484   .text:00001a1a CHAR_L
../src/ff-pic24-30-33.s:5488   .text:00001a20 CHAR
../src/ff-pic24-30-33.s:5496   .text:00001a2c PAREN_L
../src/ff-pic24-30-33.s:5500   .text:00001a2e PAREN
../src/ff-pic24-30-33.s:5510   .text:00001a3a IHERE_L
../src/ff-pic24-30-33.s:5523   .text:00001a48 BRACCHAR_L
../src/ff-pic24-30-33.s:5527   .text:00001a50 BRACCHAR
../src/ff-pic24-30-33.s:5544   .text:00001a58 CREATE_L
../src/ff-pic24-30-33.s:5592   .text:00001ac0 CREATE2
../src/ff-pic24-30-33.s:5598   .text:00001ac6 POSTPONE_L
../src/ff-pic24-30-33.s:5602   .text:00001ad0 POSTPONE
../src/ff-pic24-30-33.s:5614   .text:00001ae8 POSTPONE1
../src/ff-pic24-30-33.s:5621   .text:00001aec XDOES_L
../src/ff-pic24-30-33.s:5645   .text:00001b16 DOES_L
../src/ff-pic24-30-33.s:5649   .text:00001b1c DOES
../src/ff-pic24-30-33.s:5659   .text:00001b28 LEFTBRACKET_L
../src/ff-pic24-30-33.s:5669   .text:00001b30 RIGHTBRACKET_L
../src/ff-pic24-30-33.s:5673   .text:00001b32 RIGHTBRACKET
../src/ff-pic24-30-33.s:5679   .text:00001b38 COLON_L
../src/ff-pic24-30-33.s:5691   .text:00001b48 NONAME_L
../src/ff-pic24-30-33.s:5695   .text:00001b50 NONAME
../src/ff-pic24-30-33.s:5702   .text:00001b58 SEMICOLON_L
../src/ff-pic24-30-33.s:5735   .text:00001b94 SEMICOLON2
../src/ff-pic24-30-33.s:5733   .text:00001b92 SEMICOLON1
../src/ff-pic24-30-33.s:5738   .text:00001b98 SEMICOLON3
../src/ff-pic24-30-33.s:5744   .text:00001b9e SEMICOLONI_L
../src/ff-pic24-30-33.s:5748   .text:00001ba2 SEMICOLONI
../src/ff-pic24-30-33.s:5924   .text:00001c9e AGAINC
../src/ff-pic24-30-33.s:5759   .text:00001bae BRACTICK_L
MPLAB ASM30 Listing:  ../src/ff-pic24-30-33.s 			page 198


../src/ff-pic24-30-33.s:5763   .text:00001bb2 BRACTICK
../src/ff-pic24-30-33.s:5768   .text:00001bb8 COMMAZEROSENSE_L
../src/ff-pic24-30-33.s:5772   .text:00001bbe COMMAZEROSENSE
../src/ff-pic24-30-33.s:5777   .text:00001bc8 COMMAZEROSENSE1
../src/ff-pic24-30-33.s:5780   .text:00001bce COMMAZEROSENSE2
../src/ff-pic24-30-33.s:5786   .text:00001bd6 DUPZEROSENSE
../src/ff-pic24-30-33.s:5791   .text:00001bdc INLINE_L
../src/ff-pic24-30-33.s:5802   .text:00001bf0 INC_L
../src/ff-pic24-30-33.s:5817   .text:00001c0a INLINE1
../src/ff-pic24-30-33.s:5823   .text:00001c10 UNC_L
../src/ff-pic24-30-33.s:5827   .text:00001c14 UNC
../src/ff-pic24-30-33.s:5833   .text:00001c1a ZC_L
../src/ff-pic24-30-33.s:5837   .text:00001c1e ZC
../src/ff-pic24-30-33.s:5843   .text:00001c24 NC_L
../src/ff-pic24-30-33.s:5847   .text:00001c28 NC
../src/ff-pic24-30-33.s:5853   .text:00001c2e NOTC_L
../src/ff-pic24-30-33.s:5857   .text:00001c34 NOTC
../src/ff-pic24-30-33.s:5863   .text:00001c3e IFC_L
../src/ff-pic24-30-33.s:5867   .text:00001c42 IFC
../src/ff-pic24-30-33.s:5876   .text:00001c50 THENC_L
../src/ff-pic24-30-33.s:5880   .text:00001c56 THENC
../src/ff-pic24-30-33.s:5896   .text:00001c72 ELSEC_L
../src/ff-pic24-30-33.s:5900   .text:00001c78 ELSEC
../src/ff-pic24-30-33.s:5910   .text:00001c88 BEGINC_L
../src/ff-pic24-30-33.s:5914   .text:00001c90 BEGINC
../src/ff-pic24-30-33.s:5920   .text:00001c96 AGAINC_L
../src/ff-pic24-30-33.s:5934   .text:00001cae UNTILC_L
../src/ff-pic24-30-33.s:5938   .text:00001cb6 UNTILC
../src/ff-pic24-30-33.s:5958   .text:00001cd2 IF_L
../src/ff-pic24-30-33.s:5962   .text:00001cd6 IF_
../src/ff-pic24-30-33.s:5974   .text:00001cea THEN_L
../src/ff-pic24-30-33.s:5978   .text:00001cf0 THEN_
../src/ff-pic24-30-33.s:5985   .text:00001cf6 ELSE_L
../src/ff-pic24-30-33.s:5989   .text:00001cfc ELSE_
../src/ff-pic24-30-33.s:5994   .text:00001d02 BEGIN_L
../src/ff-pic24-30-33.s:5998   .text:00001d08 BEGIN
../src/ff-pic24-30-33.s:6003   .text:00001d0e UNTIL_L
../src/ff-pic24-30-33.s:6007   .text:00001d14 UNTIL
../src/ff-pic24-30-33.s:6020   .text:00001d28 AGAIN_L
../src/ff-pic24-30-33.s:6024   .text:00001d2e AGAIN
../src/ff-pic24-30-33.s:6031   .text:00001d34 WHILE_L
../src/ff-pic24-30-33.s:6035   .text:00001d3a WHILE_
../src/ff-pic24-30-33.s:6041   .text:00001d42 REPEAT_L
../src/ff-pic24-30-33.s:6045   .text:00001d4a REPEAT_
../src/ff-pic24-30-33.s:6051   .text:00001d52 FOR_L
../src/ff-pic24-30-33.s:6055   .text:00001d56 FOR
../src/ff-pic24-30-33.s:6068   .text:00001d6c NEXT_L
../src/ff-pic24-30-33.s:6072   .text:00001d72 NEXT
../src/ff-pic24-30-33.s:6083   .text:00001d86 XNEXT
../src/ff-pic24-30-33.s:6104   .text:00001da0 RDROP
../src/ff-pic24-30-33.s:6089   .text:00001d8c LEAVE_L
../src/ff-pic24-30-33.s:6093   .text:00001d92 LEAVE
../src/ff-pic24-30-33.s:6100   .text:00001d9a RDROP_L
../src/ff-pic24-30-33.s:6112   .text:00001da6 BL_L
../src/ff-pic24-30-33.s:6123   .text:00001db2 STATE_L
../src/ff-pic24-30-33.s:6135   .text:00001dc0 RHERE_L
../src/ff-pic24-30-33.s:6146   .text:00001dd0 LATEST_L
MPLAB ASM30 Listing:  ../src/ff-pic24-30-33.s 			page 199


../src/ff-pic24-30-33.s:6156   .text:00001dde S0_L
../src/ff-pic24-30-33.s:6166   .text:00001de8 R0_L
../src/ff-pic24-30-33.s:6176   .text:00001df2 TICKS_L
../src/ff-pic24-30-33.s:6180   .text:00001df8 TICKS
../src/ff-pic24-30-33.s:6193   .text:00001e00 MS_L
../src/ff-pic24-30-33.s:6200   .text:00001e08 MS1
../src/ff-pic24-30-33.s:6211   .text:00001e18 WORDS_L
../src/ff-pic24-30-33.s:6215   .text:00001e1e WORDS
../src/ff-pic24-30-33.s:6224   .text:00001e30 WDS1
../src/ff-pic24-30-33.s:6236   .text:00001e4c WDS2
../src/ff-pic24-30-33.s:6238   .text:00001e4e WDS3
../src/ff-pic24-30-33.s:6252   .text:00001e60 DOTS_L
../src/ff-pic24-30-33.s:6261   .text:00001e6c DOTS1
../src/ff-pic24-30-33.s:6269   .text:00001e7a DOTS2
../src/ff-pic24-30-33.s:6285   .text:00001e8e ALLOT_L
../src/ff-pic24-30-33.s:6295   .text:00001e9c DUMP_L
../src/ff-pic24-30-33.s:6299   .text:00001ea2 DUMP
../src/ff-pic24-30-33.s:6332   .text:00001ee6 DUMP7
../src/ff-pic24-30-33.s:6304   .text:00001eac DUMP1
../src/ff-pic24-30-33.s:6313   .text:00001ec2 DUMP2
../src/ff-pic24-30-33.s:6325   .text:00001eda DUMP4
../src/ff-pic24-30-33.s:6342   .text:00001ef2 CPU_CLK_L
../src/ff-pic24-30-33.s:6346   .text:00001ef6 FCY_
    ../src/Cfloats.s:2      .text:00001efe CFADD_L
    ../src/Cfloats.s:6      .text:00001f02 CFADD_
    ../src/Cfloats.s:20     .text:00001f16 CFSUB_L
    ../src/Cfloats.s:24     .text:00001f1a CFSUB_
    ../src/Cfloats.s:38     .text:00001f2e CFMUL_L
    ../src/Cfloats.s:42     .text:00001f32 CFMUL_
    ../src/Cfloats.s:56     .text:00001f46 CFDIV_L
    ../src/Cfloats.s:60     .text:00001f4a CFDIV_
    ../src/Cfloats.s:74     .text:00001f5e CFPOW_L
    ../src/Cfloats.s:78     .text:00001f64 CFPOW_
    ../src/Cfloats.s:92     .text:00001f78 CFSIN_L
    ../src/Cfloats.s:96     .text:00001f7e CFSIN_
    ../src/Cfloats.s:108    .text:00001f8e CFCOS_L
    ../src/Cfloats.s:112    .text:00001f94 CFCOS_
    ../src/Cfloats.s:124    .text:00001fa4 CFTAN_L
    ../src/Cfloats.s:128    .text:00001faa CFTAN_
    ../src/Cfloats.s:140    .text:00001fba CFSQRT_L
    ../src/Cfloats.s:144    .text:00001fc0 CFSQRT_
    ../src/Cfloats.s:156    .text:00001fd0 CFEXP_L
    ../src/Cfloats.s:160    .text:00001fd6 CFEXP_
    ../src/Cfloats.s:172    .text:00001fe6 CFLOG_L
    ../src/Cfloats.s:176    .text:00001fec CFLOG_
    ../src/Cfloats.s:188    .text:00001ffc CFLOG10_L
    ../src/Cfloats.s:192    .text:00002004 CFLoG10_
    ../src/Cfloats.s:204    .text:00002014 CFATAN_L
    ../src/Cfloats.s:208    .text:0000201a CFATAN_
    ../src/Cfloats.s:220    .text:0000202a CFASIN_L
    ../src/Cfloats.s:224    .text:00002030 CFASIN_
    ../src/Cfloats.s:236    .text:00002040 CFACOS_L
    ../src/Cfloats.s:240    .text:00002046 CFACOS_
../src/ff-pic24-30-33.s:6357   .text:00002056 FALSE_L
../src/ff-pic24-30-33.s:6366   .text:00002062 TRUE_L
../src/ff-pic24-30-33.s:6376   .text:0000206c DOTBASE_L
../src/ff-pic24-30-33.s:6388   .text:0000207a DOTBASE1
MPLAB ASM30 Listing:  ../src/ff-pic24-30-33.s 			page 200


../src/ff-pic24-30-33.s:6400   .text:0000208c DOTBASEEND
../src/ff-pic24-30-33.s:6393   .text:00002082 DOTBASE2
../src/ff-pic24-30-33.s:6398   .text:0000208a DOTBASE3
../src/ff-pic24-30-33.s:6404   .text:00002090 MEMQADDR_N
../src/ff-pic24-30-33.s:6415   .text:00002096 MEMQ_L
../src/ff-pic24-30-33.s:6429   .text:000020ac MARKER_L
../src/ff-pic24-30-33.s:6434   .text:000020b4 MARKER
../src/ff-pic24-30-33.s:6449   .text:000020dc MARKER_DOES
../src/ff-pic24-30-33.s:6459   .text:00002400 KERNEL_END1
                      .debug_line:00000000 .L0
                      .debug_line:00000042 .L0
../src/ff-pic24-30-33.s:6464   .debug_line:00000c45 .L0
../src/ff-pic24-30-33.s:253    .text:00000024 .L0
../src/ff-pic24-30-33.s:254    .text:00000026 .L0
../src/ff-pic24-30-33.s:253    .text:00000024 .L0
../src/ff-pic24-30-33.s:255    .text:00000028 .L0
../src/ff-pic24-30-33.s:254    .text:00000026 .L0
../src/ff-pic24-30-33.s:259    .text:0000002a .L0
../src/ff-pic24-30-33.s:255    .text:00000028 .L0
../src/ff-pic24-30-33.s:260    .text:0000002c .L0
../src/ff-pic24-30-33.s:259    .text:0000002a .L0
../src/ff-pic24-30-33.s:261    .text:0000002e .L0
../src/ff-pic24-30-33.s:260    .text:0000002c .L0
../src/ff-pic24-30-33.s:265    .text:00000030 .L0
../src/ff-pic24-30-33.s:261    .text:0000002e .L0
../src/ff-pic24-30-33.s:266    .text:00000032 .L0
../src/ff-pic24-30-33.s:265    .text:00000030 .L0
../src/ff-pic24-30-33.s:267    .text:00000034 .L0
../src/ff-pic24-30-33.s:266    .text:00000032 .L0
../src/ff-pic24-30-33.s:269    .text:00000036 .L0
../src/ff-pic24-30-33.s:267    .text:00000034 .L0
../src/ff-pic24-30-33.s:270    .text:00000038 .L0
../src/ff-pic24-30-33.s:269    .text:00000036 .L0
../src/ff-pic24-30-33.s:271    .text:0000003a .L0
../src/ff-pic24-30-33.s:270    .text:00000038 .L0
../src/ff-pic24-30-33.s:273    .text:0000003c .L0
../src/ff-pic24-30-33.s:271    .text:0000003a .L0
../src/ff-pic24-30-33.s:274    .text:0000003e .L0
../src/ff-pic24-30-33.s:273    .text:0000003c .L0
../src/ff-pic24-30-33.s:276    .text:00000040 .L0
../src/ff-pic24-30-33.s:274    .text:0000003e .L0
../src/ff-pic24-30-33.s:277    .text:00000042 .L0
../src/ff-pic24-30-33.s:276    .text:00000040 .L0
../src/ff-pic24-30-33.s:278    .text:00000044 .L0
../src/ff-pic24-30-33.s:277    .text:00000042 .L0
../src/ff-pic24-30-33.s:279    .text:00000046 .L0
../src/ff-pic24-30-33.s:278    .text:00000044 .L0
../src/ff-pic24-30-33.s:280    .text:00000048 .L0
../src/ff-pic24-30-33.s:279    .text:00000046 .L0
../src/ff-pic24-30-33.s:281    .text:0000004a .L0
../src/ff-pic24-30-33.s:280    .text:00000048 .L0
../src/ff-pic24-30-33.s:282    .text:0000004c .L0
../src/ff-pic24-30-33.s:281    .text:0000004a .L0
../src/ff-pic24-30-33.s:283    .text:0000004e .L0
../src/ff-pic24-30-33.s:282    .text:0000004c .L0
../src/ff-pic24-30-33.s:285    .text:00000050 .L0
../src/ff-pic24-30-33.s:283    .text:0000004e .L0
MPLAB ASM30 Listing:  ../src/ff-pic24-30-33.s 			page 201


../src/ff-pic24-30-33.s:288    .text:00000052 .L0
../src/ff-pic24-30-33.s:285    .text:00000050 .L0
../src/ff-pic24-30-33.s:291    .text:00000054 .L0
../src/ff-pic24-30-33.s:288    .text:00000052 .L0
../src/ff-pic24-30-33.s:295    .text:00000056 .L0
../src/ff-pic24-30-33.s:291    .text:00000054 .L0
../src/ff-pic24-30-33.s:297    .text:00000058 .L0
../src/ff-pic24-30-33.s:295    .text:00000056 .L0
../src/ff-pic24-30-33.s:298    .text:0000005a .L0
../src/ff-pic24-30-33.s:297    .text:00000058 .L0
../src/ff-pic24-30-33.s:299    .text:0000005c .L0
../src/ff-pic24-30-33.s:298    .text:0000005a .L0
../src/ff-pic24-30-33.s:300    .text:0000005e .L0
../src/ff-pic24-30-33.s:299    .text:0000005c .L0
../src/ff-pic24-30-33.s:301    .text:00000060 .L0
../src/ff-pic24-30-33.s:300    .text:0000005e .L0
../src/ff-pic24-30-33.s:302    .text:00000062 .L0
../src/ff-pic24-30-33.s:301    .text:00000060 .L0
../src/ff-pic24-30-33.s:303    .text:00000064 .L0
../src/ff-pic24-30-33.s:302    .text:00000062 .L0
../src/ff-pic24-30-33.s:305    .text:00000066 .L0
../src/ff-pic24-30-33.s:303    .text:00000064 .L0
../src/ff-pic24-30-33.s:306    .text:00000068 .L0
../src/ff-pic24-30-33.s:305    .text:00000066 .L0
../src/ff-pic24-30-33.s:310    .text:0000006a .L0
../src/ff-pic24-30-33.s:306    .text:00000068 .L0
../src/ff-pic24-30-33.s:311    .text:0000006c .L0
../src/ff-pic24-30-33.s:310    .text:0000006a .L0
../src/ff-pic24-30-33.s:312    .text:0000006e .L0
../src/ff-pic24-30-33.s:311    .text:0000006c .L0
../src/ff-pic24-30-33.s:313    .text:00000070 .L0
../src/ff-pic24-30-33.s:312    .text:0000006e .L0
../src/ff-pic24-30-33.s:316    .text:00000072 .L0
../src/ff-pic24-30-33.s:313    .text:00000070 .L0
../src/ff-pic24-30-33.s:317    .text:00000074 .L0
../src/ff-pic24-30-33.s:316    .text:00000072 .L0
../src/ff-pic24-30-33.s:318    .text:00000078 .L0
../src/ff-pic24-30-33.s:317    .text:00000074 .L0
../src/ff-pic24-30-33.s:320    .text:0000007a .L0
../src/ff-pic24-30-33.s:318    .text:00000078 .L0
../src/ff-pic24-30-33.s:321    .text:0000007c .L0
../src/ff-pic24-30-33.s:320    .text:0000007a .L0
../src/ff-pic24-30-33.s:322    .text:0000007e .L0
../src/ff-pic24-30-33.s:321    .text:0000007c .L0
../src/ff-pic24-30-33.s:323    .text:00000080 .L0
../src/ff-pic24-30-33.s:322    .text:0000007e .L0
../src/ff-pic24-30-33.s:324    .text:00000082 .L0
../src/ff-pic24-30-33.s:323    .text:00000080 .L0
../src/ff-pic24-30-33.s:327    .text:00000084 .L0
../src/ff-pic24-30-33.s:324    .text:00000082 .L0
../src/ff-pic24-30-33.s:328    .text:00000086 .L0
../src/ff-pic24-30-33.s:327    .text:00000084 .L0
../src/ff-pic24-30-33.s:329    .text:00000088 .L0
../src/ff-pic24-30-33.s:328    .text:00000086 .L0
../src/ff-pic24-30-33.s:330    .text:0000008a .L0
../src/ff-pic24-30-33.s:329    .text:00000088 .L0
../src/ff-pic24-30-33.s:331    .text:0000008c .L0
MPLAB ASM30 Listing:  ../src/ff-pic24-30-33.s 			page 202


../src/ff-pic24-30-33.s:330    .text:0000008a .L0
../src/ff-pic24-30-33.s:340    .text:0000008e .L0
../src/ff-pic24-30-33.s:331    .text:0000008c .L0
../src/ff-pic24-30-33.s:341    .text:00000090 .L0
../src/ff-pic24-30-33.s:340    .text:0000008e .L0
../src/ff-pic24-30-33.s:343    .text:00000092 .L0
../src/ff-pic24-30-33.s:341    .text:00000090 .L0
../src/ff-pic24-30-33.s:348    .text:00000094 .L0
../src/ff-pic24-30-33.s:343    .text:00000092 .L0
../src/ff-pic24-30-33.s:349    .text:00000096 .L0
../src/ff-pic24-30-33.s:348    .text:00000094 .L0
../src/ff-pic24-30-33.s:352    .text:00000098 .L0
../src/ff-pic24-30-33.s:349    .text:00000096 .L0
../src/ff-pic24-30-33.s:353    .text:0000009a .L0
../src/ff-pic24-30-33.s:352    .text:00000098 .L0
../src/ff-pic24-30-33.s:354    .text:0000009c .L0
../src/ff-pic24-30-33.s:353    .text:0000009a .L0
../src/ff-pic24-30-33.s:355    .text:0000009e .L0
../src/ff-pic24-30-33.s:354    .text:0000009c .L0
../src/ff-pic24-30-33.s:356    .text:000000a0 .L0
../src/ff-pic24-30-33.s:355    .text:0000009e .L0
../src/ff-pic24-30-33.s:357    .text:000000a2 .L0
../src/ff-pic24-30-33.s:356    .text:000000a0 .L0
../src/ff-pic24-30-33.s:361    .text:000000a4 .L0
../src/ff-pic24-30-33.s:357    .text:000000a2 .L0
../src/ff-pic24-30-33.s:365    .text:000000a6 .L0
../src/ff-pic24-30-33.s:361    .text:000000a4 .L0
../src/ff-pic24-30-33.s:366    .text:000000a8 .L0
../src/ff-pic24-30-33.s:365    .text:000000a6 .L0
../src/ff-pic24-30-33.s:368    .text:000000aa .L0
../src/ff-pic24-30-33.s:366    .text:000000a8 .L0
../src/ff-pic24-30-33.s:369    .text:000000ac .L0
../src/ff-pic24-30-33.s:368    .text:000000aa .L0
../src/ff-pic24-30-33.s:370    .text:000000ae .L0
../src/ff-pic24-30-33.s:369    .text:000000ac .L0
../src/ff-pic24-30-33.s:371    .text:000000b0 .L0
../src/ff-pic24-30-33.s:370    .text:000000ae .L0
../src/ff-pic24-30-33.s:372    .text:000000b2 .L0
../src/ff-pic24-30-33.s:371    .text:000000b0 .L0
../src/ff-pic24-30-33.s:373    .text:000000b6 .L0
../src/ff-pic24-30-33.s:372    .text:000000b2 .L0
../src/ff-pic24-30-33.s:374    .text:000000b8 .L0
../src/ff-pic24-30-33.s:373    .text:000000b6 .L0
../src/ff-pic24-30-33.s:375    .text:000000ba .L0
../src/ff-pic24-30-33.s:374    .text:000000b8 .L0
../src/ff-pic24-30-33.s:376    .text:000000bc .L0
../src/ff-pic24-30-33.s:375    .text:000000ba .L0
../src/ff-pic24-30-33.s:468    .text:000000be .L0
../src/ff-pic24-30-33.s:376    .text:000000bc .L0
../src/ff-pic24-30-33.s:469    .text:000000c0 .L0
../src/ff-pic24-30-33.s:468    .text:000000be .L0
../src/ff-pic24-30-33.s:470    .text:000000c2 .L0
../src/ff-pic24-30-33.s:469    .text:000000c0 .L0
../src/ff-pic24-30-33.s:471    .text:000000c4 .L0
../src/ff-pic24-30-33.s:470    .text:000000c2 .L0
../src/ff-pic24-30-33.s:472    .text:000000c6 .L0
../src/ff-pic24-30-33.s:471    .text:000000c4 .L0
MPLAB ASM30 Listing:  ../src/ff-pic24-30-33.s 			page 203


../src/ff-pic24-30-33.s:473    .text:000000c8 .L0
../src/ff-pic24-30-33.s:472    .text:000000c6 .L0
../src/ff-pic24-30-33.s:474    .text:000000ca .L0
../src/ff-pic24-30-33.s:473    .text:000000c8 .L0
../src/ff-pic24-30-33.s:475    .text:000000cc .L0
../src/ff-pic24-30-33.s:474    .text:000000ca .L0
../src/ff-pic24-30-33.s:476    .text:000000ce .L0
../src/ff-pic24-30-33.s:475    .text:000000cc .L0
../src/ff-pic24-30-33.s:477    .text:000000d0 .L0
../src/ff-pic24-30-33.s:476    .text:000000ce .L0
../src/ff-pic24-30-33.s:495    .text:000000d2 .L0
../src/ff-pic24-30-33.s:477    .text:000000d0 .L0
../src/ff-pic24-30-33.s:496    .text:000000d4 .L0
../src/ff-pic24-30-33.s:495    .text:000000d2 .L0
../src/ff-pic24-30-33.s:497    .text:000000d6 .L0
../src/ff-pic24-30-33.s:496    .text:000000d4 .L0
../src/ff-pic24-30-33.s:498    .text:000000d8 .L0
../src/ff-pic24-30-33.s:497    .text:000000d6 .L0
../src/ff-pic24-30-33.s:499    .text:000000da .L0
../src/ff-pic24-30-33.s:498    .text:000000d8 .L0
../src/ff-pic24-30-33.s:500    .text:000000dc .L0
../src/ff-pic24-30-33.s:499    .text:000000da .L0
../src/ff-pic24-30-33.s:503    .text:000000de .L0
../src/ff-pic24-30-33.s:500    .text:000000dc .L0
../src/ff-pic24-30-33.s:504    .text:000000e0 .L0
../src/ff-pic24-30-33.s:503    .text:000000de .L0
../src/ff-pic24-30-33.s:505    .text:000000e2 .L0
../src/ff-pic24-30-33.s:504    .text:000000e0 .L0
../src/ff-pic24-30-33.s:506    .text:000000e4 .L0
../src/ff-pic24-30-33.s:505    .text:000000e2 .L0
../src/ff-pic24-30-33.s:507    .text:000000e6 .L0
../src/ff-pic24-30-33.s:506    .text:000000e4 .L0
../src/ff-pic24-30-33.s:509    .text:000000e8 .L0
../src/ff-pic24-30-33.s:507    .text:000000e6 .L0
../src/ff-pic24-30-33.s:510    .text:000000ea .L0
../src/ff-pic24-30-33.s:509    .text:000000e8 .L0
../src/ff-pic24-30-33.s:512    .text:000000ec .L0
../src/ff-pic24-30-33.s:510    .text:000000ea .L0
../src/ff-pic24-30-33.s:514    .text:000000ee .L0
../src/ff-pic24-30-33.s:512    .text:000000ec .L0
../src/ff-pic24-30-33.s:515    .text:000000f0 .L0
../src/ff-pic24-30-33.s:514    .text:000000ee .L0
../src/ff-pic24-30-33.s:516    .text:000000f2 .L0
../src/ff-pic24-30-33.s:515    .text:000000f0 .L0
../src/ff-pic24-30-33.s:517    .text:000000f4 .L0
../src/ff-pic24-30-33.s:516    .text:000000f2 .L0
../src/ff-pic24-30-33.s:518    .text:000000f6 .L0
../src/ff-pic24-30-33.s:517    .text:000000f4 .L0
../src/ff-pic24-30-33.s:519    .text:000000f8 .L0
../src/ff-pic24-30-33.s:518    .text:000000f6 .L0
../src/ff-pic24-30-33.s:520    .text:000000fa .L0
../src/ff-pic24-30-33.s:519    .text:000000f8 .L0
../src/ff-pic24-30-33.s:523    .text:000000fc .L0
../src/ff-pic24-30-33.s:520    .text:000000fa .L0
../src/ff-pic24-30-33.s:525    .text:000000fe .L0
../src/ff-pic24-30-33.s:523    .text:000000fc .L0
../src/ff-pic24-30-33.s:526    .text:00000100 .L0
MPLAB ASM30 Listing:  ../src/ff-pic24-30-33.s 			page 204


../src/ff-pic24-30-33.s:525    .text:000000fe .L0
../src/ff-pic24-30-33.s:527    .text:00000102 .L0
../src/ff-pic24-30-33.s:526    .text:00000100 .L0
../src/ff-pic24-30-33.s:528    .text:00000104 .L0
../src/ff-pic24-30-33.s:527    .text:00000102 .L0
../src/ff-pic24-30-33.s:529    .text:00000106 .L0
../src/ff-pic24-30-33.s:528    .text:00000104 .L0
../src/ff-pic24-30-33.s:537    .text:00000108 .L0
../src/ff-pic24-30-33.s:529    .text:00000106 .L0
../src/ff-pic24-30-33.s:540    .text:0000010a .L0
../src/ff-pic24-30-33.s:537    .text:00000108 .L0
../src/ff-pic24-30-33.s:542    .text:0000010c .L0
../src/ff-pic24-30-33.s:540    .text:0000010a .L0
../src/ff-pic24-30-33.s:543    .text:0000010e .L0
../src/ff-pic24-30-33.s:542    .text:0000010c .L0
../src/ff-pic24-30-33.s:544    .text:00000110 .L0
../src/ff-pic24-30-33.s:543    .text:0000010e .L0
../src/ff-pic24-30-33.s:545    .text:00000112 .L0
../src/ff-pic24-30-33.s:544    .text:00000110 .L0
../src/ff-pic24-30-33.s:547    .text:00000114 .L0
../src/ff-pic24-30-33.s:545    .text:00000112 .L0
../src/ff-pic24-30-33.s:550    .text:00000116 .L0
../src/ff-pic24-30-33.s:547    .text:00000114 .L0
../src/ff-pic24-30-33.s:551    .text:00000118 .L0
../src/ff-pic24-30-33.s:550    .text:00000116 .L0
../src/ff-pic24-30-33.s:552    .text:0000011a .L0
../src/ff-pic24-30-33.s:551    .text:00000118 .L0
../src/ff-pic24-30-33.s:553    .text:0000011c .L0
../src/ff-pic24-30-33.s:552    .text:0000011a .L0
../src/ff-pic24-30-33.s:554    .text:0000011e .L0
../src/ff-pic24-30-33.s:553    .text:0000011c .L0
../src/ff-pic24-30-33.s:558    .text:00000120 .L0
../src/ff-pic24-30-33.s:554    .text:0000011e .L0
../src/ff-pic24-30-33.s:559    .text:00000122 .L0
../src/ff-pic24-30-33.s:558    .text:00000120 .L0
../src/ff-pic24-30-33.s:565    .text:00000124 .L0
../src/ff-pic24-30-33.s:559    .text:00000122 .L0
../src/ff-pic24-30-33.s:570    .text:00000126 .L0
../src/ff-pic24-30-33.s:565    .text:00000124 .L0
../src/ff-pic24-30-33.s:571    .text:00000128 .L0
../src/ff-pic24-30-33.s:570    .text:00000126 .L0
../src/ff-pic24-30-33.s:572    .text:0000012a .L0
../src/ff-pic24-30-33.s:571    .text:00000128 .L0
../src/ff-pic24-30-33.s:574    .text:0000012c .L0
../src/ff-pic24-30-33.s:572    .text:0000012a .L0
../src/ff-pic24-30-33.s:575    .text:0000012e .L0
../src/ff-pic24-30-33.s:574    .text:0000012c .L0
../src/ff-pic24-30-33.s:577    .text:00000130 .L0
../src/ff-pic24-30-33.s:575    .text:0000012e .L0
../src/ff-pic24-30-33.s:579    .text:00000132 .L0
../src/ff-pic24-30-33.s:577    .text:00000130 .L0
../src/ff-pic24-30-33.s:580    .text:00000134 .L0
../src/ff-pic24-30-33.s:579    .text:00000132 .L0
../src/ff-pic24-30-33.s:581    .text:00000136 .L0
../src/ff-pic24-30-33.s:580    .text:00000134 .L0
../src/ff-pic24-30-33.s:582    .text:00000138 .L0
../src/ff-pic24-30-33.s:581    .text:00000136 .L0
MPLAB ASM30 Listing:  ../src/ff-pic24-30-33.s 			page 205


../src/ff-pic24-30-33.s:583    .text:0000013a .L0
../src/ff-pic24-30-33.s:582    .text:00000138 .L0
../src/ff-pic24-30-33.s:584    .text:0000013c .L0
../src/ff-pic24-30-33.s:583    .text:0000013a .L0
../src/ff-pic24-30-33.s:585    .text:0000013e .L0
../src/ff-pic24-30-33.s:584    .text:0000013c .L0
../src/ff-pic24-30-33.s:587    .text:00000140 .L0
../src/ff-pic24-30-33.s:585    .text:0000013e .L0
../src/ff-pic24-30-33.s:588    .text:00000142 .L0
../src/ff-pic24-30-33.s:587    .text:00000140 .L0
../src/ff-pic24-30-33.s:590    .text:00000144 .L0
../src/ff-pic24-30-33.s:588    .text:00000142 .L0
../src/ff-pic24-30-33.s:592    .text:00000146 .L0
../src/ff-pic24-30-33.s:590    .text:00000144 .L0
../src/ff-pic24-30-33.s:593    .text:00000148 .L0
../src/ff-pic24-30-33.s:592    .text:00000146 .L0
../src/ff-pic24-30-33.s:594    .text:0000014a .L0
../src/ff-pic24-30-33.s:593    .text:00000148 .L0
../src/ff-pic24-30-33.s:595    .text:0000014c .L0
../src/ff-pic24-30-33.s:594    .text:0000014a .L0
../src/ff-pic24-30-33.s:596    .text:0000014e .L0
../src/ff-pic24-30-33.s:595    .text:0000014c .L0
../src/ff-pic24-30-33.s:597    .text:00000150 .L0
../src/ff-pic24-30-33.s:596    .text:0000014e .L0
../src/ff-pic24-30-33.s:598    .text:00000152 .L0
../src/ff-pic24-30-33.s:597    .text:00000150 .L0
../src/ff-pic24-30-33.s:599    .text:00000154 .L0
../src/ff-pic24-30-33.s:598    .text:00000152 .L0
../src/ff-pic24-30-33.s:600    .text:00000156 .L0
../src/ff-pic24-30-33.s:599    .text:00000154 .L0
../src/ff-pic24-30-33.s:601    .text:00000158 .L0
../src/ff-pic24-30-33.s:600    .text:00000156 .L0
../src/ff-pic24-30-33.s:602    .text:0000015a .L0
../src/ff-pic24-30-33.s:601    .text:00000158 .L0
../src/ff-pic24-30-33.s:603    .text:0000015c .L0
../src/ff-pic24-30-33.s:602    .text:0000015a .L0
../src/ff-pic24-30-33.s:604    .text:0000015e .L0
../src/ff-pic24-30-33.s:603    .text:0000015c .L0
../src/ff-pic24-30-33.s:607    .text:00000160 .L0
../src/ff-pic24-30-33.s:604    .text:0000015e .L0
../src/ff-pic24-30-33.s:616    .text:0000016c .L0
../src/ff-pic24-30-33.s:607    .text:00000160 .L0
../src/ff-pic24-30-33.s:617    .text:0000016e .L0
../src/ff-pic24-30-33.s:616    .text:0000016c .L0
../src/ff-pic24-30-33.s:618    .text:00000170 .L0
../src/ff-pic24-30-33.s:617    .text:0000016e .L0
../src/ff-pic24-30-33.s:619    .text:00000172 .L0
../src/ff-pic24-30-33.s:618    .text:00000170 .L0
../src/ff-pic24-30-33.s:620    .text:00000174 .L0
../src/ff-pic24-30-33.s:619    .text:00000172 .L0
../src/ff-pic24-30-33.s:621    .text:00000176 .L0
../src/ff-pic24-30-33.s:620    .text:00000174 .L0
../src/ff-pic24-30-33.s:622    .text:00000178 .L0
../src/ff-pic24-30-33.s:621    .text:00000176 .L0
../src/ff-pic24-30-33.s:623    .text:0000017a .L0
../src/ff-pic24-30-33.s:622    .text:00000178 .L0
../src/ff-pic24-30-33.s:626    .text:0000017c .L0
MPLAB ASM30 Listing:  ../src/ff-pic24-30-33.s 			page 206


../src/ff-pic24-30-33.s:623    .text:0000017a .L0
../src/ff-pic24-30-33.s:628    .text:0000017e .L0
../src/ff-pic24-30-33.s:626    .text:0000017c .L0
../src/ff-pic24-30-33.s:629    .text:00000180 .L0
../src/ff-pic24-30-33.s:628    .text:0000017e .L0
../src/ff-pic24-30-33.s:630    .text:00000182 .L0
../src/ff-pic24-30-33.s:629    .text:00000180 .L0
../src/ff-pic24-30-33.s:631    .text:00000184 .L0
../src/ff-pic24-30-33.s:630    .text:00000182 .L0
../src/ff-pic24-30-33.s:632    .text:00000186 .L0
../src/ff-pic24-30-33.s:631    .text:00000184 .L0
../src/ff-pic24-30-33.s:639    .text:0000018e .L0
../src/ff-pic24-30-33.s:632    .text:00000186 .L0
../src/ff-pic24-30-33.s:640    .text:00000190 .L0
../src/ff-pic24-30-33.s:639    .text:0000018e .L0
../src/ff-pic24-30-33.s:647    .text:00000198 .L0
../src/ff-pic24-30-33.s:640    .text:00000190 .L0
../src/ff-pic24-30-33.s:648    .text:0000019a .L0
../src/ff-pic24-30-33.s:647    .text:00000198 .L0
../src/ff-pic24-30-33.s:656    .text:000001a4 .L0
../src/ff-pic24-30-33.s:648    .text:0000019a .L0
../src/ff-pic24-30-33.s:657    .text:000001a6 .L0
../src/ff-pic24-30-33.s:656    .text:000001a4 .L0
../src/ff-pic24-30-33.s:665    .text:000001b0 .L0
../src/ff-pic24-30-33.s:657    .text:000001a6 .L0
../src/ff-pic24-30-33.s:666    .text:000001b2 .L0
../src/ff-pic24-30-33.s:665    .text:000001b0 .L0
../src/ff-pic24-30-33.s:674    .text:000001bc .L0
../src/ff-pic24-30-33.s:666    .text:000001b2 .L0
../src/ff-pic24-30-33.s:675    .text:000001be .L0
../src/ff-pic24-30-33.s:674    .text:000001bc .L0
../src/ff-pic24-30-33.s:676    .text:000001c0 .L0
../src/ff-pic24-30-33.s:675    .text:000001be .L0
../src/ff-pic24-30-33.s:692    .text:000001ca .L0
../src/ff-pic24-30-33.s:676    .text:000001c0 .L0
../src/ff-pic24-30-33.s:693    .text:000001cc .L0
../src/ff-pic24-30-33.s:692    .text:000001ca .L0
../src/ff-pic24-30-33.s:695    .text:000001ce .L0
../src/ff-pic24-30-33.s:693    .text:000001cc .L0
../src/ff-pic24-30-33.s:704    .text:000001d8 .L0
../src/ff-pic24-30-33.s:695    .text:000001ce .L0
../src/ff-pic24-30-33.s:705    .text:000001da .L0
../src/ff-pic24-30-33.s:704    .text:000001d8 .L0
../src/ff-pic24-30-33.s:707    .text:000001dc .L0
../src/ff-pic24-30-33.s:705    .text:000001da .L0
../src/ff-pic24-30-33.s:708    .text:000001e0 .L0
../src/ff-pic24-30-33.s:707    .text:000001dc .L0
../src/ff-pic24-30-33.s:710    .text:000001e2 .L0
../src/ff-pic24-30-33.s:708    .text:000001e0 .L0
../src/ff-pic24-30-33.s:715    .text:000001e4 .L0
../src/ff-pic24-30-33.s:710    .text:000001e2 .L0
../src/ff-pic24-30-33.s:718    .text:000001e6 .L0
../src/ff-pic24-30-33.s:715    .text:000001e4 .L0
../src/ff-pic24-30-33.s:719    .text:000001e8 .L0
../src/ff-pic24-30-33.s:718    .text:000001e6 .L0
../src/ff-pic24-30-33.s:721    .text:000001ea .L0
../src/ff-pic24-30-33.s:719    .text:000001e8 .L0
MPLAB ASM30 Listing:  ../src/ff-pic24-30-33.s 			page 207


../src/ff-pic24-30-33.s:722    .text:000001ec .L0
../src/ff-pic24-30-33.s:721    .text:000001ea .L0
../src/ff-pic24-30-33.s:723    .text:000001ee .L0
../src/ff-pic24-30-33.s:722    .text:000001ec .L0
../src/ff-pic24-30-33.s:724    .text:000001f0 .L0
../src/ff-pic24-30-33.s:723    .text:000001ee .L0
../src/ff-pic24-30-33.s:726    .text:000001f2 .L0
../src/ff-pic24-30-33.s:724    .text:000001f0 .L0
../src/ff-pic24-30-33.s:727    .text:000001f4 .L0
../src/ff-pic24-30-33.s:726    .text:000001f2 .L0
../src/ff-pic24-30-33.s:728    .text:000001f6 .L0
../src/ff-pic24-30-33.s:727    .text:000001f4 .L0
../src/ff-pic24-30-33.s:730    .text:000001f8 .L0
../src/ff-pic24-30-33.s:728    .text:000001f6 .L0
../src/ff-pic24-30-33.s:731    .text:000001fa .L0
../src/ff-pic24-30-33.s:730    .text:000001f8 .L0
../src/ff-pic24-30-33.s:732    .text:000001fc .L0
../src/ff-pic24-30-33.s:731    .text:000001fa .L0
../src/ff-pic24-30-33.s:733    .text:000001fe .L0
../src/ff-pic24-30-33.s:732    .text:000001fc .L0
../src/ff-pic24-30-33.s:734    .text:00000200 .L0
../src/ff-pic24-30-33.s:733    .text:000001fe .L0
../src/ff-pic24-30-33.s:735    .text:00000202 .L0
../src/ff-pic24-30-33.s:734    .text:00000200 .L0
../src/ff-pic24-30-33.s:737    .text:00000204 .L0
../src/ff-pic24-30-33.s:735    .text:00000202 .L0
../src/ff-pic24-30-33.s:738    .text:00000206 .L0
../src/ff-pic24-30-33.s:737    .text:00000204 .L0
../src/ff-pic24-30-33.s:739    .text:00000208 .L0
../src/ff-pic24-30-33.s:738    .text:00000206 .L0
../src/ff-pic24-30-33.s:741    .text:0000020a .L0
../src/ff-pic24-30-33.s:739    .text:00000208 .L0
../src/ff-pic24-30-33.s:742    .text:0000020c .L0
../src/ff-pic24-30-33.s:741    .text:0000020a .L0
../src/ff-pic24-30-33.s:743    .text:0000020e .L0
../src/ff-pic24-30-33.s:742    .text:0000020c .L0
../src/ff-pic24-30-33.s:746    .text:00000210 .L0
../src/ff-pic24-30-33.s:743    .text:0000020e .L0
../src/ff-pic24-30-33.s:747    .text:00000212 .L0
../src/ff-pic24-30-33.s:746    .text:00000210 .L0
../src/ff-pic24-30-33.s:749    .text:00000214 .L0
../src/ff-pic24-30-33.s:747    .text:00000212 .L0
../src/ff-pic24-30-33.s:755    .text:00000216 .L0
../src/ff-pic24-30-33.s:749    .text:00000214 .L0
../src/ff-pic24-30-33.s:756    .text:00000218 .L0
../src/ff-pic24-30-33.s:755    .text:00000216 .L0
../src/ff-pic24-30-33.s:759    .text:0000021a .L0
../src/ff-pic24-30-33.s:756    .text:00000218 .L0
../src/ff-pic24-30-33.s:760    .text:0000021c .L0
../src/ff-pic24-30-33.s:759    .text:0000021a .L0
../src/ff-pic24-30-33.s:776    .text:0000021e .L0
../src/ff-pic24-30-33.s:760    .text:0000021c .L0
../src/ff-pic24-30-33.s:777    .text:00000220 .L0
../src/ff-pic24-30-33.s:776    .text:0000021e .L0
../src/ff-pic24-30-33.s:778    .text:00000222 .L0
../src/ff-pic24-30-33.s:777    .text:00000220 .L0
../src/ff-pic24-30-33.s:779    .text:00000224 .L0
MPLAB ASM30 Listing:  ../src/ff-pic24-30-33.s 			page 208


../src/ff-pic24-30-33.s:778    .text:00000222 .L0
../src/ff-pic24-30-33.s:780    .text:00000226 .L0
../src/ff-pic24-30-33.s:779    .text:00000224 .L0
../src/ff-pic24-30-33.s:781    .text:00000228 .L0
../src/ff-pic24-30-33.s:780    .text:00000226 .L0
../src/ff-pic24-30-33.s:782    .text:0000022a .L0
../src/ff-pic24-30-33.s:781    .text:00000228 .L0
../src/ff-pic24-30-33.s:783    .text:0000022c .L0
../src/ff-pic24-30-33.s:782    .text:0000022a .L0
../src/ff-pic24-30-33.s:787    .text:0000022e .L0
../src/ff-pic24-30-33.s:783    .text:0000022c .L0
../src/ff-pic24-30-33.s:788    .text:00000230 .L0
../src/ff-pic24-30-33.s:787    .text:0000022e .L0
../src/ff-pic24-30-33.s:791    .text:00000232 .L0
../src/ff-pic24-30-33.s:788    .text:00000230 .L0
../src/ff-pic24-30-33.s:792    .text:00000234 .L0
../src/ff-pic24-30-33.s:791    .text:00000232 .L0
../src/ff-pic24-30-33.s:797    .text:00000236 .L0
../src/ff-pic24-30-33.s:792    .text:00000234 .L0
../src/ff-pic24-30-33.s:798    .text:00000238 .L0
../src/ff-pic24-30-33.s:797    .text:00000236 .L0
../src/ff-pic24-30-33.s:799    .text:0000023a .L0
../src/ff-pic24-30-33.s:798    .text:00000238 .L0
../src/ff-pic24-30-33.s:800    .text:0000023c .L0
../src/ff-pic24-30-33.s:799    .text:0000023a .L0
../src/ff-pic24-30-33.s:801    .text:0000023e .L0
../src/ff-pic24-30-33.s:800    .text:0000023c .L0
../src/ff-pic24-30-33.s:806    .text:00000240 .L0
../src/ff-pic24-30-33.s:801    .text:0000023e .L0
../src/ff-pic24-30-33.s:807    .text:00000242 .L0
../src/ff-pic24-30-33.s:806    .text:00000240 .L0
../src/ff-pic24-30-33.s:808    .text:00000244 .L0
../src/ff-pic24-30-33.s:807    .text:00000242 .L0
../src/ff-pic24-30-33.s:813    .text:00000246 .L0
../src/ff-pic24-30-33.s:808    .text:00000244 .L0
../src/ff-pic24-30-33.s:821    .text:00000248 .L0
../src/ff-pic24-30-33.s:813    .text:00000246 .L0
../src/ff-pic24-30-33.s:822    .text:0000024a .L0
../src/ff-pic24-30-33.s:821    .text:00000248 .L0
../src/ff-pic24-30-33.s:823    .text:0000024c .L0
../src/ff-pic24-30-33.s:822    .text:0000024a .L0
../src/ff-pic24-30-33.s:824    .text:0000024e .L0
../src/ff-pic24-30-33.s:823    .text:0000024c .L0
../src/ff-pic24-30-33.s:825    .text:00000250 .L0
../src/ff-pic24-30-33.s:824    .text:0000024e .L0
../src/ff-pic24-30-33.s:826    .text:00000252 .L0
../src/ff-pic24-30-33.s:825    .text:00000250 .L0
../src/ff-pic24-30-33.s:827    .text:00000254 .L0
../src/ff-pic24-30-33.s:826    .text:00000252 .L0
../src/ff-pic24-30-33.s:829    .text:00000256 .L0
../src/ff-pic24-30-33.s:827    .text:00000254 .L0
../src/ff-pic24-30-33.s:830    .text:00000258 .L0
../src/ff-pic24-30-33.s:829    .text:00000256 .L0
../src/ff-pic24-30-33.s:831    .text:0000025a .L0
../src/ff-pic24-30-33.s:830    .text:00000258 .L0
../src/ff-pic24-30-33.s:832    .text:0000025c .L0
../src/ff-pic24-30-33.s:831    .text:0000025a .L0
MPLAB ASM30 Listing:  ../src/ff-pic24-30-33.s 			page 209


../src/ff-pic24-30-33.s:835    .text:0000025e .L0
../src/ff-pic24-30-33.s:832    .text:0000025c .L0
../src/ff-pic24-30-33.s:843    .text:00000260 .L0
../src/ff-pic24-30-33.s:835    .text:0000025e .L0
../src/ff-pic24-30-33.s:848    .text:00000262 .L0
../src/ff-pic24-30-33.s:843    .text:00000260 .L0
../src/ff-pic24-30-33.s:850    .text:00000264 .L0
../src/ff-pic24-30-33.s:848    .text:00000262 .L0
../src/ff-pic24-30-33.s:852    .text:00000266 .L0
../src/ff-pic24-30-33.s:850    .text:00000264 .L0
../src/ff-pic24-30-33.s:853    .text:00000268 .L0
../src/ff-pic24-30-33.s:852    .text:00000266 .L0
../src/ff-pic24-30-33.s:854    .text:0000026a .L0
../src/ff-pic24-30-33.s:853    .text:00000268 .L0
../src/ff-pic24-30-33.s:865    .text:0000026c .L0
../src/ff-pic24-30-33.s:854    .text:0000026a .L0
../src/ff-pic24-30-33.s:867    .text:0000026e .L0
../src/ff-pic24-30-33.s:865    .text:0000026c .L0
../src/ff-pic24-30-33.s:914    .text:00000270 .L0
../src/ff-pic24-30-33.s:867    .text:0000026e .L0
../src/ff-pic24-30-33.s:915    .text:00000274 .L0
../src/ff-pic24-30-33.s:914    .text:00000270 .L0
../src/ff-pic24-30-33.s:916    .text:00000278 .L0
../src/ff-pic24-30-33.s:915    .text:00000274 .L0
../src/ff-pic24-30-33.s:917    .text:0000027c .L0
../src/ff-pic24-30-33.s:916    .text:00000278 .L0
../src/ff-pic24-30-33.s:923    .text:0000027e .L0
../src/ff-pic24-30-33.s:917    .text:0000027c .L0
../src/ff-pic24-30-33.s:925    .text:00000280 .L0
../src/ff-pic24-30-33.s:923    .text:0000027e .L0
../src/ff-pic24-30-33.s:926    .text:00000282 .L0
../src/ff-pic24-30-33.s:925    .text:00000280 .L0
../src/ff-pic24-30-33.s:927    .text:00000284 .L0
../src/ff-pic24-30-33.s:926    .text:00000282 .L0
../src/ff-pic24-30-33.s:928    .text:00000286 .L0
../src/ff-pic24-30-33.s:927    .text:00000284 .L0
../src/ff-pic24-30-33.s:929    .text:00000288 .L0
../src/ff-pic24-30-33.s:928    .text:00000286 .L0
../src/ff-pic24-30-33.s:930    .text:0000028a .L0
../src/ff-pic24-30-33.s:929    .text:00000288 .L0
../src/ff-pic24-30-33.s:933    .text:0000028c .L0
../src/ff-pic24-30-33.s:930    .text:0000028a .L0
../src/ff-pic24-30-33.s:934    .text:00000290 .L0
../src/ff-pic24-30-33.s:933    .text:0000028c .L0
../src/ff-pic24-30-33.s:937    .text:00000292 .L0
../src/ff-pic24-30-33.s:934    .text:00000290 .L0
../src/ff-pic24-30-33.s:938    .text:00000294 .L0
../src/ff-pic24-30-33.s:937    .text:00000292 .L0
../src/ff-pic24-30-33.s:941    .text:00000298 .L0
../src/ff-pic24-30-33.s:938    .text:00000294 .L0
../src/ff-pic24-30-33.s:942    .text:0000029a .L0
../src/ff-pic24-30-33.s:941    .text:00000298 .L0
../src/ff-pic24-30-33.s:945    .text:0000029e .L0
../src/ff-pic24-30-33.s:942    .text:0000029a .L0
../src/ff-pic24-30-33.s:946    .text:000002a0 .L0
../src/ff-pic24-30-33.s:945    .text:0000029e .L0
../src/ff-pic24-30-33.s:949    .text:000002a4 .L0
MPLAB ASM30 Listing:  ../src/ff-pic24-30-33.s 			page 210


../src/ff-pic24-30-33.s:946    .text:000002a0 .L0
../src/ff-pic24-30-33.s:950    .text:000002a6 .L0
../src/ff-pic24-30-33.s:949    .text:000002a4 .L0
../src/ff-pic24-30-33.s:953    .text:000002aa .L0
../src/ff-pic24-30-33.s:950    .text:000002a6 .L0
../src/ff-pic24-30-33.s:954    .text:000002ac .L0
../src/ff-pic24-30-33.s:953    .text:000002aa .L0
../src/ff-pic24-30-33.s:957    .text:000002b0 .L0
../src/ff-pic24-30-33.s:954    .text:000002ac .L0
../src/ff-pic24-30-33.s:958    .text:000002b2 .L0
../src/ff-pic24-30-33.s:957    .text:000002b0 .L0
../src/ff-pic24-30-33.s:961    .text:000002b6 .L0
../src/ff-pic24-30-33.s:958    .text:000002b2 .L0
../src/ff-pic24-30-33.s:962    .text:000002b8 .L0
../src/ff-pic24-30-33.s:961    .text:000002b6 .L0
../src/ff-pic24-30-33.s:965    .text:000002bc .L0
../src/ff-pic24-30-33.s:962    .text:000002b8 .L0
../src/ff-pic24-30-33.s:966    .text:000002be .L0
../src/ff-pic24-30-33.s:965    .text:000002bc .L0
../src/ff-pic24-30-33.s:970    .text:000002c2 .L0
../src/ff-pic24-30-33.s:966    .text:000002be .L0
../src/ff-pic24-30-33.s:971    .text:000002c4 .L0
../src/ff-pic24-30-33.s:970    .text:000002c2 .L0
../src/ff-pic24-30-33.s:974    .text:000002c6 .L0
../src/ff-pic24-30-33.s:971    .text:000002c4 .L0
../src/ff-pic24-30-33.s:978    .text:000002e0 .L0
../src/ff-pic24-30-33.s:974    .text:000002c6 .L0
../src/ff-pic24-30-33.s:979    .text:000002e2 .L0
../src/ff-pic24-30-33.s:978    .text:000002e0 .L0
../src/ff-pic24-30-33.s:980    .text:000002e6 .L0
../src/ff-pic24-30-33.s:979    .text:000002e2 .L0
../src/ff-pic24-30-33.s:982    .text:000002e8 .L0
../src/ff-pic24-30-33.s:980    .text:000002e6 .L0
../src/ff-pic24-30-33.s:983    .text:000002ea .L0
../src/ff-pic24-30-33.s:982    .text:000002e8 .L0
../src/ff-pic24-30-33.s:984    .text:000002ec .L0
../src/ff-pic24-30-33.s:983    .text:000002ea .L0
../src/ff-pic24-30-33.s:986    .text:000002ee .L0
../src/ff-pic24-30-33.s:984    .text:000002ec .L0
../src/ff-pic24-30-33.s:990    .text:000002f4 .L0
../src/ff-pic24-30-33.s:986    .text:000002ee .L0
../src/ff-pic24-30-33.s:991    .text:000002f6 .L0
../src/ff-pic24-30-33.s:990    .text:000002f4 .L0
../src/ff-pic24-30-33.s:992    .text:000002fa .L0
../src/ff-pic24-30-33.s:991    .text:000002f6 .L0
../src/ff-pic24-30-33.s:993    .text:000002fc .L0
../src/ff-pic24-30-33.s:992    .text:000002fa .L0
../src/ff-pic24-30-33.s:994    .text:000002fe .L0
../src/ff-pic24-30-33.s:993    .text:000002fc .L0
../src/ff-pic24-30-33.s:995    .text:00000300 .L0
../src/ff-pic24-30-33.s:994    .text:000002fe .L0
../src/ff-pic24-30-33.s:996    .text:00000302 .L0
../src/ff-pic24-30-33.s:995    .text:00000300 .L0
../src/ff-pic24-30-33.s:997    .text:00000304 .L0
../src/ff-pic24-30-33.s:996    .text:00000302 .L0
../src/ff-pic24-30-33.s:998    .text:00000308 .L0
../src/ff-pic24-30-33.s:997    .text:00000304 .L0
MPLAB ASM30 Listing:  ../src/ff-pic24-30-33.s 			page 211


../src/ff-pic24-30-33.s:999    .text:0000030a .L0
../src/ff-pic24-30-33.s:998    .text:00000308 .L0
../src/ff-pic24-30-33.s:1000   .text:0000030c .L0
../src/ff-pic24-30-33.s:999    .text:0000030a .L0
../src/ff-pic24-30-33.s:1002   .text:0000030e .L0
../src/ff-pic24-30-33.s:1000   .text:0000030c .L0
../src/ff-pic24-30-33.s:1003   .text:00000310 .L0
../src/ff-pic24-30-33.s:1002   .text:0000030e .L0
../src/ff-pic24-30-33.s:1005   .text:00000312 .L0
../src/ff-pic24-30-33.s:1003   .text:00000310 .L0
../src/ff-pic24-30-33.s:1014   .text:0000031e .L0
../src/ff-pic24-30-33.s:1005   .text:00000312 .L0
../src/ff-pic24-30-33.s:1024   .text:0000032a .L0
../src/ff-pic24-30-33.s:1014   .text:0000031e .L0
../src/ff-pic24-30-33.s:1026   .text:0000032c .L0
../src/ff-pic24-30-33.s:1024   .text:0000032a .L0
../src/ff-pic24-30-33.s:1027   .text:0000032e .L0
../src/ff-pic24-30-33.s:1026   .text:0000032c .L0
../src/ff-pic24-30-33.s:1028   .text:00000330 .L0
../src/ff-pic24-30-33.s:1027   .text:0000032e .L0
../src/ff-pic24-30-33.s:1035   .text:00000332 .L0
../src/ff-pic24-30-33.s:1028   .text:00000330 .L0
../src/ff-pic24-30-33.s:1036   .text:00000334 .L0
../src/ff-pic24-30-33.s:1035   .text:00000332 .L0
../src/ff-pic24-30-33.s:1037   .text:00000336 .L0
../src/ff-pic24-30-33.s:1036   .text:00000334 .L0
../src/ff-pic24-30-33.s:1046   .text:00000338 .L0
../src/ff-pic24-30-33.s:1037   .text:00000336 .L0
../src/ff-pic24-30-33.s:1057   .text:0000033a .L0
../src/ff-pic24-30-33.s:1046   .text:00000338 .L0
../src/ff-pic24-30-33.s:1058   .text:0000033c .L0
../src/ff-pic24-30-33.s:1057   .text:0000033a .L0
../src/ff-pic24-30-33.s:1059   .text:0000033e .L0
../src/ff-pic24-30-33.s:1058   .text:0000033c .L0
../src/ff-pic24-30-33.s:1060   .text:00000340 .L0
../src/ff-pic24-30-33.s:1059   .text:0000033e .L0
../src/ff-pic24-30-33.s:1061   .text:00000342 .L0
../src/ff-pic24-30-33.s:1060   .text:00000340 .L0
../src/ff-pic24-30-33.s:1063   .text:00000344 .L0
../src/ff-pic24-30-33.s:1061   .text:00000342 .L0
../src/ff-pic24-30-33.s:1064   .text:00000346 .L0
../src/ff-pic24-30-33.s:1063   .text:00000344 .L0
../src/ff-pic24-30-33.s:1065   .text:00000348 .L0
../src/ff-pic24-30-33.s:1064   .text:00000346 .L0
../src/ff-pic24-30-33.s:1066   .text:0000034a .L0
../src/ff-pic24-30-33.s:1065   .text:00000348 .L0
../src/ff-pic24-30-33.s:1067   .text:0000034c .L0
../src/ff-pic24-30-33.s:1066   .text:0000034a .L0
../src/ff-pic24-30-33.s:1068   .text:0000034e .L0
../src/ff-pic24-30-33.s:1067   .text:0000034c .L0
../src/ff-pic24-30-33.s:1069   .text:00000350 .L0
../src/ff-pic24-30-33.s:1068   .text:0000034e .L0
../src/ff-pic24-30-33.s:1070   .text:00000352 .L0
../src/ff-pic24-30-33.s:1069   .text:00000350 .L0
../src/ff-pic24-30-33.s:1071   .text:00000354 .L0
../src/ff-pic24-30-33.s:1070   .text:00000352 .L0
../src/ff-pic24-30-33.s:1079   .text:0000035c .L0
MPLAB ASM30 Listing:  ../src/ff-pic24-30-33.s 			page 212


../src/ff-pic24-30-33.s:1071   .text:00000354 .L0
../src/ff-pic24-30-33.s:1080   .text:0000035e .L0
../src/ff-pic24-30-33.s:1079   .text:0000035c .L0
../src/ff-pic24-30-33.s:1094   .text:00000368 .L0
../src/ff-pic24-30-33.s:1080   .text:0000035e .L0
../src/ff-pic24-30-33.s:1095   .text:0000036a .L0
../src/ff-pic24-30-33.s:1094   .text:00000368 .L0
../src/ff-pic24-30-33.s:1096   .text:0000036c .L0
../src/ff-pic24-30-33.s:1095   .text:0000036a .L0
../src/ff-pic24-30-33.s:1097   .text:0000036e .L0
../src/ff-pic24-30-33.s:1096   .text:0000036c .L0
../src/ff-pic24-30-33.s:1098   .text:00000370 .L0
../src/ff-pic24-30-33.s:1097   .text:0000036e .L0
../src/ff-pic24-30-33.s:1099   .text:00000372 .L0
../src/ff-pic24-30-33.s:1098   .text:00000370 .L0
../src/ff-pic24-30-33.s:1100   .text:00000374 .L0
../src/ff-pic24-30-33.s:1099   .text:00000372 .L0
../src/ff-pic24-30-33.s:1101   .text:00000376 .L0
../src/ff-pic24-30-33.s:1100   .text:00000374 .L0
../src/ff-pic24-30-33.s:1102   .text:00000378 .L0
../src/ff-pic24-30-33.s:1101   .text:00000376 .L0
../src/ff-pic24-30-33.s:1126   .text:00000380 .L0
../src/ff-pic24-30-33.s:1102   .text:00000378 .L0
../src/ff-pic24-30-33.s:1127   .text:00000382 .L0
../src/ff-pic24-30-33.s:1126   .text:00000380 .L0
../src/ff-pic24-30-33.s:1136   .text:0000038c .L0
../src/ff-pic24-30-33.s:1127   .text:00000382 .L0
../src/ff-pic24-30-33.s:1137   .text:0000038e .L0
../src/ff-pic24-30-33.s:1136   .text:0000038c .L0
../src/ff-pic24-30-33.s:1152   .text:00000396 .L0
../src/ff-pic24-30-33.s:1137   .text:0000038e .L0
../src/ff-pic24-30-33.s:1153   .text:00000398 .L0
../src/ff-pic24-30-33.s:1152   .text:00000396 .L0
../src/ff-pic24-30-33.s:1154   .text:0000039a .L0
../src/ff-pic24-30-33.s:1153   .text:00000398 .L0
../src/ff-pic24-30-33.s:1155   .text:0000039c .L0
../src/ff-pic24-30-33.s:1154   .text:0000039a .L0
../src/ff-pic24-30-33.s:1164   .text:000003a4 .L0
../src/ff-pic24-30-33.s:1155   .text:0000039c .L0
../src/ff-pic24-30-33.s:1165   .text:000003a6 .L0
../src/ff-pic24-30-33.s:1164   .text:000003a4 .L0
../src/ff-pic24-30-33.s:1166   .text:000003a8 .L0
../src/ff-pic24-30-33.s:1165   .text:000003a6 .L0
../src/ff-pic24-30-33.s:1173   .text:000003aa .L0
../src/ff-pic24-30-33.s:1166   .text:000003a8 .L0
../src/ff-pic24-30-33.s:1183   .text:000003b2 .L0
../src/ff-pic24-30-33.s:1173   .text:000003aa .L0
../src/ff-pic24-30-33.s:1184   .text:000003b4 .L0
../src/ff-pic24-30-33.s:1183   .text:000003b2 .L0
../src/ff-pic24-30-33.s:1185   .text:000003b6 .L0
../src/ff-pic24-30-33.s:1184   .text:000003b4 .L0
../src/ff-pic24-30-33.s:1186   .text:000003b8 .L0
../src/ff-pic24-30-33.s:1185   .text:000003b6 .L0
../src/ff-pic24-30-33.s:1195   .text:000003c0 .L0
../src/ff-pic24-30-33.s:1186   .text:000003b8 .L0
../src/ff-pic24-30-33.s:1196   .text:000003c2 .L0
../src/ff-pic24-30-33.s:1195   .text:000003c0 .L0
MPLAB ASM30 Listing:  ../src/ff-pic24-30-33.s 			page 213


../src/ff-pic24-30-33.s:1204   .text:000003d0 .L0
../src/ff-pic24-30-33.s:1196   .text:000003c2 .L0
../src/ff-pic24-30-33.s:1221   .text:000003e6 .L0
../src/ff-pic24-30-33.s:1204   .text:000003d0 .L0
../src/ff-pic24-30-33.s:1222   .text:000003e8 .L0
../src/ff-pic24-30-33.s:1221   .text:000003e6 .L0
../src/ff-pic24-30-33.s:1223   .text:000003ec .L0
../src/ff-pic24-30-33.s:1222   .text:000003e8 .L0
../src/ff-pic24-30-33.s:1224   .text:000003ee .L0
../src/ff-pic24-30-33.s:1223   .text:000003ec .L0
../src/ff-pic24-30-33.s:1233   .text:000003fa .L0
../src/ff-pic24-30-33.s:1224   .text:000003ee .L0
../src/ff-pic24-30-33.s:1234   .text:000003fc .L0
../src/ff-pic24-30-33.s:1233   .text:000003fa .L0
../src/ff-pic24-30-33.s:1235   .text:00000400 .L0
../src/ff-pic24-30-33.s:1234   .text:000003fc .L0
../src/ff-pic24-30-33.s:1236   .text:00000402 .L0
../src/ff-pic24-30-33.s:1235   .text:00000400 .L0
../src/ff-pic24-30-33.s:1245   .text:0000040e .L0
../src/ff-pic24-30-33.s:1236   .text:00000402 .L0
../src/ff-pic24-30-33.s:1246   .text:00000412 .L0
../src/ff-pic24-30-33.s:1245   .text:0000040e .L0
../src/ff-pic24-30-33.s:1247   .text:00000416 .L0
../src/ff-pic24-30-33.s:1246   .text:00000412 .L0
../src/ff-pic24-30-33.s:1248   .text:00000418 .L0
../src/ff-pic24-30-33.s:1247   .text:00000416 .L0
../src/ff-pic24-30-33.s:1257   .text:00000422 .L0
../src/ff-pic24-30-33.s:1248   .text:00000418 .L0
../src/ff-pic24-30-33.s:1258   .text:00000424 .L0
../src/ff-pic24-30-33.s:1257   .text:00000422 .L0
../src/ff-pic24-30-33.s:1259   .text:00000426 .L0
../src/ff-pic24-30-33.s:1258   .text:00000424 .L0
../src/ff-pic24-30-33.s:1260   .text:0000042a .L0
../src/ff-pic24-30-33.s:1259   .text:00000426 .L0
../src/ff-pic24-30-33.s:1261   .text:0000042c .L0
../src/ff-pic24-30-33.s:1260   .text:0000042a .L0
../src/ff-pic24-30-33.s:1262   .text:0000042e .L0
../src/ff-pic24-30-33.s:1261   .text:0000042c .L0
../src/ff-pic24-30-33.s:1272   .text:00000436 .L0
../src/ff-pic24-30-33.s:1262   .text:0000042e .L0
../src/ff-pic24-30-33.s:1273   .text:00000438 .L0
../src/ff-pic24-30-33.s:1272   .text:00000436 .L0
../src/ff-pic24-30-33.s:1274   .text:0000043a .L0
../src/ff-pic24-30-33.s:1273   .text:00000438 .L0
../src/ff-pic24-30-33.s:1275   .text:0000043e .L0
../src/ff-pic24-30-33.s:1274   .text:0000043a .L0
../src/ff-pic24-30-33.s:1276   .text:00000440 .L0
../src/ff-pic24-30-33.s:1275   .text:0000043e .L0
../src/ff-pic24-30-33.s:1277   .text:00000442 .L0
../src/ff-pic24-30-33.s:1276   .text:00000440 .L0
../src/ff-pic24-30-33.s:1278   .text:00000444 .L0
../src/ff-pic24-30-33.s:1277   .text:00000442 .L0
../src/ff-pic24-30-33.s:1279   .text:00000448 .L0
../src/ff-pic24-30-33.s:1278   .text:00000444 .L0
../src/ff-pic24-30-33.s:1280   .text:0000044a .L0
../src/ff-pic24-30-33.s:1279   .text:00000448 .L0
../src/ff-pic24-30-33.s:1281   .text:0000044e .L0
MPLAB ASM30 Listing:  ../src/ff-pic24-30-33.s 			page 214


../src/ff-pic24-30-33.s:1280   .text:0000044a .L0
../src/ff-pic24-30-33.s:1282   .text:00000450 .L0
../src/ff-pic24-30-33.s:1281   .text:0000044e .L0
../src/ff-pic24-30-33.s:1283   .text:00000452 .L0
../src/ff-pic24-30-33.s:1282   .text:00000450 .L0
../src/ff-pic24-30-33.s:1292   .text:0000045c .L0
../src/ff-pic24-30-33.s:1283   .text:00000452 .L0
../src/ff-pic24-30-33.s:1293   .text:0000045e .L0
../src/ff-pic24-30-33.s:1292   .text:0000045c .L0
../src/ff-pic24-30-33.s:1294   .text:00000462 .L0
../src/ff-pic24-30-33.s:1293   .text:0000045e .L0
../src/ff-pic24-30-33.s:1295   .text:00000464 .L0
../src/ff-pic24-30-33.s:1294   .text:00000462 .L0
../src/ff-pic24-30-33.s:1304   .text:0000046e .L0
../src/ff-pic24-30-33.s:1295   .text:00000464 .L0
../src/ff-pic24-30-33.s:1305   .text:00000470 .L0
../src/ff-pic24-30-33.s:1304   .text:0000046e .L0
../src/ff-pic24-30-33.s:1306   .text:00000474 .L0
../src/ff-pic24-30-33.s:1305   .text:00000470 .L0
../src/ff-pic24-30-33.s:1307   .text:00000476 .L0
../src/ff-pic24-30-33.s:1306   .text:00000474 .L0
../src/ff-pic24-30-33.s:1315   .text:00000480 .L0
../src/ff-pic24-30-33.s:1307   .text:00000476 .L0
../src/ff-pic24-30-33.s:1316   .text:00000482 .L0
../src/ff-pic24-30-33.s:1315   .text:00000480 .L0
../src/ff-pic24-30-33.s:1317   .text:00000486 .L0
../src/ff-pic24-30-33.s:1316   .text:00000482 .L0
../src/ff-pic24-30-33.s:1318   .text:00000488 .L0
../src/ff-pic24-30-33.s:1317   .text:00000486 .L0
../src/ff-pic24-30-33.s:1327   .text:00000492 .L0
../src/ff-pic24-30-33.s:1318   .text:00000488 .L0
../src/ff-pic24-30-33.s:1328   .text:00000494 .L0
../src/ff-pic24-30-33.s:1327   .text:00000492 .L0
../src/ff-pic24-30-33.s:1329   .text:00000498 .L0
../src/ff-pic24-30-33.s:1328   .text:00000494 .L0
../src/ff-pic24-30-33.s:1330   .text:0000049a .L0
../src/ff-pic24-30-33.s:1329   .text:00000498 .L0
../src/ff-pic24-30-33.s:1339   .text:000004a4 .L0
../src/ff-pic24-30-33.s:1330   .text:0000049a .L0
../src/ff-pic24-30-33.s:1340   .text:000004a6 .L0
../src/ff-pic24-30-33.s:1339   .text:000004a4 .L0
../src/ff-pic24-30-33.s:1341   .text:000004aa .L0
../src/ff-pic24-30-33.s:1340   .text:000004a6 .L0
../src/ff-pic24-30-33.s:1342   .text:000004ac .L0
../src/ff-pic24-30-33.s:1341   .text:000004aa .L0
../src/ff-pic24-30-33.s:1351   .text:000004b4 .L0
../src/ff-pic24-30-33.s:1342   .text:000004ac .L0
../src/ff-pic24-30-33.s:1352   .text:000004b6 .L0
../src/ff-pic24-30-33.s:1351   .text:000004b4 .L0
../src/ff-pic24-30-33.s:1353   .text:000004b8 .L0
../src/ff-pic24-30-33.s:1352   .text:000004b6 .L0
../src/ff-pic24-30-33.s:1354   .text:000004ba .L0
../src/ff-pic24-30-33.s:1353   .text:000004b8 .L0
../src/ff-pic24-30-33.s:1363   .text:000004c2 .L0
../src/ff-pic24-30-33.s:1354   .text:000004ba .L0
../src/ff-pic24-30-33.s:1364   .text:000004c4 .L0
../src/ff-pic24-30-33.s:1363   .text:000004c2 .L0
MPLAB ASM30 Listing:  ../src/ff-pic24-30-33.s 			page 215


../src/ff-pic24-30-33.s:1365   .text:000004c6 .L0
../src/ff-pic24-30-33.s:1364   .text:000004c4 .L0
../src/ff-pic24-30-33.s:1374   .text:000004ce .L0
../src/ff-pic24-30-33.s:1365   .text:000004c6 .L0
../src/ff-pic24-30-33.s:1376   .text:000004d0 .L0
../src/ff-pic24-30-33.s:1374   .text:000004ce .L0
../src/ff-pic24-30-33.s:1377   .text:000004d2 .L0
../src/ff-pic24-30-33.s:1376   .text:000004d0 .L0
../src/ff-pic24-30-33.s:1378   .text:000004d4 .L0
../src/ff-pic24-30-33.s:1377   .text:000004d2 .L0
../src/ff-pic24-30-33.s:1379   .text:000004d6 .L0
../src/ff-pic24-30-33.s:1378   .text:000004d4 .L0
../src/ff-pic24-30-33.s:1381   .text:000004d8 .L0
../src/ff-pic24-30-33.s:1379   .text:000004d6 .L0
../src/ff-pic24-30-33.s:1382   .text:000004da .L0
../src/ff-pic24-30-33.s:1381   .text:000004d8 .L0
../src/ff-pic24-30-33.s:1383   .text:000004dc .L0
../src/ff-pic24-30-33.s:1382   .text:000004da .L0
../src/ff-pic24-30-33.s:1384   .text:000004de .L0
../src/ff-pic24-30-33.s:1383   .text:000004dc .L0
../src/ff-pic24-30-33.s:1385   .text:000004e0 .L0
../src/ff-pic24-30-33.s:1384   .text:000004de .L0
../src/ff-pic24-30-33.s:1386   .text:000004e2 .L0
../src/ff-pic24-30-33.s:1385   .text:000004e0 .L0
../src/ff-pic24-30-33.s:1387   .text:000004e4 .L0
../src/ff-pic24-30-33.s:1386   .text:000004e2 .L0
../src/ff-pic24-30-33.s:1388   .text:000004e6 .L0
../src/ff-pic24-30-33.s:1387   .text:000004e4 .L0
../src/ff-pic24-30-33.s:1389   .text:000004e8 .L0
../src/ff-pic24-30-33.s:1388   .text:000004e6 .L0
../src/ff-pic24-30-33.s:1390   .text:000004ea .L0
../src/ff-pic24-30-33.s:1389   .text:000004e8 .L0
../src/ff-pic24-30-33.s:1391   .text:000004ec .L0
../src/ff-pic24-30-33.s:1390   .text:000004ea .L0
../src/ff-pic24-30-33.s:1392   .text:000004ee .L0
../src/ff-pic24-30-33.s:1391   .text:000004ec .L0
../src/ff-pic24-30-33.s:1395   .text:000004f0 .L0
../src/ff-pic24-30-33.s:1392   .text:000004ee .L0
../src/ff-pic24-30-33.s:1396   .text:000004f2 .L0
../src/ff-pic24-30-33.s:1395   .text:000004f0 .L0
../src/ff-pic24-30-33.s:1397   .text:000004f4 .L0
../src/ff-pic24-30-33.s:1396   .text:000004f2 .L0
../src/ff-pic24-30-33.s:1398   .text:000004f6 .L0
../src/ff-pic24-30-33.s:1397   .text:000004f4 .L0
../src/ff-pic24-30-33.s:1399   .text:000004f8 .L0
../src/ff-pic24-30-33.s:1398   .text:000004f6 .L0
../src/ff-pic24-30-33.s:1400   .text:000004fa .L0
../src/ff-pic24-30-33.s:1399   .text:000004f8 .L0
../src/ff-pic24-30-33.s:1401   .text:000004fc .L0
../src/ff-pic24-30-33.s:1400   .text:000004fa .L0
../src/ff-pic24-30-33.s:1403   .text:000004fe .L0
../src/ff-pic24-30-33.s:1401   .text:000004fc .L0
../src/ff-pic24-30-33.s:1412   .text:00000504 .L0
../src/ff-pic24-30-33.s:1403   .text:000004fe .L0
../src/ff-pic24-30-33.s:1413   .text:00000506 .L0
../src/ff-pic24-30-33.s:1412   .text:00000504 .L0
../src/ff-pic24-30-33.s:1414   .text:00000508 .L0
MPLAB ASM30 Listing:  ../src/ff-pic24-30-33.s 			page 216


../src/ff-pic24-30-33.s:1413   .text:00000506 .L0
../src/ff-pic24-30-33.s:1415   .text:0000050a .L0
../src/ff-pic24-30-33.s:1414   .text:00000508 .L0
../src/ff-pic24-30-33.s:1416   .text:0000050c .L0
../src/ff-pic24-30-33.s:1415   .text:0000050a .L0
../src/ff-pic24-30-33.s:1425   .text:00000514 .L0
../src/ff-pic24-30-33.s:1416   .text:0000050c .L0
../src/ff-pic24-30-33.s:1426   .text:00000516 .L0
../src/ff-pic24-30-33.s:1425   .text:00000514 .L0
../src/ff-pic24-30-33.s:1427   .text:00000518 .L0
../src/ff-pic24-30-33.s:1426   .text:00000516 .L0
../src/ff-pic24-30-33.s:1428   .text:0000051a .L0
../src/ff-pic24-30-33.s:1427   .text:00000518 .L0
../src/ff-pic24-30-33.s:1429   .text:0000051c .L0
../src/ff-pic24-30-33.s:1428   .text:0000051a .L0
../src/ff-pic24-30-33.s:1437   .text:00000528 .L0
../src/ff-pic24-30-33.s:1429   .text:0000051c .L0
../src/ff-pic24-30-33.s:1438   .text:0000052a .L0
../src/ff-pic24-30-33.s:1437   .text:00000528 .L0
../src/ff-pic24-30-33.s:1439   .text:0000052c .L0
../src/ff-pic24-30-33.s:1438   .text:0000052a .L0
../src/ff-pic24-30-33.s:1443   .text:0000052e .L0
../src/ff-pic24-30-33.s:1439   .text:0000052c .L0
../src/ff-pic24-30-33.s:1444   .text:00000530 .L0
../src/ff-pic24-30-33.s:1443   .text:0000052e .L0
../src/ff-pic24-30-33.s:1445   .text:00000532 .L0
../src/ff-pic24-30-33.s:1444   .text:00000530 .L0
../src/ff-pic24-30-33.s:1446   .text:00000534 .L0
../src/ff-pic24-30-33.s:1445   .text:00000532 .L0
../src/ff-pic24-30-33.s:1447   .text:00000536 .L0
../src/ff-pic24-30-33.s:1446   .text:00000534 .L0
../src/ff-pic24-30-33.s:1451   .text:00000538 .L0
../src/ff-pic24-30-33.s:1447   .text:00000536 .L0
../src/ff-pic24-30-33.s:1452   .text:0000053a .L0
../src/ff-pic24-30-33.s:1451   .text:00000538 .L0
../src/ff-pic24-30-33.s:1454   .text:0000053c .L0
../src/ff-pic24-30-33.s:1452   .text:0000053a .L0
../src/ff-pic24-30-33.s:1456   .text:0000053e .L0
../src/ff-pic24-30-33.s:1454   .text:0000053c .L0
../src/ff-pic24-30-33.s:1458   .text:00000540 .L0
../src/ff-pic24-30-33.s:1456   .text:0000053e .L0
../src/ff-pic24-30-33.s:1459   .text:00000542 .L0
../src/ff-pic24-30-33.s:1458   .text:00000540 .L0
../src/ff-pic24-30-33.s:1461   .text:00000544 .L0
../src/ff-pic24-30-33.s:1459   .text:00000542 .L0
../src/ff-pic24-30-33.s:1464   .text:00000546 .L0
../src/ff-pic24-30-33.s:1461   .text:00000544 .L0
../src/ff-pic24-30-33.s:1465   .text:00000548 .L0
../src/ff-pic24-30-33.s:1464   .text:00000546 .L0
../src/ff-pic24-30-33.s:1466   .text:0000054a .L0
../src/ff-pic24-30-33.s:1465   .text:00000548 .L0
../src/ff-pic24-30-33.s:1467   .text:0000054c .L0
../src/ff-pic24-30-33.s:1466   .text:0000054a .L0
../src/ff-pic24-30-33.s:1468   .text:0000054e .L0
../src/ff-pic24-30-33.s:1467   .text:0000054c .L0
../src/ff-pic24-30-33.s:1469   .text:00000550 .L0
../src/ff-pic24-30-33.s:1468   .text:0000054e .L0
MPLAB ASM30 Listing:  ../src/ff-pic24-30-33.s 			page 217


../src/ff-pic24-30-33.s:1470   .text:00000552 .L0
../src/ff-pic24-30-33.s:1469   .text:00000550 .L0
../src/ff-pic24-30-33.s:1472   .text:00000554 .L0
../src/ff-pic24-30-33.s:1470   .text:00000552 .L0
../src/ff-pic24-30-33.s:1473   .text:00000556 .L0
../src/ff-pic24-30-33.s:1472   .text:00000554 .L0
../src/ff-pic24-30-33.s:1474   .text:00000558 .L0
../src/ff-pic24-30-33.s:1473   .text:00000556 .L0
../src/ff-pic24-30-33.s:1475   .text:0000055a .L0
../src/ff-pic24-30-33.s:1474   .text:00000558 .L0
../src/ff-pic24-30-33.s:1476   .text:0000055c .L0
../src/ff-pic24-30-33.s:1475   .text:0000055a .L0
../src/ff-pic24-30-33.s:1478   .text:0000055e .L0
../src/ff-pic24-30-33.s:1476   .text:0000055c .L0
../src/ff-pic24-30-33.s:1480   .text:00000560 .L0
../src/ff-pic24-30-33.s:1478   .text:0000055e .L0
../src/ff-pic24-30-33.s:1481   .text:00000562 .L0
../src/ff-pic24-30-33.s:1480   .text:00000560 .L0
../src/ff-pic24-30-33.s:1482   .text:00000564 .L0
../src/ff-pic24-30-33.s:1481   .text:00000562 .L0
../src/ff-pic24-30-33.s:1483   .text:00000566 .L0
../src/ff-pic24-30-33.s:1482   .text:00000564 .L0
../src/ff-pic24-30-33.s:1484   .text:00000568 .L0
../src/ff-pic24-30-33.s:1483   .text:00000566 .L0
../src/ff-pic24-30-33.s:1486   .text:0000056a .L0
../src/ff-pic24-30-33.s:1484   .text:00000568 .L0
../src/ff-pic24-30-33.s:1487   .text:0000056c .L0
../src/ff-pic24-30-33.s:1486   .text:0000056a .L0
../src/ff-pic24-30-33.s:1488   .text:0000056e .L0
../src/ff-pic24-30-33.s:1487   .text:0000056c .L0
../src/ff-pic24-30-33.s:1489   .text:00000570 .L0
../src/ff-pic24-30-33.s:1488   .text:0000056e .L0
../src/ff-pic24-30-33.s:1491   .text:00000572 .L0
../src/ff-pic24-30-33.s:1489   .text:00000570 .L0
../src/ff-pic24-30-33.s:1494   .text:00000574 .L0
../src/ff-pic24-30-33.s:1491   .text:00000572 .L0
../src/ff-pic24-30-33.s:1495   .text:00000576 .L0
../src/ff-pic24-30-33.s:1494   .text:00000574 .L0
../src/ff-pic24-30-33.s:1498   .text:00000578 .L0
../src/ff-pic24-30-33.s:1495   .text:00000576 .L0
../src/ff-pic24-30-33.s:1499   .text:0000057a .L0
../src/ff-pic24-30-33.s:1498   .text:00000578 .L0
../src/ff-pic24-30-33.s:1500   .text:0000057c .L0
../src/ff-pic24-30-33.s:1499   .text:0000057a .L0
../src/ff-pic24-30-33.s:1501   .text:0000057e .L0
../src/ff-pic24-30-33.s:1500   .text:0000057c .L0
../src/ff-pic24-30-33.s:1502   .text:00000580 .L0
../src/ff-pic24-30-33.s:1501   .text:0000057e .L0
../src/ff-pic24-30-33.s:1503   .text:00000582 .L0
../src/ff-pic24-30-33.s:1502   .text:00000580 .L0
../src/ff-pic24-30-33.s:1504   .text:00000584 .L0
../src/ff-pic24-30-33.s:1503   .text:00000582 .L0
../src/ff-pic24-30-33.s:1505   .text:00000586 .L0
../src/ff-pic24-30-33.s:1504   .text:00000584 .L0
../src/ff-pic24-30-33.s:1506   .text:00000588 .L0
../src/ff-pic24-30-33.s:1505   .text:00000586 .L0
../src/ff-pic24-30-33.s:1509   .text:0000058a .L0
MPLAB ASM30 Listing:  ../src/ff-pic24-30-33.s 			page 218


../src/ff-pic24-30-33.s:1506   .text:00000588 .L0
../src/ff-pic24-30-33.s:1510   .text:0000058c .L0
../src/ff-pic24-30-33.s:1509   .text:0000058a .L0
../src/ff-pic24-30-33.s:1511   .text:0000058e .L0
../src/ff-pic24-30-33.s:1510   .text:0000058c .L0
../src/ff-pic24-30-33.s:1512   .text:00000590 .L0
../src/ff-pic24-30-33.s:1511   .text:0000058e .L0
../src/ff-pic24-30-33.s:1515   .text:00000592 .L0
../src/ff-pic24-30-33.s:1512   .text:00000590 .L0
../src/ff-pic24-30-33.s:1516   .text:00000594 .L0
../src/ff-pic24-30-33.s:1515   .text:00000592 .L0
../src/ff-pic24-30-33.s:1517   .text:00000596 .L0
../src/ff-pic24-30-33.s:1516   .text:00000594 .L0
../src/ff-pic24-30-33.s:1518   .text:00000598 .L0
../src/ff-pic24-30-33.s:1517   .text:00000596 .L0
../src/ff-pic24-30-33.s:1519   .text:0000059a .L0
../src/ff-pic24-30-33.s:1518   .text:00000598 .L0
../src/ff-pic24-30-33.s:1520   .text:0000059c .L0
../src/ff-pic24-30-33.s:1519   .text:0000059a .L0
../src/ff-pic24-30-33.s:1521   .text:0000059e .L0
../src/ff-pic24-30-33.s:1520   .text:0000059c .L0
../src/ff-pic24-30-33.s:1522   .text:000005a0 .L0
../src/ff-pic24-30-33.s:1521   .text:0000059e .L0
../src/ff-pic24-30-33.s:1523   .text:000005a2 .L0
../src/ff-pic24-30-33.s:1522   .text:000005a0 .L0
../src/ff-pic24-30-33.s:1525   .text:000005a4 .L0
../src/ff-pic24-30-33.s:1523   .text:000005a2 .L0
../src/ff-pic24-30-33.s:1526   .text:000005a6 .L0
../src/ff-pic24-30-33.s:1525   .text:000005a4 .L0
../src/ff-pic24-30-33.s:1527   .text:000005a8 .L0
../src/ff-pic24-30-33.s:1526   .text:000005a6 .L0
../src/ff-pic24-30-33.s:1528   .text:000005aa .L0
../src/ff-pic24-30-33.s:1527   .text:000005a8 .L0
../src/ff-pic24-30-33.s:1529   .text:000005ac .L0
../src/ff-pic24-30-33.s:1528   .text:000005aa .L0
../src/ff-pic24-30-33.s:1530   .text:000005ae .L0
../src/ff-pic24-30-33.s:1529   .text:000005ac .L0
../src/ff-pic24-30-33.s:1536   .text:000005b0 .L0
../src/ff-pic24-30-33.s:1530   .text:000005ae .L0
../src/ff-pic24-30-33.s:1537   .text:000005b2 .L0
../src/ff-pic24-30-33.s:1536   .text:000005b0 .L0
../src/ff-pic24-30-33.s:1538   .text:000005b4 .L0
../src/ff-pic24-30-33.s:1537   .text:000005b2 .L0
../src/ff-pic24-30-33.s:1539   .text:000005b6 .L0
../src/ff-pic24-30-33.s:1538   .text:000005b4 .L0
../src/ff-pic24-30-33.s:1540   .text:000005b8 .L0
../src/ff-pic24-30-33.s:1539   .text:000005b6 .L0
../src/ff-pic24-30-33.s:1541   .text:000005ba .L0
../src/ff-pic24-30-33.s:1540   .text:000005b8 .L0
../src/ff-pic24-30-33.s:1544   .text:000005bc .L0
../src/ff-pic24-30-33.s:1541   .text:000005ba .L0
../src/ff-pic24-30-33.s:1546   .text:000005be .L0
../src/ff-pic24-30-33.s:1544   .text:000005bc .L0
../src/ff-pic24-30-33.s:1547   .text:000005c0 .L0
../src/ff-pic24-30-33.s:1546   .text:000005be .L0
../src/ff-pic24-30-33.s:1548   .text:000005c2 .L0
../src/ff-pic24-30-33.s:1547   .text:000005c0 .L0
MPLAB ASM30 Listing:  ../src/ff-pic24-30-33.s 			page 219


../src/ff-pic24-30-33.s:1549   .text:000005c4 .L0
../src/ff-pic24-30-33.s:1548   .text:000005c2 .L0
../src/ff-pic24-30-33.s:1550   .text:000005c6 .L0
../src/ff-pic24-30-33.s:1549   .text:000005c4 .L0
../src/ff-pic24-30-33.s:1551   .text:000005c8 .L0
../src/ff-pic24-30-33.s:1550   .text:000005c6 .L0
../src/ff-pic24-30-33.s:1552   .text:000005ca .L0
../src/ff-pic24-30-33.s:1551   .text:000005c8 .L0
../src/ff-pic24-30-33.s:1553   .text:000005cc .L0
../src/ff-pic24-30-33.s:1552   .text:000005ca .L0
../src/ff-pic24-30-33.s:1555   .text:000005ce .L0
../src/ff-pic24-30-33.s:1553   .text:000005cc .L0
../src/ff-pic24-30-33.s:1556   .text:000005d0 .L0
../src/ff-pic24-30-33.s:1555   .text:000005ce .L0
../src/ff-pic24-30-33.s:1557   .text:000005d2 .L0
../src/ff-pic24-30-33.s:1556   .text:000005d0 .L0
../src/ff-pic24-30-33.s:1630   .text:000005d4 .L0
../src/ff-pic24-30-33.s:1557   .text:000005d2 .L0
../src/ff-pic24-30-33.s:1631   .text:000005d6 .L0
../src/ff-pic24-30-33.s:1630   .text:000005d4 .L0
../src/ff-pic24-30-33.s:1632   .text:000005d8 .L0
../src/ff-pic24-30-33.s:1631   .text:000005d6 .L0
../src/ff-pic24-30-33.s:1633   .text:000005da .L0
../src/ff-pic24-30-33.s:1632   .text:000005d8 .L0
../src/ff-pic24-30-33.s:1634   .text:000005dc .L0
../src/ff-pic24-30-33.s:1633   .text:000005da .L0
../src/ff-pic24-30-33.s:1639   .text:000005de .L0
../src/ff-pic24-30-33.s:1634   .text:000005dc .L0
../src/ff-pic24-30-33.s:1640   .text:000005e0 .L0
../src/ff-pic24-30-33.s:1639   .text:000005de .L0
../src/ff-pic24-30-33.s:1641   .text:000005e2 .L0
../src/ff-pic24-30-33.s:1640   .text:000005e0 .L0
../src/ff-pic24-30-33.s:1642   .text:000005e4 .L0
../src/ff-pic24-30-33.s:1641   .text:000005e2 .L0
../src/ff-pic24-30-33.s:1643   .text:000005e6 .L0
../src/ff-pic24-30-33.s:1642   .text:000005e4 .L0
../src/ff-pic24-30-33.s:1644   .text:000005e8 .L0
../src/ff-pic24-30-33.s:1643   .text:000005e6 .L0
../src/ff-pic24-30-33.s:1647   .text:000005ea .L0
../src/ff-pic24-30-33.s:1644   .text:000005e8 .L0
../src/ff-pic24-30-33.s:1648   .text:000005ec .L0
../src/ff-pic24-30-33.s:1647   .text:000005ea .L0
../src/ff-pic24-30-33.s:1649   .text:000005ee .L0
../src/ff-pic24-30-33.s:1648   .text:000005ec .L0
../src/ff-pic24-30-33.s:1657   .text:000005f0 .L0
../src/ff-pic24-30-33.s:1649   .text:000005ee .L0
../src/ff-pic24-30-33.s:1661   .text:000005f2 .L0
../src/ff-pic24-30-33.s:1657   .text:000005f0 .L0
../src/ff-pic24-30-33.s:1662   .text:000005f4 .L0
../src/ff-pic24-30-33.s:1661   .text:000005f2 .L0
../src/ff-pic24-30-33.s:1663   .text:000005f6 .L0
../src/ff-pic24-30-33.s:1662   .text:000005f4 .L0
../src/ff-pic24-30-33.s:1664   .text:000005f8 .L0
../src/ff-pic24-30-33.s:1663   .text:000005f6 .L0
../src/ff-pic24-30-33.s:1666   .text:000005fa .L0
../src/ff-pic24-30-33.s:1664   .text:000005f8 .L0
../src/ff-pic24-30-33.s:1667   .text:000005fc .L0
MPLAB ASM30 Listing:  ../src/ff-pic24-30-33.s 			page 220


../src/ff-pic24-30-33.s:1666   .text:000005fa .L0
../src/ff-pic24-30-33.s:1668   .text:000005fe .L0
../src/ff-pic24-30-33.s:1667   .text:000005fc .L0
../src/ff-pic24-30-33.s:1669   .text:00000600 .L0
../src/ff-pic24-30-33.s:1668   .text:000005fe .L0
../src/ff-pic24-30-33.s:1670   .text:00000602 .L0
../src/ff-pic24-30-33.s:1669   .text:00000600 .L0
../src/ff-pic24-30-33.s:1671   .text:00000604 .L0
../src/ff-pic24-30-33.s:1670   .text:00000602 .L0
../src/ff-pic24-30-33.s:1673   .text:00000606 .L0
../src/ff-pic24-30-33.s:1671   .text:00000604 .L0
../src/ff-pic24-30-33.s:1674   .text:00000608 .L0
../src/ff-pic24-30-33.s:1673   .text:00000606 .L0
../src/ff-pic24-30-33.s:1675   .text:0000060a .L0
../src/ff-pic24-30-33.s:1674   .text:00000608 .L0
../src/ff-pic24-30-33.s:1676   .text:0000060c .L0
../src/ff-pic24-30-33.s:1675   .text:0000060a .L0
../src/ff-pic24-30-33.s:1678   .text:0000060e .L0
../src/ff-pic24-30-33.s:1676   .text:0000060c .L0
../src/ff-pic24-30-33.s:1679   .text:00000610 .L0
../src/ff-pic24-30-33.s:1678   .text:0000060e .L0
../src/ff-pic24-30-33.s:1680   .text:00000612 .L0
../src/ff-pic24-30-33.s:1679   .text:00000610 .L0
../src/ff-pic24-30-33.s:1681   .text:00000614 .L0
../src/ff-pic24-30-33.s:1680   .text:00000612 .L0
../src/ff-pic24-30-33.s:1682   .text:00000616 .L0
../src/ff-pic24-30-33.s:1681   .text:00000614 .L0
../src/ff-pic24-30-33.s:1690   .text:00000618 .L0
../src/ff-pic24-30-33.s:1682   .text:00000616 .L0
../src/ff-pic24-30-33.s:1691   .text:0000061a .L0
../src/ff-pic24-30-33.s:1690   .text:00000618 .L0
../src/ff-pic24-30-33.s:1692   .text:0000061c .L0
../src/ff-pic24-30-33.s:1691   .text:0000061a .L0
../src/ff-pic24-30-33.s:1693   .text:0000061e .L0
../src/ff-pic24-30-33.s:1692   .text:0000061c .L0
../src/ff-pic24-30-33.s:1694   .text:00000620 .L0
../src/ff-pic24-30-33.s:1693   .text:0000061e .L0
../src/ff-pic24-30-33.s:1695   .text:00000622 .L0
../src/ff-pic24-30-33.s:1694   .text:00000620 .L0
../src/ff-pic24-30-33.s:1696   .text:00000624 .L0
../src/ff-pic24-30-33.s:1695   .text:00000622 .L0
../src/ff-pic24-30-33.s:1704   .text:0000062c .L0
../src/ff-pic24-30-33.s:1696   .text:00000624 .L0
../src/ff-pic24-30-33.s:1705   .text:0000062e .L0
../src/ff-pic24-30-33.s:1704   .text:0000062c .L0
../src/ff-pic24-30-33.s:1712   .text:00000636 .L0
../src/ff-pic24-30-33.s:1705   .text:0000062e .L0
../src/ff-pic24-30-33.s:1713   .text:00000638 .L0
../src/ff-pic24-30-33.s:1712   .text:00000636 .L0
../src/ff-pic24-30-33.s:1716   .text:0000063a .L0
../src/ff-pic24-30-33.s:1713   .text:00000638 .L0
../src/ff-pic24-30-33.s:1717   .text:0000063c .L0
../src/ff-pic24-30-33.s:1716   .text:0000063a .L0
../src/ff-pic24-30-33.s:1718   .text:0000063e .L0
../src/ff-pic24-30-33.s:1717   .text:0000063c .L0
../src/ff-pic24-30-33.s:1725   .text:00000646 .L0
../src/ff-pic24-30-33.s:1718   .text:0000063e .L0
MPLAB ASM30 Listing:  ../src/ff-pic24-30-33.s 			page 221


../src/ff-pic24-30-33.s:1726   .text:00000648 .L0
../src/ff-pic24-30-33.s:1725   .text:00000646 .L0
../src/ff-pic24-30-33.s:1733   .text:00000650 .L0
../src/ff-pic24-30-33.s:1726   .text:00000648 .L0
../src/ff-pic24-30-33.s:1734   .text:00000652 .L0
../src/ff-pic24-30-33.s:1733   .text:00000650 .L0
../src/ff-pic24-30-33.s:1762   .text:00000658 .L0
../src/ff-pic24-30-33.s:1734   .text:00000652 .L0
../src/ff-pic24-30-33.s:1763   .text:0000065a .L0
../src/ff-pic24-30-33.s:1762   .text:00000658 .L0
../src/ff-pic24-30-33.s:1764   .text:0000065c .L0
../src/ff-pic24-30-33.s:1763   .text:0000065a .L0
../src/ff-pic24-30-33.s:1765   .text:0000065e .L0
../src/ff-pic24-30-33.s:1764   .text:0000065c .L0
../src/ff-pic24-30-33.s:1766   .text:00000660 .L0
../src/ff-pic24-30-33.s:1765   .text:0000065e .L0
../src/ff-pic24-30-33.s:1767   .text:00000662 .L0
../src/ff-pic24-30-33.s:1766   .text:00000660 .L0
../src/ff-pic24-30-33.s:1774   .text:00000664 .L0
../src/ff-pic24-30-33.s:1767   .text:00000662 .L0
../src/ff-pic24-30-33.s:1782   .text:0000066c .L0
../src/ff-pic24-30-33.s:1774   .text:00000664 .L0
../src/ff-pic24-30-33.s:1783   .text:0000066e .L0
../src/ff-pic24-30-33.s:1782   .text:0000066c .L0
../src/ff-pic24-30-33.s:1784   .text:00000670 .L0
../src/ff-pic24-30-33.s:1783   .text:0000066e .L0
../src/ff-pic24-30-33.s:1785   .text:00000672 .L0
../src/ff-pic24-30-33.s:1784   .text:00000670 .L0
../src/ff-pic24-30-33.s:1786   .text:00000674 .L0
../src/ff-pic24-30-33.s:1785   .text:00000672 .L0
../src/ff-pic24-30-33.s:1787   .text:00000676 .L0
../src/ff-pic24-30-33.s:1786   .text:00000674 .L0
../src/ff-pic24-30-33.s:1788   .text:00000678 .L0
../src/ff-pic24-30-33.s:1787   .text:00000676 .L0
../src/ff-pic24-30-33.s:1795   .text:0000067a .L0
../src/ff-pic24-30-33.s:1788   .text:00000678 .L0
../src/ff-pic24-30-33.s:1803   .text:00000680 .L0
../src/ff-pic24-30-33.s:1795   .text:0000067a .L0
../src/ff-pic24-30-33.s:1804   .text:00000682 .L0
../src/ff-pic24-30-33.s:1803   .text:00000680 .L0
../src/ff-pic24-30-33.s:1805   .text:00000684 .L0
../src/ff-pic24-30-33.s:1804   .text:00000682 .L0
../src/ff-pic24-30-33.s:1806   .text:00000686 .L0
../src/ff-pic24-30-33.s:1805   .text:00000684 .L0
../src/ff-pic24-30-33.s:1807   .text:00000688 .L0
../src/ff-pic24-30-33.s:1806   .text:00000686 .L0
../src/ff-pic24-30-33.s:1808   .text:0000068a .L0
../src/ff-pic24-30-33.s:1807   .text:00000688 .L0
../src/ff-pic24-30-33.s:1815   .text:0000068c .L0
../src/ff-pic24-30-33.s:1808   .text:0000068a .L0
../src/ff-pic24-30-33.s:1823   .text:00000694 .L0
../src/ff-pic24-30-33.s:1815   .text:0000068c .L0
../src/ff-pic24-30-33.s:1824   .text:00000696 .L0
../src/ff-pic24-30-33.s:1823   .text:00000694 .L0
../src/ff-pic24-30-33.s:1825   .text:00000698 .L0
../src/ff-pic24-30-33.s:1824   .text:00000696 .L0
../src/ff-pic24-30-33.s:1826   .text:0000069a .L0
MPLAB ASM30 Listing:  ../src/ff-pic24-30-33.s 			page 222


../src/ff-pic24-30-33.s:1825   .text:00000698 .L0
../src/ff-pic24-30-33.s:1827   .text:0000069c .L0
../src/ff-pic24-30-33.s:1826   .text:0000069a .L0
../src/ff-pic24-30-33.s:1828   .text:0000069e .L0
../src/ff-pic24-30-33.s:1827   .text:0000069c .L0
../src/ff-pic24-30-33.s:1829   .text:000006a0 .L0
../src/ff-pic24-30-33.s:1828   .text:0000069e .L0
../src/ff-pic24-30-33.s:1836   .text:000006a2 .L0
../src/ff-pic24-30-33.s:1829   .text:000006a0 .L0
../src/ff-pic24-30-33.s:1844   .text:000006ac .L0
../src/ff-pic24-30-33.s:1836   .text:000006a2 .L0
../src/ff-pic24-30-33.s:1845   .text:000006ae .L0
../src/ff-pic24-30-33.s:1844   .text:000006ac .L0
../src/ff-pic24-30-33.s:1846   .text:000006b0 .L0
../src/ff-pic24-30-33.s:1845   .text:000006ae .L0
../src/ff-pic24-30-33.s:1847   .text:000006b2 .L0
../src/ff-pic24-30-33.s:1846   .text:000006b0 .L0
../src/ff-pic24-30-33.s:1855   .text:000006bc .L0
../src/ff-pic24-30-33.s:1847   .text:000006b2 .L0
../src/ff-pic24-30-33.s:1856   .text:000006be .L0
../src/ff-pic24-30-33.s:1855   .text:000006bc .L0
../src/ff-pic24-30-33.s:1857   .text:000006c0 .L0
../src/ff-pic24-30-33.s:1856   .text:000006be .L0
../src/ff-pic24-30-33.s:1858   .text:000006c2 .L0
../src/ff-pic24-30-33.s:1857   .text:000006c0 .L0
../src/ff-pic24-30-33.s:1866   .text:000006cc .L0
../src/ff-pic24-30-33.s:1858   .text:000006c2 .L0
../src/ff-pic24-30-33.s:1867   .text:000006ce .L0
../src/ff-pic24-30-33.s:1866   .text:000006cc .L0
../src/ff-pic24-30-33.s:1868   .text:000006d0 .L0
../src/ff-pic24-30-33.s:1867   .text:000006ce .L0
../src/ff-pic24-30-33.s:1869   .text:000006d2 .L0
../src/ff-pic24-30-33.s:1868   .text:000006d0 .L0
../src/ff-pic24-30-33.s:1870   .text:000006d4 .L0
../src/ff-pic24-30-33.s:1869   .text:000006d2 .L0
../src/ff-pic24-30-33.s:1879   .text:000006de .L0
../src/ff-pic24-30-33.s:1870   .text:000006d4 .L0
../src/ff-pic24-30-33.s:1880   .text:000006e0 .L0
../src/ff-pic24-30-33.s:1879   .text:000006de .L0
../src/ff-pic24-30-33.s:1881   .text:000006e2 .L0
../src/ff-pic24-30-33.s:1880   .text:000006e0 .L0
../src/ff-pic24-30-33.s:1882   .text:000006e4 .L0
../src/ff-pic24-30-33.s:1881   .text:000006e2 .L0
../src/ff-pic24-30-33.s:1883   .text:000006e6 .L0
../src/ff-pic24-30-33.s:1882   .text:000006e4 .L0
../src/ff-pic24-30-33.s:1884   .text:000006e8 .L0
../src/ff-pic24-30-33.s:1883   .text:000006e6 .L0
../src/ff-pic24-30-33.s:1885   .text:000006ea .L0
../src/ff-pic24-30-33.s:1884   .text:000006e8 .L0
../src/ff-pic24-30-33.s:1886   .text:000006ec .L0
../src/ff-pic24-30-33.s:1885   .text:000006ea .L0
../src/ff-pic24-30-33.s:1896   .text:000006f6 .L0
../src/ff-pic24-30-33.s:1886   .text:000006ec .L0
../src/ff-pic24-30-33.s:1897   .text:000006f8 .L0
../src/ff-pic24-30-33.s:1896   .text:000006f6 .L0
../src/ff-pic24-30-33.s:1898   .text:000006fa .L0
../src/ff-pic24-30-33.s:1897   .text:000006f8 .L0
MPLAB ASM30 Listing:  ../src/ff-pic24-30-33.s 			page 223


../src/ff-pic24-30-33.s:1899   .text:000006fc .L0
../src/ff-pic24-30-33.s:1898   .text:000006fa .L0
../src/ff-pic24-30-33.s:1900   .text:000006fe .L0
../src/ff-pic24-30-33.s:1899   .text:000006fc .L0
../src/ff-pic24-30-33.s:1901   .text:00000700 .L0
../src/ff-pic24-30-33.s:1900   .text:000006fe .L0
../src/ff-pic24-30-33.s:1902   .text:00000702 .L0
../src/ff-pic24-30-33.s:1901   .text:00000700 .L0
../src/ff-pic24-30-33.s:1903   .text:00000704 .L0
../src/ff-pic24-30-33.s:1902   .text:00000702 .L0
../src/ff-pic24-30-33.s:1912   .text:0000070e .L0
../src/ff-pic24-30-33.s:1903   .text:00000704 .L0
../src/ff-pic24-30-33.s:1913   .text:00000710 .L0
../src/ff-pic24-30-33.s:1912   .text:0000070e .L0
../src/ff-pic24-30-33.s:1914   .text:00000712 .L0
../src/ff-pic24-30-33.s:1913   .text:00000710 .L0
../src/ff-pic24-30-33.s:1915   .text:00000714 .L0
../src/ff-pic24-30-33.s:1914   .text:00000712 .L0
../src/ff-pic24-30-33.s:1916   .text:00000716 .L0
../src/ff-pic24-30-33.s:1915   .text:00000714 .L0
../src/ff-pic24-30-33.s:1917   .text:00000718 .L0
../src/ff-pic24-30-33.s:1916   .text:00000716 .L0
../src/ff-pic24-30-33.s:1918   .text:0000071a .L0
../src/ff-pic24-30-33.s:1917   .text:00000718 .L0
../src/ff-pic24-30-33.s:1919   .text:0000071c .L0
../src/ff-pic24-30-33.s:1918   .text:0000071a .L0
../src/ff-pic24-30-33.s:1920   .text:0000071e .L0
../src/ff-pic24-30-33.s:1919   .text:0000071c .L0
../src/ff-pic24-30-33.s:1921   .text:00000720 .L0
../src/ff-pic24-30-33.s:1920   .text:0000071e .L0
../src/ff-pic24-30-33.s:1929   .text:0000072c .L0
../src/ff-pic24-30-33.s:1921   .text:00000720 .L0
../src/ff-pic24-30-33.s:1930   .text:0000072e .L0
../src/ff-pic24-30-33.s:1929   .text:0000072c .L0
../src/ff-pic24-30-33.s:1931   .text:00000730 .L0
../src/ff-pic24-30-33.s:1930   .text:0000072e .L0
../src/ff-pic24-30-33.s:1932   .text:00000732 .L0
../src/ff-pic24-30-33.s:1931   .text:00000730 .L0
../src/ff-pic24-30-33.s:1933   .text:00000734 .L0
../src/ff-pic24-30-33.s:1932   .text:00000732 .L0
../src/ff-pic24-30-33.s:1941   .text:00000740 .L0
../src/ff-pic24-30-33.s:1933   .text:00000734 .L0
../src/ff-pic24-30-33.s:1942   .text:00000742 .L0
../src/ff-pic24-30-33.s:1941   .text:00000740 .L0
../src/ff-pic24-30-33.s:1943   .text:00000744 .L0
../src/ff-pic24-30-33.s:1942   .text:00000742 .L0
../src/ff-pic24-30-33.s:1944   .text:00000746 .L0
../src/ff-pic24-30-33.s:1943   .text:00000744 .L0
../src/ff-pic24-30-33.s:1945   .text:00000748 .L0
../src/ff-pic24-30-33.s:1944   .text:00000746 .L0
../src/ff-pic24-30-33.s:1953   .text:00000750 .L0
../src/ff-pic24-30-33.s:1945   .text:00000748 .L0
../src/ff-pic24-30-33.s:1954   .text:00000752 .L0
../src/ff-pic24-30-33.s:1953   .text:00000750 .L0
../src/ff-pic24-30-33.s:1955   .text:00000754 .L0
../src/ff-pic24-30-33.s:1954   .text:00000752 .L0
../src/ff-pic24-30-33.s:1956   .text:00000756 .L0
MPLAB ASM30 Listing:  ../src/ff-pic24-30-33.s 			page 224


../src/ff-pic24-30-33.s:1955   .text:00000754 .L0
../src/ff-pic24-30-33.s:1957   .text:00000758 .L0
../src/ff-pic24-30-33.s:1956   .text:00000756 .L0
../src/ff-pic24-30-33.s:1958   .text:0000075a .L0
../src/ff-pic24-30-33.s:1957   .text:00000758 .L0
../src/ff-pic24-30-33.s:1959   .text:0000075c .L0
../src/ff-pic24-30-33.s:1958   .text:0000075a .L0
../src/ff-pic24-30-33.s:1960   .text:0000075e .L0
../src/ff-pic24-30-33.s:1959   .text:0000075c .L0
../src/ff-pic24-30-33.s:1961   .text:00000760 .L0
../src/ff-pic24-30-33.s:1960   .text:0000075e .L0
../src/ff-pic24-30-33.s:1963   .text:00000762 .L0
../src/ff-pic24-30-33.s:1961   .text:00000760 .L0
../src/ff-pic24-30-33.s:1964   .text:00000764 .L0
../src/ff-pic24-30-33.s:1963   .text:00000762 .L0
../src/ff-pic24-30-33.s:1965   .text:00000766 .L0
../src/ff-pic24-30-33.s:1964   .text:00000764 .L0
../src/ff-pic24-30-33.s:1966   .text:00000768 .L0
../src/ff-pic24-30-33.s:1965   .text:00000766 .L0
../src/ff-pic24-30-33.s:1967   .text:0000076a .L0
../src/ff-pic24-30-33.s:1966   .text:00000768 .L0
../src/ff-pic24-30-33.s:1968   .text:0000076c .L0
../src/ff-pic24-30-33.s:1967   .text:0000076a .L0
../src/ff-pic24-30-33.s:1969   .text:0000076e .L0
../src/ff-pic24-30-33.s:1968   .text:0000076c .L0
../src/ff-pic24-30-33.s:1970   .text:00000770 .L0
../src/ff-pic24-30-33.s:1969   .text:0000076e .L0
../src/ff-pic24-30-33.s:1971   .text:00000772 .L0
../src/ff-pic24-30-33.s:1970   .text:00000770 .L0
../src/ff-pic24-30-33.s:1972   .text:00000774 .L0
../src/ff-pic24-30-33.s:1971   .text:00000772 .L0
../src/ff-pic24-30-33.s:1973   .text:00000776 .L0
../src/ff-pic24-30-33.s:1972   .text:00000774 .L0
../src/ff-pic24-30-33.s:1974   .text:00000778 .L0
../src/ff-pic24-30-33.s:1973   .text:00000776 .L0
../src/ff-pic24-30-33.s:1975   .text:0000077a .L0
../src/ff-pic24-30-33.s:1974   .text:00000778 .L0
../src/ff-pic24-30-33.s:1977   .text:0000077c .L0
../src/ff-pic24-30-33.s:1975   .text:0000077a .L0
../src/ff-pic24-30-33.s:1978   .text:0000077e .L0
../src/ff-pic24-30-33.s:1977   .text:0000077c .L0
../src/ff-pic24-30-33.s:1988   .text:00000788 .L0
../src/ff-pic24-30-33.s:1978   .text:0000077e .L0
../src/ff-pic24-30-33.s:1989   .text:0000078a .L0
../src/ff-pic24-30-33.s:1988   .text:00000788 .L0
../src/ff-pic24-30-33.s:1990   .text:0000078c .L0
../src/ff-pic24-30-33.s:1989   .text:0000078a .L0
../src/ff-pic24-30-33.s:1991   .text:0000078e .L0
../src/ff-pic24-30-33.s:1990   .text:0000078c .L0
../src/ff-pic24-30-33.s:1992   .text:00000790 .L0
../src/ff-pic24-30-33.s:1991   .text:0000078e .L0
../src/ff-pic24-30-33.s:1994   .text:00000792 .L0
../src/ff-pic24-30-33.s:1992   .text:00000790 .L0
../src/ff-pic24-30-33.s:1995   .text:00000794 .L0
../src/ff-pic24-30-33.s:1994   .text:00000792 .L0
../src/ff-pic24-30-33.s:1996   .text:00000796 .L0
../src/ff-pic24-30-33.s:1995   .text:00000794 .L0
MPLAB ASM30 Listing:  ../src/ff-pic24-30-33.s 			page 225


../src/ff-pic24-30-33.s:1997   .text:00000798 .L0
../src/ff-pic24-30-33.s:1996   .text:00000796 .L0
../src/ff-pic24-30-33.s:1998   .text:0000079a .L0
../src/ff-pic24-30-33.s:1997   .text:00000798 .L0
../src/ff-pic24-30-33.s:1999   .text:0000079c .L0
../src/ff-pic24-30-33.s:1998   .text:0000079a .L0
../src/ff-pic24-30-33.s:2000   .text:0000079e .L0
../src/ff-pic24-30-33.s:1999   .text:0000079c .L0
../src/ff-pic24-30-33.s:2001   .text:000007a0 .L0
../src/ff-pic24-30-33.s:2000   .text:0000079e .L0
../src/ff-pic24-30-33.s:2003   .text:000007a2 .L0
../src/ff-pic24-30-33.s:2001   .text:000007a0 .L0
../src/ff-pic24-30-33.s:2004   .text:000007a4 .L0
../src/ff-pic24-30-33.s:2003   .text:000007a2 .L0
../src/ff-pic24-30-33.s:2005   .text:000007a6 .L0
../src/ff-pic24-30-33.s:2004   .text:000007a4 .L0
../src/ff-pic24-30-33.s:2007   .text:000007a8 .L0
../src/ff-pic24-30-33.s:2005   .text:000007a6 .L0
../src/ff-pic24-30-33.s:2008   .text:000007aa .L0
../src/ff-pic24-30-33.s:2007   .text:000007a8 .L0
../src/ff-pic24-30-33.s:2009   .text:000007ac .L0
../src/ff-pic24-30-33.s:2008   .text:000007aa .L0
../src/ff-pic24-30-33.s:2017   .text:000007b6 .L0
../src/ff-pic24-30-33.s:2009   .text:000007ac .L0
../src/ff-pic24-30-33.s:2018   .text:000007b8 .L0
../src/ff-pic24-30-33.s:2017   .text:000007b6 .L0
../src/ff-pic24-30-33.s:2019   .text:000007ba .L0
../src/ff-pic24-30-33.s:2018   .text:000007b8 .L0
../src/ff-pic24-30-33.s:2020   .text:000007bc .L0
../src/ff-pic24-30-33.s:2019   .text:000007ba .L0
../src/ff-pic24-30-33.s:2021   .text:000007be .L0
../src/ff-pic24-30-33.s:2020   .text:000007bc .L0
../src/ff-pic24-30-33.s:2023   .text:000007c0 .L0
../src/ff-pic24-30-33.s:2021   .text:000007be .L0
../src/ff-pic24-30-33.s:2024   .text:000007c2 .L0
../src/ff-pic24-30-33.s:2023   .text:000007c0 .L0
../src/ff-pic24-30-33.s:2025   .text:000007c4 .L0
../src/ff-pic24-30-33.s:2024   .text:000007c2 .L0
../src/ff-pic24-30-33.s:2026   .text:000007c6 .L0
../src/ff-pic24-30-33.s:2025   .text:000007c4 .L0
../src/ff-pic24-30-33.s:2027   .text:000007c8 .L0
../src/ff-pic24-30-33.s:2026   .text:000007c6 .L0
../src/ff-pic24-30-33.s:2029   .text:000007ca .L0
../src/ff-pic24-30-33.s:2027   .text:000007c8 .L0
../src/ff-pic24-30-33.s:2030   .text:000007cc .L0
../src/ff-pic24-30-33.s:2029   .text:000007ca .L0
../src/ff-pic24-30-33.s:2031   .text:000007ce .L0
../src/ff-pic24-30-33.s:2030   .text:000007cc .L0
../src/ff-pic24-30-33.s:2032   .text:000007d0 .L0
../src/ff-pic24-30-33.s:2031   .text:000007ce .L0
../src/ff-pic24-30-33.s:2033   .text:000007d2 .L0
../src/ff-pic24-30-33.s:2032   .text:000007d0 .L0
../src/ff-pic24-30-33.s:2035   .text:000007d4 .L0
../src/ff-pic24-30-33.s:2033   .text:000007d2 .L0
../src/ff-pic24-30-33.s:2036   .text:000007d6 .L0
../src/ff-pic24-30-33.s:2035   .text:000007d4 .L0
../src/ff-pic24-30-33.s:2037   .text:000007d8 .L0
MPLAB ASM30 Listing:  ../src/ff-pic24-30-33.s 			page 226


../src/ff-pic24-30-33.s:2036   .text:000007d6 .L0
../src/ff-pic24-30-33.s:2045   .text:000007e2 .L0
../src/ff-pic24-30-33.s:2037   .text:000007d8 .L0
../src/ff-pic24-30-33.s:2046   .text:000007e4 .L0
../src/ff-pic24-30-33.s:2045   .text:000007e2 .L0
../src/ff-pic24-30-33.s:2054   .text:000007ee .L0
../src/ff-pic24-30-33.s:2046   .text:000007e4 .L0
../src/ff-pic24-30-33.s:2055   .text:000007f0 .L0
../src/ff-pic24-30-33.s:2054   .text:000007ee .L0
../src/ff-pic24-30-33.s:2063   .text:000007fc .L0
../src/ff-pic24-30-33.s:2055   .text:000007f0 .L0
../src/ff-pic24-30-33.s:2064   .text:000007fe .L0
../src/ff-pic24-30-33.s:2063   .text:000007fc .L0
../src/ff-pic24-30-33.s:2072   .text:0000080a .L0
../src/ff-pic24-30-33.s:2064   .text:000007fe .L0
../src/ff-pic24-30-33.s:2081   .text:00000816 .L0
../src/ff-pic24-30-33.s:2072   .text:0000080a .L0
../src/ff-pic24-30-33.s:2090   .text:00000822 .L0
../src/ff-pic24-30-33.s:2081   .text:00000816 .L0
../src/ff-pic24-30-33.s:2100   .text:0000082c .L0
../src/ff-pic24-30-33.s:2090   .text:00000822 .L0
../src/ff-pic24-30-33.s:2101   .text:0000082e .L0
../src/ff-pic24-30-33.s:2100   .text:0000082c .L0
../src/ff-pic24-30-33.s:2102   .text:00000830 .L0
../src/ff-pic24-30-33.s:2101   .text:0000082e .L0
../src/ff-pic24-30-33.s:2103   .text:00000832 .L0
../src/ff-pic24-30-33.s:2102   .text:00000830 .L0
../src/ff-pic24-30-33.s:2104   .text:00000834 .L0
../src/ff-pic24-30-33.s:2103   .text:00000832 .L0
../src/ff-pic24-30-33.s:2105   .text:00000836 .L0
../src/ff-pic24-30-33.s:2104   .text:00000834 .L0
../src/ff-pic24-30-33.s:2106   .text:00000838 .L0
../src/ff-pic24-30-33.s:2105   .text:00000836 .L0
../src/ff-pic24-30-33.s:2107   .text:0000083a .L0
../src/ff-pic24-30-33.s:2106   .text:00000838 .L0
../src/ff-pic24-30-33.s:2108   .text:0000083c .L0
../src/ff-pic24-30-33.s:2107   .text:0000083a .L0
../src/ff-pic24-30-33.s:2109   .text:0000083e .L0
../src/ff-pic24-30-33.s:2108   .text:0000083c .L0
../src/ff-pic24-30-33.s:2110   .text:00000840 .L0
../src/ff-pic24-30-33.s:2109   .text:0000083e .L0
../src/ff-pic24-30-33.s:2112   .text:00000842 .L0
../src/ff-pic24-30-33.s:2110   .text:00000840 .L0
../src/ff-pic24-30-33.s:2113   .text:00000844 .L0
../src/ff-pic24-30-33.s:2112   .text:00000842 .L0
../src/ff-pic24-30-33.s:2114   .text:00000846 .L0
../src/ff-pic24-30-33.s:2113   .text:00000844 .L0
../src/ff-pic24-30-33.s:2115   .text:00000848 .L0
../src/ff-pic24-30-33.s:2114   .text:00000846 .L0
../src/ff-pic24-30-33.s:2124   .text:00000852 .L0
../src/ff-pic24-30-33.s:2115   .text:00000848 .L0
../src/ff-pic24-30-33.s:2125   .text:00000854 .L0
../src/ff-pic24-30-33.s:2124   .text:00000852 .L0
../src/ff-pic24-30-33.s:2126   .text:00000856 .L0
../src/ff-pic24-30-33.s:2125   .text:00000854 .L0
../src/ff-pic24-30-33.s:2127   .text:00000858 .L0
../src/ff-pic24-30-33.s:2126   .text:00000856 .L0
MPLAB ASM30 Listing:  ../src/ff-pic24-30-33.s 			page 227


../src/ff-pic24-30-33.s:2128   .text:0000085a .L0
../src/ff-pic24-30-33.s:2127   .text:00000858 .L0
../src/ff-pic24-30-33.s:2129   .text:0000085c .L0
../src/ff-pic24-30-33.s:2128   .text:0000085a .L0
../src/ff-pic24-30-33.s:2130   .text:0000085e .L0
../src/ff-pic24-30-33.s:2129   .text:0000085c .L0
../src/ff-pic24-30-33.s:2131   .text:00000860 .L0
../src/ff-pic24-30-33.s:2130   .text:0000085e .L0
../src/ff-pic24-30-33.s:2140   .text:00000868 .L0
../src/ff-pic24-30-33.s:2131   .text:00000860 .L0
../src/ff-pic24-30-33.s:2141   .text:0000086a .L0
../src/ff-pic24-30-33.s:2140   .text:00000868 .L0
../src/ff-pic24-30-33.s:2142   .text:0000086c .L0
../src/ff-pic24-30-33.s:2141   .text:0000086a .L0
../src/ff-pic24-30-33.s:2143   .text:0000086e .L0
../src/ff-pic24-30-33.s:2142   .text:0000086c .L0
../src/ff-pic24-30-33.s:2144   .text:00000870 .L0
../src/ff-pic24-30-33.s:2143   .text:0000086e .L0
../src/ff-pic24-30-33.s:2145   .text:00000872 .L0
../src/ff-pic24-30-33.s:2144   .text:00000870 .L0
../src/ff-pic24-30-33.s:2146   .text:00000874 .L0
../src/ff-pic24-30-33.s:2145   .text:00000872 .L0
../src/ff-pic24-30-33.s:2147   .text:00000876 .L0
../src/ff-pic24-30-33.s:2146   .text:00000874 .L0
../src/ff-pic24-30-33.s:2148   .text:00000878 .L0
../src/ff-pic24-30-33.s:2147   .text:00000876 .L0
../src/ff-pic24-30-33.s:2149   .text:0000087a .L0
../src/ff-pic24-30-33.s:2148   .text:00000878 .L0
../src/ff-pic24-30-33.s:2150   .text:0000087c .L0
../src/ff-pic24-30-33.s:2149   .text:0000087a .L0
../src/ff-pic24-30-33.s:2152   .text:0000087e .L0
../src/ff-pic24-30-33.s:2150   .text:0000087c .L0
../src/ff-pic24-30-33.s:2153   .text:00000880 .L0
../src/ff-pic24-30-33.s:2152   .text:0000087e .L0
../src/ff-pic24-30-33.s:2154   .text:00000882 .L0
../src/ff-pic24-30-33.s:2153   .text:00000880 .L0
../src/ff-pic24-30-33.s:2155   .text:00000884 .L0
../src/ff-pic24-30-33.s:2154   .text:00000882 .L0
../src/ff-pic24-30-33.s:2164   .text:0000088e .L0
../src/ff-pic24-30-33.s:2155   .text:00000884 .L0
../src/ff-pic24-30-33.s:2165   .text:00000890 .L0
../src/ff-pic24-30-33.s:2164   .text:0000088e .L0
../src/ff-pic24-30-33.s:2166   .text:00000892 .L0
../src/ff-pic24-30-33.s:2165   .text:00000890 .L0
../src/ff-pic24-30-33.s:2167   .text:00000894 .L0
../src/ff-pic24-30-33.s:2166   .text:00000892 .L0
../src/ff-pic24-30-33.s:2168   .text:00000896 .L0
../src/ff-pic24-30-33.s:2167   .text:00000894 .L0
../src/ff-pic24-30-33.s:2177   .text:0000089e .L0
../src/ff-pic24-30-33.s:2168   .text:00000896 .L0
../src/ff-pic24-30-33.s:2178   .text:000008a0 .L0
../src/ff-pic24-30-33.s:2177   .text:0000089e .L0
../src/ff-pic24-30-33.s:2179   .text:000008a2 .L0
../src/ff-pic24-30-33.s:2178   .text:000008a0 .L0
../src/ff-pic24-30-33.s:2180   .text:000008a4 .L0
../src/ff-pic24-30-33.s:2179   .text:000008a2 .L0
../src/ff-pic24-30-33.s:2181   .text:000008a6 .L0
MPLAB ASM30 Listing:  ../src/ff-pic24-30-33.s 			page 228


../src/ff-pic24-30-33.s:2180   .text:000008a4 .L0
../src/ff-pic24-30-33.s:2182   .text:000008a8 .L0
../src/ff-pic24-30-33.s:2181   .text:000008a6 .L0
../src/ff-pic24-30-33.s:2183   .text:000008aa .L0
../src/ff-pic24-30-33.s:2182   .text:000008a8 .L0
../src/ff-pic24-30-33.s:2184   .text:000008ac .L0
../src/ff-pic24-30-33.s:2183   .text:000008aa .L0
../src/ff-pic24-30-33.s:2185   .text:000008ae .L0
../src/ff-pic24-30-33.s:2184   .text:000008ac .L0
../src/ff-pic24-30-33.s:2186   .text:000008b0 .L0
../src/ff-pic24-30-33.s:2185   .text:000008ae .L0
../src/ff-pic24-30-33.s:2187   .text:000008b2 .L0
../src/ff-pic24-30-33.s:2186   .text:000008b0 .L0
../src/ff-pic24-30-33.s:2188   .text:000008b4 .L0
../src/ff-pic24-30-33.s:2187   .text:000008b2 .L0
../src/ff-pic24-30-33.s:2189   .text:000008b6 .L0
../src/ff-pic24-30-33.s:2188   .text:000008b4 .L0
../src/ff-pic24-30-33.s:2198   .text:000008be .L0
../src/ff-pic24-30-33.s:2189   .text:000008b6 .L0
../src/ff-pic24-30-33.s:2199   .text:000008c0 .L0
../src/ff-pic24-30-33.s:2198   .text:000008be .L0
../src/ff-pic24-30-33.s:2200   .text:000008c2 .L0
../src/ff-pic24-30-33.s:2199   .text:000008c0 .L0
../src/ff-pic24-30-33.s:2201   .text:000008c4 .L0
../src/ff-pic24-30-33.s:2200   .text:000008c2 .L0
../src/ff-pic24-30-33.s:2202   .text:000008c6 .L0
../src/ff-pic24-30-33.s:2201   .text:000008c4 .L0
../src/ff-pic24-30-33.s:2203   .text:000008c8 .L0
../src/ff-pic24-30-33.s:2202   .text:000008c6 .L0
../src/ff-pic24-30-33.s:2204   .text:000008ca .L0
../src/ff-pic24-30-33.s:2203   .text:000008c8 .L0
../src/ff-pic24-30-33.s:2205   .text:000008cc .L0
../src/ff-pic24-30-33.s:2204   .text:000008ca .L0
../src/ff-pic24-30-33.s:2206   .text:000008d0 .L0
../src/ff-pic24-30-33.s:2205   .text:000008cc .L0
../src/ff-pic24-30-33.s:2207   .text:000008d2 .L0
../src/ff-pic24-30-33.s:2206   .text:000008d0 .L0
../src/ff-pic24-30-33.s:2208   .text:000008d4 .L0
../src/ff-pic24-30-33.s:2207   .text:000008d2 .L0
../src/ff-pic24-30-33.s:2209   .text:000008d6 .L0
../src/ff-pic24-30-33.s:2208   .text:000008d4 .L0
../src/ff-pic24-30-33.s:2211   .text:000008d8 .L0
../src/ff-pic24-30-33.s:2209   .text:000008d6 .L0
../src/ff-pic24-30-33.s:2212   .text:000008da .L0
../src/ff-pic24-30-33.s:2211   .text:000008d8 .L0
../src/ff-pic24-30-33.s:2221   .text:000008e4 .L0
../src/ff-pic24-30-33.s:2212   .text:000008da .L0
../src/ff-pic24-30-33.s:2222   .text:000008e8 .L0
../src/ff-pic24-30-33.s:2221   .text:000008e4 .L0
../src/ff-pic24-30-33.s:2234   .text:000008f6 .L0
../src/ff-pic24-30-33.s:2222   .text:000008e8 .L0
../src/ff-pic24-30-33.s:2235   .text:000008fa .L0
../src/ff-pic24-30-33.s:2234   .text:000008f6 .L0
../src/ff-pic24-30-33.s:2246   .text:00000906 .L0
../src/ff-pic24-30-33.s:2235   .text:000008fa .L0
../src/ff-pic24-30-33.s:2247   .text:00000908 .L0
../src/ff-pic24-30-33.s:2246   .text:00000906 .L0
MPLAB ASM30 Listing:  ../src/ff-pic24-30-33.s 			page 229


../src/ff-pic24-30-33.s:2248   .text:0000090a .L0
../src/ff-pic24-30-33.s:2247   .text:00000908 .L0
../src/ff-pic24-30-33.s:2249   .text:0000090c .L0
../src/ff-pic24-30-33.s:2248   .text:0000090a .L0
../src/ff-pic24-30-33.s:2250   .text:0000090e .L0
../src/ff-pic24-30-33.s:2249   .text:0000090c .L0
../src/ff-pic24-30-33.s:2252   .text:00000910 .L0
../src/ff-pic24-30-33.s:2250   .text:0000090e .L0
../src/ff-pic24-30-33.s:2254   .text:00000912 .L0
../src/ff-pic24-30-33.s:2252   .text:00000910 .L0
../src/ff-pic24-30-33.s:2255   .text:00000914 .L0
../src/ff-pic24-30-33.s:2254   .text:00000912 .L0
../src/ff-pic24-30-33.s:2256   .text:00000916 .L0
../src/ff-pic24-30-33.s:2255   .text:00000914 .L0
../src/ff-pic24-30-33.s:2261   .text:00000918 .L0
../src/ff-pic24-30-33.s:2256   .text:00000916 .L0
../src/ff-pic24-30-33.s:2270   .text:00000922 .L0
../src/ff-pic24-30-33.s:2261   .text:00000918 .L0
../src/ff-pic24-30-33.s:2271   .text:00000926 .L0
../src/ff-pic24-30-33.s:2270   .text:00000922 .L0
../src/ff-pic24-30-33.s:2283   .text:00000930 .L0
../src/ff-pic24-30-33.s:2271   .text:00000926 .L0
../src/ff-pic24-30-33.s:2284   .text:00000932 .L0
../src/ff-pic24-30-33.s:2283   .text:00000930 .L0
../src/ff-pic24-30-33.s:2285   .text:00000934 .L0
../src/ff-pic24-30-33.s:2284   .text:00000932 .L0
../src/ff-pic24-30-33.s:2286   .text:00000936 .L0
../src/ff-pic24-30-33.s:2285   .text:00000934 .L0
../src/ff-pic24-30-33.s:2287   .text:00000938 .L0
../src/ff-pic24-30-33.s:2286   .text:00000936 .L0
../src/ff-pic24-30-33.s:2288   .text:0000093c .L0
../src/ff-pic24-30-33.s:2287   .text:00000938 .L0
../src/ff-pic24-30-33.s:2289   .text:0000093e .L0
../src/ff-pic24-30-33.s:2288   .text:0000093c .L0
../src/ff-pic24-30-33.s:2297   .text:00000948 .L0
../src/ff-pic24-30-33.s:2289   .text:0000093e .L0
../src/ff-pic24-30-33.s:2298   .text:0000094c .L0
../src/ff-pic24-30-33.s:2297   .text:00000948 .L0
../src/ff-pic24-30-33.s:2299   .text:0000094e .L0
../src/ff-pic24-30-33.s:2298   .text:0000094c .L0
../src/ff-pic24-30-33.s:2300   .text:00000950 .L0
../src/ff-pic24-30-33.s:2299   .text:0000094e .L0
../src/ff-pic24-30-33.s:2301   .text:00000952 .L0
../src/ff-pic24-30-33.s:2300   .text:00000950 .L0
../src/ff-pic24-30-33.s:2302   .text:00000954 .L0
../src/ff-pic24-30-33.s:2301   .text:00000952 .L0
../src/ff-pic24-30-33.s:2304   .text:00000956 .L0
../src/ff-pic24-30-33.s:2302   .text:00000954 .L0
../src/ff-pic24-30-33.s:2305   .text:00000958 .L0
../src/ff-pic24-30-33.s:2304   .text:00000956 .L0
../src/ff-pic24-30-33.s:2306   .text:0000095a .L0
../src/ff-pic24-30-33.s:2305   .text:00000958 .L0
../src/ff-pic24-30-33.s:2309   .text:0000095c .L0
../src/ff-pic24-30-33.s:2306   .text:0000095a .L0
../src/ff-pic24-30-33.s:2310   .text:00000960 .L0
../src/ff-pic24-30-33.s:2309   .text:0000095c .L0
../src/ff-pic24-30-33.s:2319   .text:00000962 .L0
MPLAB ASM30 Listing:  ../src/ff-pic24-30-33.s 			page 230


../src/ff-pic24-30-33.s:2310   .text:00000960 .L0
../src/ff-pic24-30-33.s:2436   .text:0000096a .L0
../src/ff-pic24-30-33.s:2319   .text:00000962 .L0
../src/ff-pic24-30-33.s:2437   .text:0000096c .L0
../src/ff-pic24-30-33.s:2436   .text:0000096a .L0
../src/ff-pic24-30-33.s:2445   .text:00000978 .L0
../src/ff-pic24-30-33.s:2437   .text:0000096c .L0
../src/ff-pic24-30-33.s:2446   .text:0000097a .L0
../src/ff-pic24-30-33.s:2445   .text:00000978 .L0
../src/ff-pic24-30-33.s:2447   .text:0000097c .L0
../src/ff-pic24-30-33.s:2446   .text:0000097a .L0
../src/ff-pic24-30-33.s:2448   .text:0000097e .L0
../src/ff-pic24-30-33.s:2447   .text:0000097c .L0
../src/ff-pic24-30-33.s:2456   .text:00000986 .L0
../src/ff-pic24-30-33.s:2448   .text:0000097e .L0
../src/ff-pic24-30-33.s:2457   .text:00000988 .L0
../src/ff-pic24-30-33.s:2456   .text:00000986 .L0
../src/ff-pic24-30-33.s:2458   .text:0000098a .L0
../src/ff-pic24-30-33.s:2457   .text:00000988 .L0
../src/ff-pic24-30-33.s:2459   .text:0000098c .L0
../src/ff-pic24-30-33.s:2458   .text:0000098a .L0
../src/ff-pic24-30-33.s:2460   .text:0000098e .L0
../src/ff-pic24-30-33.s:2459   .text:0000098c .L0
../src/ff-pic24-30-33.s:2468   .text:00000998 .L0
../src/ff-pic24-30-33.s:2460   .text:0000098e .L0
../src/ff-pic24-30-33.s:2469   .text:0000099a .L0
../src/ff-pic24-30-33.s:2468   .text:00000998 .L0
../src/ff-pic24-30-33.s:2475   .text:000009a0 .L0
../src/ff-pic24-30-33.s:2469   .text:0000099a .L0
../src/ff-pic24-30-33.s:2476   .text:000009a2 .L0
../src/ff-pic24-30-33.s:2475   .text:000009a0 .L0
../src/ff-pic24-30-33.s:2477   .text:000009a4 .L0
../src/ff-pic24-30-33.s:2476   .text:000009a2 .L0
../src/ff-pic24-30-33.s:2478   .text:000009a6 .L0
../src/ff-pic24-30-33.s:2477   .text:000009a4 .L0
../src/ff-pic24-30-33.s:2479   .text:000009a8 .L0
../src/ff-pic24-30-33.s:2478   .text:000009a6 .L0
../src/ff-pic24-30-33.s:2480   .text:000009aa .L0
../src/ff-pic24-30-33.s:2479   .text:000009a8 .L0
../src/ff-pic24-30-33.s:2488   .text:000009b4 .L0
../src/ff-pic24-30-33.s:2480   .text:000009aa .L0
../src/ff-pic24-30-33.s:2492   .text:000009b6 .L0
../src/ff-pic24-30-33.s:2488   .text:000009b4 .L0
../src/ff-pic24-30-33.s:2493   .text:000009b8 .L0
../src/ff-pic24-30-33.s:2492   .text:000009b6 .L0
../src/ff-pic24-30-33.s:2494   .text:000009ba .L0
../src/ff-pic24-30-33.s:2493   .text:000009b8 .L0
../src/ff-pic24-30-33.s:2496   .text:000009bc .L0
../src/ff-pic24-30-33.s:2494   .text:000009ba .L0
../src/ff-pic24-30-33.s:2500   .text:000009be .L0
../src/ff-pic24-30-33.s:2496   .text:000009bc .L0
../src/ff-pic24-30-33.s:2501   .text:000009c0 .L0
../src/ff-pic24-30-33.s:2500   .text:000009be .L0
../src/ff-pic24-30-33.s:2502   .text:000009c2 .L0
../src/ff-pic24-30-33.s:2501   .text:000009c0 .L0
../src/ff-pic24-30-33.s:2510   .text:000009cc .L0
../src/ff-pic24-30-33.s:2502   .text:000009c2 .L0
MPLAB ASM30 Listing:  ../src/ff-pic24-30-33.s 			page 231


../src/ff-pic24-30-33.s:2511   .text:000009ce .L0
../src/ff-pic24-30-33.s:2510   .text:000009cc .L0
../src/ff-pic24-30-33.s:2512   .text:000009d0 .L0
../src/ff-pic24-30-33.s:2511   .text:000009ce .L0
../src/ff-pic24-30-33.s:2513   .text:000009d2 .L0
../src/ff-pic24-30-33.s:2512   .text:000009d0 .L0
../src/ff-pic24-30-33.s:2517   .text:000009d4 .L0
../src/ff-pic24-30-33.s:2513   .text:000009d2 .L0
../src/ff-pic24-30-33.s:2518   .text:000009d6 .L0
../src/ff-pic24-30-33.s:2517   .text:000009d4 .L0
../src/ff-pic24-30-33.s:2526   .text:000009de .L0
../src/ff-pic24-30-33.s:2518   .text:000009d6 .L0
../src/ff-pic24-30-33.s:2527   .text:000009e0 .L0
../src/ff-pic24-30-33.s:2526   .text:000009de .L0
../src/ff-pic24-30-33.s:2535   .text:000009e8 .L0
../src/ff-pic24-30-33.s:2527   .text:000009e0 .L0
../src/ff-pic24-30-33.s:2536   .text:000009ea .L0
../src/ff-pic24-30-33.s:2535   .text:000009e8 .L0
../src/ff-pic24-30-33.s:2545   .text:000009f2 .L0
../src/ff-pic24-30-33.s:2536   .text:000009ea .L0
../src/ff-pic24-30-33.s:2546   .text:000009f4 .L0
../src/ff-pic24-30-33.s:2545   .text:000009f2 .L0
../src/ff-pic24-30-33.s:2547   .text:000009f6 .L0
../src/ff-pic24-30-33.s:2546   .text:000009f4 .L0
../src/ff-pic24-30-33.s:2555   .text:000009fe .L0
../src/ff-pic24-30-33.s:2547   .text:000009f6 .L0
../src/ff-pic24-30-33.s:2556   .text:00000a00 .L0
../src/ff-pic24-30-33.s:2555   .text:000009fe .L0
../src/ff-pic24-30-33.s:2557   .text:00000a02 .L0
../src/ff-pic24-30-33.s:2556   .text:00000a00 .L0
../src/ff-pic24-30-33.s:2558   .text:00000a04 .L0
../src/ff-pic24-30-33.s:2557   .text:00000a02 .L0
../src/ff-pic24-30-33.s:2559   .text:00000a06 .L0
../src/ff-pic24-30-33.s:2558   .text:00000a04 .L0
../src/ff-pic24-30-33.s:2560   .text:00000a08 .L0
../src/ff-pic24-30-33.s:2559   .text:00000a06 .L0
../src/ff-pic24-30-33.s:2561   .text:00000a0a .L0
../src/ff-pic24-30-33.s:2560   .text:00000a08 .L0
../src/ff-pic24-30-33.s:2569   .text:00000a14 .L0
../src/ff-pic24-30-33.s:2561   .text:00000a0a .L0
../src/ff-pic24-30-33.s:2570   .text:00000a16 .L0
../src/ff-pic24-30-33.s:2569   .text:00000a14 .L0
../src/ff-pic24-30-33.s:2578   .text:00000a20 .L0
../src/ff-pic24-30-33.s:2570   .text:00000a16 .L0
../src/ff-pic24-30-33.s:2579   .text:00000a22 .L0
../src/ff-pic24-30-33.s:2578   .text:00000a20 .L0
../src/ff-pic24-30-33.s:2580   .text:00000a24 .L0
../src/ff-pic24-30-33.s:2579   .text:00000a22 .L0
../src/ff-pic24-30-33.s:2581   .text:00000a26 .L0
../src/ff-pic24-30-33.s:2580   .text:00000a24 .L0
../src/ff-pic24-30-33.s:2589   .text:00000a30 .L0
../src/ff-pic24-30-33.s:2581   .text:00000a26 .L0
../src/ff-pic24-30-33.s:2590   .text:00000a32 .L0
../src/ff-pic24-30-33.s:2589   .text:00000a30 .L0
../src/ff-pic24-30-33.s:2591   .text:00000a34 .L0
../src/ff-pic24-30-33.s:2590   .text:00000a32 .L0
../src/ff-pic24-30-33.s:2599   .text:00000a3c .L0
MPLAB ASM30 Listing:  ../src/ff-pic24-30-33.s 			page 232


../src/ff-pic24-30-33.s:2591   .text:00000a34 .L0
../src/ff-pic24-30-33.s:2600   .text:00000a3e .L0
../src/ff-pic24-30-33.s:2599   .text:00000a3c .L0
../src/ff-pic24-30-33.s:2601   .text:00000a40 .L0
../src/ff-pic24-30-33.s:2600   .text:00000a3e .L0
../src/ff-pic24-30-33.s:2602   .text:00000a42 .L0
../src/ff-pic24-30-33.s:2601   .text:00000a40 .L0
../src/ff-pic24-30-33.s:2603   .text:00000a44 .L0
../src/ff-pic24-30-33.s:2602   .text:00000a42 .L0
../src/ff-pic24-30-33.s:2604   .text:00000a46 .L0
../src/ff-pic24-30-33.s:2603   .text:00000a44 .L0
../src/ff-pic24-30-33.s:2605   .text:00000a48 .L0
../src/ff-pic24-30-33.s:2604   .text:00000a46 .L0
../src/ff-pic24-30-33.s:2613   .text:00000a50 .L0
../src/ff-pic24-30-33.s:2605   .text:00000a48 .L0
../src/ff-pic24-30-33.s:2614   .text:00000a52 .L0
../src/ff-pic24-30-33.s:2613   .text:00000a50 .L0
../src/ff-pic24-30-33.s:2623   .text:00000a5a .L0
../src/ff-pic24-30-33.s:2614   .text:00000a52 .L0
../src/ff-pic24-30-33.s:2624   .text:00000a5c .L0
../src/ff-pic24-30-33.s:2623   .text:00000a5a .L0
../src/ff-pic24-30-33.s:2633   .text:00000a64 .L0
../src/ff-pic24-30-33.s:2624   .text:00000a5c .L0
../src/ff-pic24-30-33.s:2634   .text:00000a66 .L0
../src/ff-pic24-30-33.s:2633   .text:00000a64 .L0
../src/ff-pic24-30-33.s:2635   .text:00000a68 .L0
../src/ff-pic24-30-33.s:2634   .text:00000a66 .L0
../src/ff-pic24-30-33.s:2644   .text:00000a70 .L0
../src/ff-pic24-30-33.s:2635   .text:00000a68 .L0
../src/ff-pic24-30-33.s:2645   .text:00000a72 .L0
../src/ff-pic24-30-33.s:2644   .text:00000a70 .L0
../src/ff-pic24-30-33.s:2646   .text:00000a74 .L0
../src/ff-pic24-30-33.s:2645   .text:00000a72 .L0
../src/ff-pic24-30-33.s:2655   .text:00000a7e .L0
../src/ff-pic24-30-33.s:2646   .text:00000a74 .L0
../src/ff-pic24-30-33.s:2656   .text:00000a80 .L0
../src/ff-pic24-30-33.s:2655   .text:00000a7e .L0
../src/ff-pic24-30-33.s:2664   .text:00000a88 .L0
../src/ff-pic24-30-33.s:2656   .text:00000a80 .L0
../src/ff-pic24-30-33.s:2665   .text:00000a8a .L0
../src/ff-pic24-30-33.s:2664   .text:00000a88 .L0
../src/ff-pic24-30-33.s:2666   .text:00000a8c .L0
../src/ff-pic24-30-33.s:2665   .text:00000a8a .L0
../src/ff-pic24-30-33.s:2674   .text:00000a94 .L0
../src/ff-pic24-30-33.s:2666   .text:00000a8c .L0
../src/ff-pic24-30-33.s:2675   .text:00000a96 .L0
../src/ff-pic24-30-33.s:2674   .text:00000a94 .L0
../src/ff-pic24-30-33.s:2676   .text:00000a98 .L0
../src/ff-pic24-30-33.s:2675   .text:00000a96 .L0
../src/ff-pic24-30-33.s:2677   .text:00000a9a .L0
../src/ff-pic24-30-33.s:2676   .text:00000a98 .L0
../src/ff-pic24-30-33.s:2678   .text:00000a9c .L0
../src/ff-pic24-30-33.s:2677   .text:00000a9a .L0
../src/ff-pic24-30-33.s:2679   .text:00000a9e .L0
../src/ff-pic24-30-33.s:2678   .text:00000a9c .L0
../src/ff-pic24-30-33.s:2680   .text:00000aa0 .L0
../src/ff-pic24-30-33.s:2679   .text:00000a9e .L0
MPLAB ASM30 Listing:  ../src/ff-pic24-30-33.s 			page 233


../src/ff-pic24-30-33.s:2688   .text:00000aa8 .L0
../src/ff-pic24-30-33.s:2680   .text:00000aa0 .L0
../src/ff-pic24-30-33.s:2689   .text:00000aaa .L0
../src/ff-pic24-30-33.s:2688   .text:00000aa8 .L0
../src/ff-pic24-30-33.s:2690   .text:00000aac .L0
../src/ff-pic24-30-33.s:2689   .text:00000aaa .L0
../src/ff-pic24-30-33.s:2691   .text:00000aae .L0
../src/ff-pic24-30-33.s:2690   .text:00000aac .L0
../src/ff-pic24-30-33.s:2692   .text:00000ab0 .L0
../src/ff-pic24-30-33.s:2691   .text:00000aae .L0
../src/ff-pic24-30-33.s:2693   .text:00000ab2 .L0
../src/ff-pic24-30-33.s:2692   .text:00000ab0 .L0
../src/ff-pic24-30-33.s:2701   .text:00000ab8 .L0
../src/ff-pic24-30-33.s:2693   .text:00000ab2 .L0
../src/ff-pic24-30-33.s:2702   .text:00000aba .L0
../src/ff-pic24-30-33.s:2701   .text:00000ab8 .L0
../src/ff-pic24-30-33.s:2703   .text:00000abc .L0
../src/ff-pic24-30-33.s:2702   .text:00000aba .L0
../src/ff-pic24-30-33.s:2704   .text:00000abe .L0
../src/ff-pic24-30-33.s:2703   .text:00000abc .L0
../src/ff-pic24-30-33.s:2712   .text:00000ac6 .L0
../src/ff-pic24-30-33.s:2704   .text:00000abe .L0
../src/ff-pic24-30-33.s:2713   .text:00000ac8 .L0
../src/ff-pic24-30-33.s:2712   .text:00000ac6 .L0
../src/ff-pic24-30-33.s:2714   .text:00000aca .L0
../src/ff-pic24-30-33.s:2713   .text:00000ac8 .L0
../src/ff-pic24-30-33.s:2715   .text:00000acc .L0
../src/ff-pic24-30-33.s:2714   .text:00000aca .L0
../src/ff-pic24-30-33.s:2716   .text:00000ace .L0
../src/ff-pic24-30-33.s:2715   .text:00000acc .L0
../src/ff-pic24-30-33.s:2717   .text:00000ad0 .L0
../src/ff-pic24-30-33.s:2716   .text:00000ace .L0
../src/ff-pic24-30-33.s:2718   .text:00000ad2 .L0
../src/ff-pic24-30-33.s:2717   .text:00000ad0 .L0
../src/ff-pic24-30-33.s:2726   .text:00000ada .L0
../src/ff-pic24-30-33.s:2718   .text:00000ad2 .L0
../src/ff-pic24-30-33.s:2727   .text:00000adc .L0
../src/ff-pic24-30-33.s:2726   .text:00000ada .L0
../src/ff-pic24-30-33.s:2728   .text:00000ade .L0
../src/ff-pic24-30-33.s:2727   .text:00000adc .L0
../src/ff-pic24-30-33.s:2736   .text:00000ae6 .L0
../src/ff-pic24-30-33.s:2728   .text:00000ade .L0
../src/ff-pic24-30-33.s:2737   .text:00000ae8 .L0
../src/ff-pic24-30-33.s:2736   .text:00000ae6 .L0
../src/ff-pic24-30-33.s:2738   .text:00000aea .L0
../src/ff-pic24-30-33.s:2737   .text:00000ae8 .L0
../src/ff-pic24-30-33.s:2746   .text:00000af2 .L0
../src/ff-pic24-30-33.s:2738   .text:00000aea .L0
../src/ff-pic24-30-33.s:2747   .text:00000af4 .L0
../src/ff-pic24-30-33.s:2746   .text:00000af2 .L0
../src/ff-pic24-30-33.s:2748   .text:00000af6 .L0
../src/ff-pic24-30-33.s:2747   .text:00000af4 .L0
../src/ff-pic24-30-33.s:2756   .text:00000b02 .L0
../src/ff-pic24-30-33.s:2748   .text:00000af6 .L0
../src/ff-pic24-30-33.s:2757   .text:00000b04 .L0
../src/ff-pic24-30-33.s:2756   .text:00000b02 .L0
../src/ff-pic24-30-33.s:2765   .text:00000b10 .L0
MPLAB ASM30 Listing:  ../src/ff-pic24-30-33.s 			page 234


../src/ff-pic24-30-33.s:2757   .text:00000b04 .L0
../src/ff-pic24-30-33.s:2766   .text:00000b12 .L0
../src/ff-pic24-30-33.s:2765   .text:00000b10 .L0
../src/ff-pic24-30-33.s:2767   .text:00000b14 .L0
../src/ff-pic24-30-33.s:2766   .text:00000b12 .L0
../src/ff-pic24-30-33.s:2775   .text:00000b20 .L0
../src/ff-pic24-30-33.s:2767   .text:00000b14 .L0
../src/ff-pic24-30-33.s:2776   .text:00000b22 .L0
../src/ff-pic24-30-33.s:2775   .text:00000b20 .L0
../src/ff-pic24-30-33.s:2784   .text:00000b2e .L0
../src/ff-pic24-30-33.s:2776   .text:00000b22 .L0
../src/ff-pic24-30-33.s:2785   .text:00000b30 .L0
../src/ff-pic24-30-33.s:2784   .text:00000b2e .L0
../src/ff-pic24-30-33.s:2786   .text:00000b32 .L0
../src/ff-pic24-30-33.s:2785   .text:00000b30 .L0
../src/ff-pic24-30-33.s:2787   .text:00000b34 .L0
../src/ff-pic24-30-33.s:2786   .text:00000b32 .L0
../src/ff-pic24-30-33.s:2788   .text:00000b36 .L0
../src/ff-pic24-30-33.s:2787   .text:00000b34 .L0
../src/ff-pic24-30-33.s:2789   .text:00000b38 .L0
../src/ff-pic24-30-33.s:2788   .text:00000b36 .L0
../src/ff-pic24-30-33.s:2797   .text:00000b48 .L0
../src/ff-pic24-30-33.s:2789   .text:00000b38 .L0
../src/ff-pic24-30-33.s:2798   .text:00000b4a .L0
../src/ff-pic24-30-33.s:2797   .text:00000b48 .L0
../src/ff-pic24-30-33.s:2799   .text:00000b4c .L0
../src/ff-pic24-30-33.s:2798   .text:00000b4a .L0
../src/ff-pic24-30-33.s:2800   .text:00000b4e .L0
../src/ff-pic24-30-33.s:2799   .text:00000b4c .L0
../src/ff-pic24-30-33.s:2802   .text:00000b50 .L0
../src/ff-pic24-30-33.s:2800   .text:00000b4e .L0
../src/ff-pic24-30-33.s:2810   .text:00000b58 .L0
../src/ff-pic24-30-33.s:2802   .text:00000b50 .L0
../src/ff-pic24-30-33.s:2811   .text:00000b5a .L0
../src/ff-pic24-30-33.s:2810   .text:00000b58 .L0
../src/ff-pic24-30-33.s:2819   .text:00000b62 .L0
../src/ff-pic24-30-33.s:2811   .text:00000b5a .L0
../src/ff-pic24-30-33.s:2820   .text:00000b64 .L0
../src/ff-pic24-30-33.s:2819   .text:00000b62 .L0
../src/ff-pic24-30-33.s:2828   .text:00000b6c .L0
../src/ff-pic24-30-33.s:2820   .text:00000b64 .L0
../src/ff-pic24-30-33.s:2829   .text:00000b6e .L0
../src/ff-pic24-30-33.s:2828   .text:00000b6c .L0
../src/ff-pic24-30-33.s:2837   .text:00000b76 .L0
../src/ff-pic24-30-33.s:2829   .text:00000b6e .L0
../src/ff-pic24-30-33.s:2838   .text:00000b78 .L0
../src/ff-pic24-30-33.s:2837   .text:00000b76 .L0
../src/ff-pic24-30-33.s:2846   .text:00000b80 .L0
../src/ff-pic24-30-33.s:2838   .text:00000b78 .L0
../src/ff-pic24-30-33.s:2847   .text:00000b82 .L0
../src/ff-pic24-30-33.s:2846   .text:00000b80 .L0
../src/ff-pic24-30-33.s:2855   .text:00000b8a .L0
../src/ff-pic24-30-33.s:2847   .text:00000b82 .L0
../src/ff-pic24-30-33.s:2856   .text:00000b8c .L0
../src/ff-pic24-30-33.s:2855   .text:00000b8a .L0
../src/ff-pic24-30-33.s:2857   .text:00000b8e .L0
../src/ff-pic24-30-33.s:2856   .text:00000b8c .L0
MPLAB ASM30 Listing:  ../src/ff-pic24-30-33.s 			page 235


../src/ff-pic24-30-33.s:2865   .text:00000b96 .L0
../src/ff-pic24-30-33.s:2857   .text:00000b8e .L0
../src/ff-pic24-30-33.s:2866   .text:00000b98 .L0
../src/ff-pic24-30-33.s:2865   .text:00000b96 .L0
../src/ff-pic24-30-33.s:2874   .text:00000ba0 .L0
../src/ff-pic24-30-33.s:2866   .text:00000b98 .L0
../src/ff-pic24-30-33.s:2875   .text:00000ba2 .L0
../src/ff-pic24-30-33.s:2874   .text:00000ba0 .L0
../src/ff-pic24-30-33.s:2876   .text:00000ba4 .L0
../src/ff-pic24-30-33.s:2875   .text:00000ba2 .L0
../src/ff-pic24-30-33.s:2884   .text:00000bac .L0
../src/ff-pic24-30-33.s:2876   .text:00000ba4 .L0
../src/ff-pic24-30-33.s:2885   .text:00000bae .L0
../src/ff-pic24-30-33.s:2884   .text:00000bac .L0
../src/ff-pic24-30-33.s:2887   .text:00000bb0 .L0
../src/ff-pic24-30-33.s:2885   .text:00000bae .L0
../src/ff-pic24-30-33.s:2888   .text:00000bb2 .L0
../src/ff-pic24-30-33.s:2887   .text:00000bb0 .L0
../src/ff-pic24-30-33.s:2896   .text:00000bba .L0
../src/ff-pic24-30-33.s:2888   .text:00000bb2 .L0
../src/ff-pic24-30-33.s:2897   .text:00000bbc .L0
../src/ff-pic24-30-33.s:2896   .text:00000bba .L0
../src/ff-pic24-30-33.s:2898   .text:00000bbe .L0
../src/ff-pic24-30-33.s:2897   .text:00000bbc .L0
../src/ff-pic24-30-33.s:2899   .text:00000bc0 .L0
../src/ff-pic24-30-33.s:2898   .text:00000bbe .L0
../src/ff-pic24-30-33.s:2907   .text:00000bca .L0
../src/ff-pic24-30-33.s:2899   .text:00000bc0 .L0
../src/ff-pic24-30-33.s:2908   .text:00000bcc .L0
../src/ff-pic24-30-33.s:2907   .text:00000bca .L0
../src/ff-pic24-30-33.s:2910   .text:00000bce .L0
../src/ff-pic24-30-33.s:2908   .text:00000bcc .L0
../src/ff-pic24-30-33.s:2911   .text:00000bd0 .L0
../src/ff-pic24-30-33.s:2910   .text:00000bce .L0
../src/ff-pic24-30-33.s:2919   .text:00000bd8 .L0
../src/ff-pic24-30-33.s:2911   .text:00000bd0 .L0
../src/ff-pic24-30-33.s:2920   .text:00000bda .L0
../src/ff-pic24-30-33.s:2919   .text:00000bd8 .L0
../src/ff-pic24-30-33.s:2921   .text:00000bdc .L0
../src/ff-pic24-30-33.s:2920   .text:00000bda .L0
../src/ff-pic24-30-33.s:2929   .text:00000be6 .L0
../src/ff-pic24-30-33.s:2921   .text:00000bdc .L0
../src/ff-pic24-30-33.s:2930   .text:00000be8 .L0
../src/ff-pic24-30-33.s:2929   .text:00000be6 .L0
../src/ff-pic24-30-33.s:2938   .text:00000bf2 .L0
../src/ff-pic24-30-33.s:2930   .text:00000be8 .L0
../src/ff-pic24-30-33.s:2939   .text:00000bf4 .L0
../src/ff-pic24-30-33.s:2938   .text:00000bf2 .L0
../src/ff-pic24-30-33.s:2940   .text:00000bf6 .L0
../src/ff-pic24-30-33.s:2939   .text:00000bf4 .L0
../src/ff-pic24-30-33.s:2948   .text:00000bfe .L0
../src/ff-pic24-30-33.s:2940   .text:00000bf6 .L0
../src/ff-pic24-30-33.s:2949   .text:00000c00 .L0
../src/ff-pic24-30-33.s:2948   .text:00000bfe .L0
../src/ff-pic24-30-33.s:2957   .text:00000c08 .L0
../src/ff-pic24-30-33.s:2949   .text:00000c00 .L0
../src/ff-pic24-30-33.s:2958   .text:00000c0a .L0
MPLAB ASM30 Listing:  ../src/ff-pic24-30-33.s 			page 236


../src/ff-pic24-30-33.s:2957   .text:00000c08 .L0
../src/ff-pic24-30-33.s:2966   .text:00000c12 .L0
../src/ff-pic24-30-33.s:2958   .text:00000c0a .L0
../src/ff-pic24-30-33.s:2967   .text:00000c14 .L0
../src/ff-pic24-30-33.s:2966   .text:00000c12 .L0
../src/ff-pic24-30-33.s:2975   .text:00000c1e .L0
../src/ff-pic24-30-33.s:2967   .text:00000c14 .L0
../src/ff-pic24-30-33.s:2976   .text:00000c20 .L0
../src/ff-pic24-30-33.s:2975   .text:00000c1e .L0
../src/ff-pic24-30-33.s:2984   .text:00000c2a .L0
../src/ff-pic24-30-33.s:2976   .text:00000c20 .L0
../src/ff-pic24-30-33.s:2985   .text:00000c2c .L0
../src/ff-pic24-30-33.s:2984   .text:00000c2a .L0
../src/ff-pic24-30-33.s:2993   .text:00000c36 .L0
../src/ff-pic24-30-33.s:2985   .text:00000c2c .L0
../src/ff-pic24-30-33.s:2994   .text:00000c38 .L0
../src/ff-pic24-30-33.s:2993   .text:00000c36 .L0
../src/ff-pic24-30-33.s:3002   .text:00000c42 .L0
../src/ff-pic24-30-33.s:2994   .text:00000c38 .L0
../src/ff-pic24-30-33.s:3003   .text:00000c44 .L0
../src/ff-pic24-30-33.s:3002   .text:00000c42 .L0
../src/ff-pic24-30-33.s:3011   .text:00000c4c .L0
../src/ff-pic24-30-33.s:3003   .text:00000c44 .L0
../src/ff-pic24-30-33.s:3012   .text:00000c4e .L0
../src/ff-pic24-30-33.s:3011   .text:00000c4c .L0
../src/ff-pic24-30-33.s:3020   .text:00000c56 .L0
../src/ff-pic24-30-33.s:3012   .text:00000c4e .L0
../src/ff-pic24-30-33.s:3021   .text:00000c58 .L0
../src/ff-pic24-30-33.s:3020   .text:00000c56 .L0
../src/ff-pic24-30-33.s:3022   .text:00000c5a .L0
../src/ff-pic24-30-33.s:3021   .text:00000c58 .L0
../src/ff-pic24-30-33.s:3030   .text:00000c62 .L0
../src/ff-pic24-30-33.s:3022   .text:00000c5a .L0
../src/ff-pic24-30-33.s:3031   .text:00000c64 .L0
../src/ff-pic24-30-33.s:3030   .text:00000c62 .L0
../src/ff-pic24-30-33.s:3039   .text:00000c6e .L0
../src/ff-pic24-30-33.s:3031   .text:00000c64 .L0
../src/ff-pic24-30-33.s:3040   .text:00000c70 .L0
../src/ff-pic24-30-33.s:3039   .text:00000c6e .L0
../src/ff-pic24-30-33.s:3041   .text:00000c72 .L0
../src/ff-pic24-30-33.s:3040   .text:00000c70 .L0
../src/ff-pic24-30-33.s:3042   .text:00000c74 .L0
../src/ff-pic24-30-33.s:3041   .text:00000c72 .L0
../src/ff-pic24-30-33.s:3043   .text:00000c76 .L0
../src/ff-pic24-30-33.s:3042   .text:00000c74 .L0
../src/ff-pic24-30-33.s:3051   .text:00000c7e .L0
../src/ff-pic24-30-33.s:3043   .text:00000c76 .L0
../src/ff-pic24-30-33.s:3052   .text:00000c80 .L0
../src/ff-pic24-30-33.s:3051   .text:00000c7e .L0
../src/ff-pic24-30-33.s:3053   .text:00000c82 .L0
../src/ff-pic24-30-33.s:3052   .text:00000c80 .L0
../src/ff-pic24-30-33.s:3054   .text:00000c84 .L0
../src/ff-pic24-30-33.s:3053   .text:00000c82 .L0
../src/ff-pic24-30-33.s:3055   .text:00000c86 .L0
../src/ff-pic24-30-33.s:3054   .text:00000c84 .L0
../src/ff-pic24-30-33.s:3063   .text:00000c92 .L0
../src/ff-pic24-30-33.s:3055   .text:00000c86 .L0
MPLAB ASM30 Listing:  ../src/ff-pic24-30-33.s 			page 237


../src/ff-pic24-30-33.s:3064   .text:00000c94 .L0
../src/ff-pic24-30-33.s:3063   .text:00000c92 .L0
../src/ff-pic24-30-33.s:3065   .text:00000c96 .L0
../src/ff-pic24-30-33.s:3064   .text:00000c94 .L0
../src/ff-pic24-30-33.s:3066   .text:00000c98 .L0
../src/ff-pic24-30-33.s:3065   .text:00000c96 .L0
../src/ff-pic24-30-33.s:3067   .text:00000c9a .L0
../src/ff-pic24-30-33.s:3066   .text:00000c98 .L0
../src/ff-pic24-30-33.s:3068   .text:00000c9c .L0
../src/ff-pic24-30-33.s:3067   .text:00000c9a .L0
../src/ff-pic24-30-33.s:3069   .text:00000c9e .L0
../src/ff-pic24-30-33.s:3068   .text:00000c9c .L0
../src/ff-pic24-30-33.s:3070   .text:00000ca0 .L0
../src/ff-pic24-30-33.s:3069   .text:00000c9e .L0
../src/ff-pic24-30-33.s:3078   .text:00000cac .L0
../src/ff-pic24-30-33.s:3070   .text:00000ca0 .L0
../src/ff-pic24-30-33.s:3079   .text:00000cae .L0
../src/ff-pic24-30-33.s:3078   .text:00000cac .L0
../src/ff-pic24-30-33.s:3080   .text:00000cb0 .L0
../src/ff-pic24-30-33.s:3079   .text:00000cae .L0
../src/ff-pic24-30-33.s:3081   .text:00000cb2 .L0
../src/ff-pic24-30-33.s:3080   .text:00000cb0 .L0
../src/ff-pic24-30-33.s:3082   .text:00000cb4 .L0
../src/ff-pic24-30-33.s:3081   .text:00000cb2 .L0
../src/ff-pic24-30-33.s:3083   .text:00000cb6 .L0
../src/ff-pic24-30-33.s:3082   .text:00000cb4 .L0
../src/ff-pic24-30-33.s:3084   .text:00000cb8 .L0
../src/ff-pic24-30-33.s:3083   .text:00000cb6 .L0
../src/ff-pic24-30-33.s:3085   .text:00000cba .L0
../src/ff-pic24-30-33.s:3084   .text:00000cb8 .L0
../src/ff-pic24-30-33.s:3093   .text:00000cc4 .L0
../src/ff-pic24-30-33.s:3085   .text:00000cba .L0
../src/ff-pic24-30-33.s:3094   .text:00000cc6 .L0
../src/ff-pic24-30-33.s:3093   .text:00000cc4 .L0
../src/ff-pic24-30-33.s:3095   .text:00000cc8 .L0
../src/ff-pic24-30-33.s:3094   .text:00000cc6 .L0
../src/ff-pic24-30-33.s:3096   .text:00000cca .L0
../src/ff-pic24-30-33.s:3095   .text:00000cc8 .L0
../src/ff-pic24-30-33.s:3097   .text:00000ccc .L0
../src/ff-pic24-30-33.s:3096   .text:00000cca .L0
../src/ff-pic24-30-33.s:3098   .text:00000cce .L0
../src/ff-pic24-30-33.s:3097   .text:00000ccc .L0
../src/ff-pic24-30-33.s:3099   .text:00000cd0 .L0
../src/ff-pic24-30-33.s:3098   .text:00000cce .L0
../src/ff-pic24-30-33.s:3107   .text:00000cda .L0
../src/ff-pic24-30-33.s:3099   .text:00000cd0 .L0
../src/ff-pic24-30-33.s:3108   .text:00000cdc .L0
../src/ff-pic24-30-33.s:3107   .text:00000cda .L0
../src/ff-pic24-30-33.s:3109   .text:00000cde .L0
../src/ff-pic24-30-33.s:3108   .text:00000cdc .L0
../src/ff-pic24-30-33.s:3110   .text:00000ce0 .L0
../src/ff-pic24-30-33.s:3109   .text:00000cde .L0
../src/ff-pic24-30-33.s:3111   .text:00000ce2 .L0
../src/ff-pic24-30-33.s:3110   .text:00000ce0 .L0
../src/ff-pic24-30-33.s:3112   .text:00000ce4 .L0
../src/ff-pic24-30-33.s:3111   .text:00000ce2 .L0
../src/ff-pic24-30-33.s:3113   .text:00000ce6 .L0
MPLAB ASM30 Listing:  ../src/ff-pic24-30-33.s 			page 238


../src/ff-pic24-30-33.s:3112   .text:00000ce4 .L0
../src/ff-pic24-30-33.s:3121   .text:00000cee .L0
../src/ff-pic24-30-33.s:3113   .text:00000ce6 .L0
../src/ff-pic24-30-33.s:3122   .text:00000cf0 .L0
../src/ff-pic24-30-33.s:3121   .text:00000cee .L0
../src/ff-pic24-30-33.s:3123   .text:00000cf2 .L0
../src/ff-pic24-30-33.s:3122   .text:00000cf0 .L0
../src/ff-pic24-30-33.s:3124   .text:00000cf4 .L0
../src/ff-pic24-30-33.s:3123   .text:00000cf2 .L0
../src/ff-pic24-30-33.s:3125   .text:00000cf6 .L0
../src/ff-pic24-30-33.s:3124   .text:00000cf4 .L0
../src/ff-pic24-30-33.s:3126   .text:00000cf8 .L0
../src/ff-pic24-30-33.s:3125   .text:00000cf6 .L0
../src/ff-pic24-30-33.s:3135   .text:00000d02 .L0
../src/ff-pic24-30-33.s:3126   .text:00000cf8 .L0
../src/ff-pic24-30-33.s:3136   .text:00000d04 .L0
../src/ff-pic24-30-33.s:3135   .text:00000d02 .L0
../src/ff-pic24-30-33.s:3138   .text:00000d06 .L0
../src/ff-pic24-30-33.s:3136   .text:00000d04 .L0
../src/ff-pic24-30-33.s:3139   .text:00000d08 .L0
../src/ff-pic24-30-33.s:3138   .text:00000d06 .L0
../src/ff-pic24-30-33.s:3143   .text:00000d0a .L0
../src/ff-pic24-30-33.s:3139   .text:00000d08 .L0
../src/ff-pic24-30-33.s:3144   .text:00000d0c .L0
../src/ff-pic24-30-33.s:3143   .text:00000d0a .L0
../src/ff-pic24-30-33.s:3145   .text:00000d0e .L0
../src/ff-pic24-30-33.s:3144   .text:00000d0c .L0
../src/ff-pic24-30-33.s:3146   .text:00000d10 .L0
../src/ff-pic24-30-33.s:3145   .text:00000d0e .L0
../src/ff-pic24-30-33.s:3155   .text:00000d1a .L0
../src/ff-pic24-30-33.s:3146   .text:00000d10 .L0
../src/ff-pic24-30-33.s:3156   .text:00000d1c .L0
../src/ff-pic24-30-33.s:3155   .text:00000d1a .L0
../src/ff-pic24-30-33.s:3157   .text:00000d1e .L0
../src/ff-pic24-30-33.s:3156   .text:00000d1c .L0
../src/ff-pic24-30-33.s:3159   .text:00000d20 .L0
../src/ff-pic24-30-33.s:3157   .text:00000d1e .L0
../src/ff-pic24-30-33.s:3160   .text:00000d22 .L0
../src/ff-pic24-30-33.s:3159   .text:00000d20 .L0
../src/ff-pic24-30-33.s:3169   .text:00000d2e .L0
../src/ff-pic24-30-33.s:3160   .text:00000d22 .L0
../src/ff-pic24-30-33.s:3170   .text:00000d30 .L0
../src/ff-pic24-30-33.s:3169   .text:00000d2e .L0
../src/ff-pic24-30-33.s:3171   .text:00000d34 .L0
../src/ff-pic24-30-33.s:3170   .text:00000d30 .L0
../src/ff-pic24-30-33.s:3172   .text:00000d36 .L0
../src/ff-pic24-30-33.s:3171   .text:00000d34 .L0
../src/ff-pic24-30-33.s:3174   .text:00000d38 .L0
../src/ff-pic24-30-33.s:3172   .text:00000d36 .L0
../src/ff-pic24-30-33.s:3175   .text:00000d3a .L0
../src/ff-pic24-30-33.s:3174   .text:00000d38 .L0
../src/ff-pic24-30-33.s:3183   .text:00000d44 .L0
../src/ff-pic24-30-33.s:3175   .text:00000d3a .L0
../src/ff-pic24-30-33.s:3184   .text:00000d46 .L0
../src/ff-pic24-30-33.s:3183   .text:00000d44 .L0
../src/ff-pic24-30-33.s:3185   .text:00000d48 .L0
../src/ff-pic24-30-33.s:3184   .text:00000d46 .L0
MPLAB ASM30 Listing:  ../src/ff-pic24-30-33.s 			page 239


../src/ff-pic24-30-33.s:3186   .text:00000d4a .L0
../src/ff-pic24-30-33.s:3185   .text:00000d48 .L0
../src/ff-pic24-30-33.s:3187   .text:00000d4c .L0
../src/ff-pic24-30-33.s:3186   .text:00000d4a .L0
../src/ff-pic24-30-33.s:3188   .text:00000d4e .L0
../src/ff-pic24-30-33.s:3187   .text:00000d4c .L0
../src/ff-pic24-30-33.s:3189   .text:00000d50 .L0
../src/ff-pic24-30-33.s:3188   .text:00000d4e .L0
../src/ff-pic24-30-33.s:3190   .text:00000d52 .L0
../src/ff-pic24-30-33.s:3189   .text:00000d50 .L0
../src/ff-pic24-30-33.s:3192   .text:00000d56 .L0
../src/ff-pic24-30-33.s:3190   .text:00000d52 .L0
../src/ff-pic24-30-33.s:3194   .text:00000d58 .L0
../src/ff-pic24-30-33.s:3192   .text:00000d56 .L0
../src/ff-pic24-30-33.s:3196   .text:00000d5a .L0
../src/ff-pic24-30-33.s:3194   .text:00000d58 .L0
../src/ff-pic24-30-33.s:3204   .text:00000d62 .L0
../src/ff-pic24-30-33.s:3196   .text:00000d5a .L0
../src/ff-pic24-30-33.s:3214   .text:00000d6e .L0
../src/ff-pic24-30-33.s:3204   .text:00000d62 .L0
../src/ff-pic24-30-33.s:3215   .text:00000d70 .L0
../src/ff-pic24-30-33.s:3214   .text:00000d6e .L0
../src/ff-pic24-30-33.s:3223   .text:00000d7e .L0
../src/ff-pic24-30-33.s:3215   .text:00000d70 .L0
../src/ff-pic24-30-33.s:3224   .text:00000d80 .L0
../src/ff-pic24-30-33.s:3223   .text:00000d7e .L0
../src/ff-pic24-30-33.s:3225   .text:00000d82 .L0
../src/ff-pic24-30-33.s:3224   .text:00000d80 .L0
../src/ff-pic24-30-33.s:3226   .text:00000d84 .L0
../src/ff-pic24-30-33.s:3225   .text:00000d82 .L0
../src/ff-pic24-30-33.s:3234   .text:00000d94 .L0
../src/ff-pic24-30-33.s:3226   .text:00000d84 .L0
../src/ff-pic24-30-33.s:3235   .text:00000d96 .L0
../src/ff-pic24-30-33.s:3234   .text:00000d94 .L0
../src/ff-pic24-30-33.s:3236   .text:00000d9a .L0
../src/ff-pic24-30-33.s:3235   .text:00000d96 .L0
../src/ff-pic24-30-33.s:3237   .text:00000d9c .L0
../src/ff-pic24-30-33.s:3236   .text:00000d9a .L0
../src/ff-pic24-30-33.s:3245   .text:00000da6 .L0
../src/ff-pic24-30-33.s:3237   .text:00000d9c .L0
../src/ff-pic24-30-33.s:3246   .text:00000da8 .L0
../src/ff-pic24-30-33.s:3245   .text:00000da6 .L0
../src/ff-pic24-30-33.s:3247   .text:00000daa .L0
../src/ff-pic24-30-33.s:3246   .text:00000da8 .L0
../src/ff-pic24-30-33.s:3248   .text:00000dac .L0
../src/ff-pic24-30-33.s:3247   .text:00000daa .L0
../src/ff-pic24-30-33.s:3249   .text:00000dae .L0
../src/ff-pic24-30-33.s:3248   .text:00000dac .L0
../src/ff-pic24-30-33.s:3257   .text:00000dbe .L0
../src/ff-pic24-30-33.s:3249   .text:00000dae .L0
../src/ff-pic24-30-33.s:3258   .text:00000dc0 .L0
../src/ff-pic24-30-33.s:3257   .text:00000dbe .L0
../src/ff-pic24-30-33.s:3259   .text:00000dc2 .L0
../src/ff-pic24-30-33.s:3258   .text:00000dc0 .L0
../src/ff-pic24-30-33.s:3267   .text:00000dd2 .L0
../src/ff-pic24-30-33.s:3259   .text:00000dc2 .L0
../src/ff-pic24-30-33.s:3268   .text:00000dd4 .L0
MPLAB ASM30 Listing:  ../src/ff-pic24-30-33.s 			page 240


../src/ff-pic24-30-33.s:3267   .text:00000dd2 .L0
../src/ff-pic24-30-33.s:3269   .text:00000dd6 .L0
../src/ff-pic24-30-33.s:3268   .text:00000dd4 .L0
../src/ff-pic24-30-33.s:3270   .text:00000dd8 .L0
../src/ff-pic24-30-33.s:3269   .text:00000dd6 .L0
../src/ff-pic24-30-33.s:3271   .text:00000dda .L0
../src/ff-pic24-30-33.s:3270   .text:00000dd8 .L0
../src/ff-pic24-30-33.s:3279   .text:00000de4 .L0
../src/ff-pic24-30-33.s:3271   .text:00000dda .L0
../src/ff-pic24-30-33.s:3280   .text:00000de8 .L0
../src/ff-pic24-30-33.s:3279   .text:00000de4 .L0
../src/ff-pic24-30-33.s:3288   .text:00000df0 .L0
../src/ff-pic24-30-33.s:3280   .text:00000de8 .L0
../src/ff-pic24-30-33.s:3289   .text:00000df2 .L0
../src/ff-pic24-30-33.s:3288   .text:00000df0 .L0
../src/ff-pic24-30-33.s:3290   .text:00000df4 .L0
../src/ff-pic24-30-33.s:3289   .text:00000df2 .L0
../src/ff-pic24-30-33.s:3291   .text:00000df6 .L0
../src/ff-pic24-30-33.s:3290   .text:00000df4 .L0
../src/ff-pic24-30-33.s:3299   .text:00000dfe .L0
../src/ff-pic24-30-33.s:3291   .text:00000df6 .L0
../src/ff-pic24-30-33.s:3300   .text:00000e00 .L0
../src/ff-pic24-30-33.s:3299   .text:00000dfe .L0
../src/ff-pic24-30-33.s:3301   .text:00000e02 .L0
../src/ff-pic24-30-33.s:3300   .text:00000e00 .L0
../src/ff-pic24-30-33.s:3309   .text:00000e0c .L0
../src/ff-pic24-30-33.s:3301   .text:00000e02 .L0
../src/ff-pic24-30-33.s:3310   .text:00000e0e .L0
../src/ff-pic24-30-33.s:3309   .text:00000e0c .L0
../src/ff-pic24-30-33.s:3311   .text:00000e10 .L0
../src/ff-pic24-30-33.s:3310   .text:00000e0e .L0
../src/ff-pic24-30-33.s:3331   .text:00000e18 .L0
../src/ff-pic24-30-33.s:3311   .text:00000e10 .L0
../src/ff-pic24-30-33.s:3332   .text:00000e1a .L0
../src/ff-pic24-30-33.s:3331   .text:00000e18 .L0
../src/ff-pic24-30-33.s:3340   .text:00000e20 .L0
../src/ff-pic24-30-33.s:3332   .text:00000e1a .L0
../src/ff-pic24-30-33.s:3341   .text:00000e22 .L0
../src/ff-pic24-30-33.s:3340   .text:00000e20 .L0
../src/ff-pic24-30-33.s:3342   .text:00000e24 .L0
../src/ff-pic24-30-33.s:3341   .text:00000e22 .L0
../src/ff-pic24-30-33.s:3352   .text:00000e2a .L0
../src/ff-pic24-30-33.s:3342   .text:00000e24 .L0
../src/ff-pic24-30-33.s:3361   .text:00000e34 .L0
../src/ff-pic24-30-33.s:3352   .text:00000e2a .L0
../src/ff-pic24-30-33.s:3362   .text:00000e38 .L0
../src/ff-pic24-30-33.s:3361   .text:00000e34 .L0
../src/ff-pic24-30-33.s:3363   .text:00000e3a .L0
../src/ff-pic24-30-33.s:3362   .text:00000e38 .L0
../src/ff-pic24-30-33.s:3371   .text:00000e46 .L0
../src/ff-pic24-30-33.s:3363   .text:00000e3a .L0
../src/ff-pic24-30-33.s:3372   .text:00000e48 .L0
../src/ff-pic24-30-33.s:3371   .text:00000e46 .L0
../src/ff-pic24-30-33.s:3380   .text:00000e50 .L0
../src/ff-pic24-30-33.s:3372   .text:00000e48 .L0
../src/ff-pic24-30-33.s:3381   .text:00000e52 .L0
../src/ff-pic24-30-33.s:3380   .text:00000e50 .L0
MPLAB ASM30 Listing:  ../src/ff-pic24-30-33.s 			page 241


../src/ff-pic24-30-33.s:3382   .text:00000e54 .L0
../src/ff-pic24-30-33.s:3381   .text:00000e52 .L0
../src/ff-pic24-30-33.s:3383   .text:00000e56 .L0
../src/ff-pic24-30-33.s:3382   .text:00000e54 .L0
../src/ff-pic24-30-33.s:3391   .text:00000e60 .L0
../src/ff-pic24-30-33.s:3383   .text:00000e56 .L0
../src/ff-pic24-30-33.s:3392   .text:00000e62 .L0
../src/ff-pic24-30-33.s:3391   .text:00000e60 .L0
../src/ff-pic24-30-33.s:3393   .text:00000e64 .L0
../src/ff-pic24-30-33.s:3392   .text:00000e62 .L0
../src/ff-pic24-30-33.s:3394   .text:00000e66 .L0
../src/ff-pic24-30-33.s:3393   .text:00000e64 .L0
../src/ff-pic24-30-33.s:3402   .text:00000e72 .L0
../src/ff-pic24-30-33.s:3394   .text:00000e66 .L0
../src/ff-pic24-30-33.s:3403   .text:00000e74 .L0
../src/ff-pic24-30-33.s:3402   .text:00000e72 .L0
../src/ff-pic24-30-33.s:3404   .text:00000e76 .L0
../src/ff-pic24-30-33.s:3403   .text:00000e74 .L0
../src/ff-pic24-30-33.s:3412   .text:00000e80 .L0
../src/ff-pic24-30-33.s:3404   .text:00000e76 .L0
../src/ff-pic24-30-33.s:3413   .text:00000e82 .L0
../src/ff-pic24-30-33.s:3412   .text:00000e80 .L0
../src/ff-pic24-30-33.s:3414   .text:00000e84 .L0
../src/ff-pic24-30-33.s:3413   .text:00000e82 .L0
../src/ff-pic24-30-33.s:3415   .text:00000e86 .L0
../src/ff-pic24-30-33.s:3414   .text:00000e84 .L0
../src/ff-pic24-30-33.s:3423   .text:00000e94 .L0
../src/ff-pic24-30-33.s:3415   .text:00000e86 .L0
../src/ff-pic24-30-33.s:3424   .text:00000e96 .L0
../src/ff-pic24-30-33.s:3423   .text:00000e94 .L0
../src/ff-pic24-30-33.s:3425   .text:00000e9a .L0
../src/ff-pic24-30-33.s:3424   .text:00000e96 .L0
../src/ff-pic24-30-33.s:3433   .text:00000ea6 .L0
../src/ff-pic24-30-33.s:3425   .text:00000e9a .L0
../src/ff-pic24-30-33.s:3434   .text:00000ea8 .L0
../src/ff-pic24-30-33.s:3433   .text:00000ea6 .L0
../src/ff-pic24-30-33.s:3442   .text:00000eb2 .L0
../src/ff-pic24-30-33.s:3434   .text:00000ea8 .L0
../src/ff-pic24-30-33.s:3443   .text:00000eb4 .L0
../src/ff-pic24-30-33.s:3442   .text:00000eb2 .L0
../src/ff-pic24-30-33.s:3451   .text:00000ebe .L0
../src/ff-pic24-30-33.s:3443   .text:00000eb4 .L0
../src/ff-pic24-30-33.s:3452   .text:00000ec0 .L0
../src/ff-pic24-30-33.s:3451   .text:00000ebe .L0
../src/ff-pic24-30-33.s:3460   .text:00000eca .L0
../src/ff-pic24-30-33.s:3452   .text:00000ec0 .L0
../src/ff-pic24-30-33.s:3463   .text:00000ecc .L0
../src/ff-pic24-30-33.s:3460   .text:00000eca .L0
../src/ff-pic24-30-33.s:3464   .text:00000ed0 .L0
../src/ff-pic24-30-33.s:3463   .text:00000ecc .L0
../src/ff-pic24-30-33.s:3472   .text:00000eda .L0
../src/ff-pic24-30-33.s:3464   .text:00000ed0 .L0
../src/ff-pic24-30-33.s:3473   .text:00000edc .L0
../src/ff-pic24-30-33.s:3472   .text:00000eda .L0
../src/ff-pic24-30-33.s:3474   .text:00000ede .L0
../src/ff-pic24-30-33.s:3473   .text:00000edc .L0
../src/ff-pic24-30-33.s:3475   .text:00000ee0 .L0
MPLAB ASM30 Listing:  ../src/ff-pic24-30-33.s 			page 242


../src/ff-pic24-30-33.s:3474   .text:00000ede .L0
../src/ff-pic24-30-33.s:3476   .text:00000ee2 .L0
../src/ff-pic24-30-33.s:3475   .text:00000ee0 .L0
../src/ff-pic24-30-33.s:3484   .text:00000eec .L0
../src/ff-pic24-30-33.s:3476   .text:00000ee2 .L0
../src/ff-pic24-30-33.s:3485   .text:00000eee .L0
../src/ff-pic24-30-33.s:3484   .text:00000eec .L0
../src/ff-pic24-30-33.s:3486   .text:00000ef0 .L0
../src/ff-pic24-30-33.s:3485   .text:00000eee .L0
../src/ff-pic24-30-33.s:3487   .text:00000ef2 .L0
../src/ff-pic24-30-33.s:3486   .text:00000ef0 .L0
../src/ff-pic24-30-33.s:3488   .text:00000ef4 .L0
../src/ff-pic24-30-33.s:3487   .text:00000ef2 .L0
../src/ff-pic24-30-33.s:3496   .text:00000f00 .L0
../src/ff-pic24-30-33.s:3488   .text:00000ef4 .L0
../src/ff-pic24-30-33.s:3497   .text:00000f02 .L0
../src/ff-pic24-30-33.s:3496   .text:00000f00 .L0
../src/ff-pic24-30-33.s:3505   .text:00000f0c .L0
../src/ff-pic24-30-33.s:3497   .text:00000f02 .L0
../src/ff-pic24-30-33.s:3506   .text:00000f0e .L0
../src/ff-pic24-30-33.s:3505   .text:00000f0c .L0
../src/ff-pic24-30-33.s:3514   .text:00000f1a .L0
../src/ff-pic24-30-33.s:3506   .text:00000f0e .L0
../src/ff-pic24-30-33.s:3515   .text:00000f1c .L0
../src/ff-pic24-30-33.s:3514   .text:00000f1a .L0
../src/ff-pic24-30-33.s:3516   .text:00000f1e .L0
../src/ff-pic24-30-33.s:3515   .text:00000f1c .L0
../src/ff-pic24-30-33.s:3517   .text:00000f20 .L0
../src/ff-pic24-30-33.s:3516   .text:00000f1e .L0
../src/ff-pic24-30-33.s:3518   .text:00000f22 .L0
../src/ff-pic24-30-33.s:3517   .text:00000f20 .L0
../src/ff-pic24-30-33.s:3526   .text:00000f2a .L0
../src/ff-pic24-30-33.s:3518   .text:00000f22 .L0
../src/ff-pic24-30-33.s:3527   .text:00000f2e .L0
../src/ff-pic24-30-33.s:3526   .text:00000f2a .L0
../src/ff-pic24-30-33.s:3528   .text:00000f30 .L0
../src/ff-pic24-30-33.s:3527   .text:00000f2e .L0
../src/ff-pic24-30-33.s:3529   .text:00000f34 .L0
../src/ff-pic24-30-33.s:3528   .text:00000f30 .L0
../src/ff-pic24-30-33.s:3537   .text:00000f40 .L0
../src/ff-pic24-30-33.s:3529   .text:00000f34 .L0
../src/ff-pic24-30-33.s:3538   .text:00000f42 .L0
../src/ff-pic24-30-33.s:3537   .text:00000f40 .L0
../src/ff-pic24-30-33.s:3547   .text:00000f50 .L0
../src/ff-pic24-30-33.s:3538   .text:00000f42 .L0
../src/ff-pic24-30-33.s:3548   .text:00000f52 .L0
../src/ff-pic24-30-33.s:3547   .text:00000f50 .L0
../src/ff-pic24-30-33.s:3549   .text:00000f54 .L0
../src/ff-pic24-30-33.s:3548   .text:00000f52 .L0
../src/ff-pic24-30-33.s:3550   .text:00000f56 .L0
../src/ff-pic24-30-33.s:3549   .text:00000f54 .L0
../src/ff-pic24-30-33.s:3551   .text:00000f58 .L0
../src/ff-pic24-30-33.s:3550   .text:00000f56 .L0
../src/ff-pic24-30-33.s:3553   .text:00000f5a .L0
../src/ff-pic24-30-33.s:3551   .text:00000f58 .L0
../src/ff-pic24-30-33.s:3554   .text:00000f5c .L0
../src/ff-pic24-30-33.s:3553   .text:00000f5a .L0
MPLAB ASM30 Listing:  ../src/ff-pic24-30-33.s 			page 243


../src/ff-pic24-30-33.s:3562   .text:00000f66 .L0
../src/ff-pic24-30-33.s:3554   .text:00000f5c .L0
../src/ff-pic24-30-33.s:3563   .text:00000f68 .L0
../src/ff-pic24-30-33.s:3562   .text:00000f66 .L0
../src/ff-pic24-30-33.s:3564   .text:00000f6a .L0
../src/ff-pic24-30-33.s:3563   .text:00000f68 .L0
../src/ff-pic24-30-33.s:3565   .text:00000f6c .L0
../src/ff-pic24-30-33.s:3564   .text:00000f6a .L0
../src/ff-pic24-30-33.s:3566   .text:00000f6e .L0
../src/ff-pic24-30-33.s:3565   .text:00000f6c .L0
../src/ff-pic24-30-33.s:3568   .text:00000f70 .L0
../src/ff-pic24-30-33.s:3566   .text:00000f6e .L0
../src/ff-pic24-30-33.s:3569   .text:00000f72 .L0
../src/ff-pic24-30-33.s:3568   .text:00000f70 .L0
../src/ff-pic24-30-33.s:3577   .text:00000f7c .L0
../src/ff-pic24-30-33.s:3569   .text:00000f72 .L0
../src/ff-pic24-30-33.s:3578   .text:00000f7e .L0
../src/ff-pic24-30-33.s:3577   .text:00000f7c .L0
../src/ff-pic24-30-33.s:3579   .text:00000f80 .L0
../src/ff-pic24-30-33.s:3578   .text:00000f7e .L0
../src/ff-pic24-30-33.s:3580   .text:00000f82 .L0
../src/ff-pic24-30-33.s:3579   .text:00000f80 .L0
../src/ff-pic24-30-33.s:3581   .text:00000f84 .L0
../src/ff-pic24-30-33.s:3580   .text:00000f82 .L0
../src/ff-pic24-30-33.s:3583   .text:00000f86 .L0
../src/ff-pic24-30-33.s:3581   .text:00000f84 .L0
../src/ff-pic24-30-33.s:3584   .text:00000f88 .L0
../src/ff-pic24-30-33.s:3583   .text:00000f86 .L0
../src/ff-pic24-30-33.s:3592   .text:00000f8e .L0
../src/ff-pic24-30-33.s:3584   .text:00000f88 .L0
../src/ff-pic24-30-33.s:3593   .text:00000f90 .L0
../src/ff-pic24-30-33.s:3592   .text:00000f8e .L0
../src/ff-pic24-30-33.s:3601   .text:00000f96 .L0
../src/ff-pic24-30-33.s:3593   .text:00000f90 .L0
../src/ff-pic24-30-33.s:3602   .text:00000f9a .L0
../src/ff-pic24-30-33.s:3601   .text:00000f96 .L0
../src/ff-pic24-30-33.s:3611   .text:00000fa6 .L0
../src/ff-pic24-30-33.s:3602   .text:00000f9a .L0
../src/ff-pic24-30-33.s:3612   .text:00000fa8 .L0
../src/ff-pic24-30-33.s:3611   .text:00000fa6 .L0
../src/ff-pic24-30-33.s:3613   .text:00000faa .L0
../src/ff-pic24-30-33.s:3612   .text:00000fa8 .L0
../src/ff-pic24-30-33.s:3615   .text:00000fac .L0
../src/ff-pic24-30-33.s:3613   .text:00000faa .L0
../src/ff-pic24-30-33.s:3617   .text:00000fae .L0
../src/ff-pic24-30-33.s:3615   .text:00000fac .L0
../src/ff-pic24-30-33.s:3619   .text:00000fb0 .L0
../src/ff-pic24-30-33.s:3617   .text:00000fae .L0
../src/ff-pic24-30-33.s:3620   .text:00000fb2 .L0
../src/ff-pic24-30-33.s:3619   .text:00000fb0 .L0
../src/ff-pic24-30-33.s:3621   .text:00000fb4 .L0
../src/ff-pic24-30-33.s:3620   .text:00000fb2 .L0
../src/ff-pic24-30-33.s:3623   .text:00000fb6 .L0
../src/ff-pic24-30-33.s:3621   .text:00000fb4 .L0
../src/ff-pic24-30-33.s:3624   .text:00000fb8 .L0
../src/ff-pic24-30-33.s:3623   .text:00000fb6 .L0
../src/ff-pic24-30-33.s:3625   .text:00000fba .L0
MPLAB ASM30 Listing:  ../src/ff-pic24-30-33.s 			page 244


../src/ff-pic24-30-33.s:3624   .text:00000fb8 .L0
../src/ff-pic24-30-33.s:3626   .text:00000fbc .L0
../src/ff-pic24-30-33.s:3625   .text:00000fba .L0
../src/ff-pic24-30-33.s:3628   .text:00000fbe .L0
../src/ff-pic24-30-33.s:3626   .text:00000fbc .L0
../src/ff-pic24-30-33.s:3629   .text:00000fc0 .L0
../src/ff-pic24-30-33.s:3628   .text:00000fbe .L0
../src/ff-pic24-30-33.s:3630   .text:00000fc2 .L0
../src/ff-pic24-30-33.s:3629   .text:00000fc0 .L0
../src/ff-pic24-30-33.s:3632   .text:00000fc4 .L0
../src/ff-pic24-30-33.s:3630   .text:00000fc2 .L0
../src/ff-pic24-30-33.s:3633   .text:00000fc6 .L0
../src/ff-pic24-30-33.s:3632   .text:00000fc4 .L0
../src/ff-pic24-30-33.s:3634   .text:00000fc8 .L0
../src/ff-pic24-30-33.s:3633   .text:00000fc6 .L0
../src/ff-pic24-30-33.s:3635   .text:00000fca .L0
../src/ff-pic24-30-33.s:3634   .text:00000fc8 .L0
../src/ff-pic24-30-33.s:3636   .text:00000fcc .L0
../src/ff-pic24-30-33.s:3635   .text:00000fca .L0
../src/ff-pic24-30-33.s:3637   .text:00000fce .L0
../src/ff-pic24-30-33.s:3636   .text:00000fcc .L0
../src/ff-pic24-30-33.s:3638   .text:00000fd0 .L0
../src/ff-pic24-30-33.s:3637   .text:00000fce .L0
../src/ff-pic24-30-33.s:3639   .text:00000fd2 .L0
../src/ff-pic24-30-33.s:3638   .text:00000fd0 .L0
../src/ff-pic24-30-33.s:3641   .text:00000fd4 .L0
../src/ff-pic24-30-33.s:3639   .text:00000fd2 .L0
../src/ff-pic24-30-33.s:3642   .text:00000fd6 .L0
../src/ff-pic24-30-33.s:3641   .text:00000fd4 .L0
../src/ff-pic24-30-33.s:3644   .text:00000fd8 .L0
../src/ff-pic24-30-33.s:3642   .text:00000fd6 .L0
../src/ff-pic24-30-33.s:3645   .text:00000fda .L0
../src/ff-pic24-30-33.s:3644   .text:00000fd8 .L0
../src/ff-pic24-30-33.s:3646   .text:00000fdc .L0
../src/ff-pic24-30-33.s:3645   .text:00000fda .L0
../src/ff-pic24-30-33.s:3647   .text:00000fde .L0
../src/ff-pic24-30-33.s:3646   .text:00000fdc .L0
../src/ff-pic24-30-33.s:3648   .text:00000fe0 .L0
../src/ff-pic24-30-33.s:3647   .text:00000fde .L0
../src/ff-pic24-30-33.s:3649   .text:00000fe4 .L0
../src/ff-pic24-30-33.s:3648   .text:00000fe0 .L0
../src/ff-pic24-30-33.s:3650   .text:00000fe6 .L0
../src/ff-pic24-30-33.s:3649   .text:00000fe4 .L0
../src/ff-pic24-30-33.s:3651   .text:00000fe8 .L0
../src/ff-pic24-30-33.s:3650   .text:00000fe6 .L0
../src/ff-pic24-30-33.s:3652   .text:00000fea .L0
../src/ff-pic24-30-33.s:3651   .text:00000fe8 .L0
../src/ff-pic24-30-33.s:3653   .text:00000fec .L0
../src/ff-pic24-30-33.s:3652   .text:00000fea .L0
../src/ff-pic24-30-33.s:3654   .text:00000fee .L0
../src/ff-pic24-30-33.s:3653   .text:00000fec .L0
../src/ff-pic24-30-33.s:3655   .text:00000ff0 .L0
../src/ff-pic24-30-33.s:3654   .text:00000fee .L0
../src/ff-pic24-30-33.s:3656   .text:00000ff2 .L0
../src/ff-pic24-30-33.s:3655   .text:00000ff0 .L0
../src/ff-pic24-30-33.s:3657   .text:00000ff4 .L0
../src/ff-pic24-30-33.s:3656   .text:00000ff2 .L0
MPLAB ASM30 Listing:  ../src/ff-pic24-30-33.s 			page 245


../src/ff-pic24-30-33.s:3658   .text:00000ff6 .L0
../src/ff-pic24-30-33.s:3657   .text:00000ff4 .L0
../src/ff-pic24-30-33.s:3660   .text:00000ff8 .L0
../src/ff-pic24-30-33.s:3658   .text:00000ff6 .L0
../src/ff-pic24-30-33.s:3661   .text:00000ffa .L0
../src/ff-pic24-30-33.s:3660   .text:00000ff8 .L0
../src/ff-pic24-30-33.s:3662   .text:00000ffc .L0
../src/ff-pic24-30-33.s:3661   .text:00000ffa .L0
../src/ff-pic24-30-33.s:3663   .text:00000ffe .L0
../src/ff-pic24-30-33.s:3662   .text:00000ffc .L0
../src/ff-pic24-30-33.s:3664   .text:00001000 .L0
../src/ff-pic24-30-33.s:3663   .text:00000ffe .L0
../src/ff-pic24-30-33.s:3665   .text:00001002 .L0
../src/ff-pic24-30-33.s:3664   .text:00001000 .L0
../src/ff-pic24-30-33.s:3666   .text:00001004 .L0
../src/ff-pic24-30-33.s:3665   .text:00001002 .L0
../src/ff-pic24-30-33.s:3667   .text:00001006 .L0
../src/ff-pic24-30-33.s:3666   .text:00001004 .L0
../src/ff-pic24-30-33.s:3668   .text:00001008 .L0
../src/ff-pic24-30-33.s:3667   .text:00001006 .L0
../src/ff-pic24-30-33.s:3670   .text:0000100a .L0
../src/ff-pic24-30-33.s:3668   .text:00001008 .L0
../src/ff-pic24-30-33.s:3671   .text:0000100c .L0
../src/ff-pic24-30-33.s:3670   .text:0000100a .L0
../src/ff-pic24-30-33.s:3672   .text:0000100e .L0
../src/ff-pic24-30-33.s:3671   .text:0000100c .L0
../src/ff-pic24-30-33.s:3679   .text:00001016 .L0
../src/ff-pic24-30-33.s:3672   .text:0000100e .L0
../src/ff-pic24-30-33.s:3689   .text:00001020 .L0
../src/ff-pic24-30-33.s:3679   .text:00001016 .L0
../src/ff-pic24-30-33.s:3690   .text:00001022 .L0
../src/ff-pic24-30-33.s:3689   .text:00001020 .L0
../src/ff-pic24-30-33.s:3691   .text:00001026 .L0
../src/ff-pic24-30-33.s:3690   .text:00001022 .L0
../src/ff-pic24-30-33.s:3692   .text:00001028 .L0
../src/ff-pic24-30-33.s:3691   .text:00001026 .L0
../src/ff-pic24-30-33.s:3693   .text:0000102a .L0
../src/ff-pic24-30-33.s:3692   .text:00001028 .L0
../src/ff-pic24-30-33.s:3695   .text:0000102c .L0
../src/ff-pic24-30-33.s:3693   .text:0000102a .L0
../src/ff-pic24-30-33.s:3696   .text:0000102e .L0
../src/ff-pic24-30-33.s:3695   .text:0000102c .L0
../src/ff-pic24-30-33.s:3697   .text:00001030 .L0
../src/ff-pic24-30-33.s:3696   .text:0000102e .L0
../src/ff-pic24-30-33.s:3699   .text:00001032 .L0
../src/ff-pic24-30-33.s:3697   .text:00001030 .L0
../src/ff-pic24-30-33.s:3700   .text:00001034 .L0
../src/ff-pic24-30-33.s:3699   .text:00001032 .L0
../src/ff-pic24-30-33.s:3701   .text:00001036 .L0
../src/ff-pic24-30-33.s:3700   .text:00001034 .L0
../src/ff-pic24-30-33.s:3702   .text:00001038 .L0
../src/ff-pic24-30-33.s:3701   .text:00001036 .L0
../src/ff-pic24-30-33.s:3703   .text:0000103a .L0
../src/ff-pic24-30-33.s:3702   .text:00001038 .L0
../src/ff-pic24-30-33.s:3713   .text:00001042 .L0
../src/ff-pic24-30-33.s:3703   .text:0000103a .L0
../src/ff-pic24-30-33.s:3714   .text:00001044 .L0
MPLAB ASM30 Listing:  ../src/ff-pic24-30-33.s 			page 246


../src/ff-pic24-30-33.s:3713   .text:00001042 .L0
../src/ff-pic24-30-33.s:3715   .text:00001046 .L0
../src/ff-pic24-30-33.s:3714   .text:00001044 .L0
../src/ff-pic24-30-33.s:3716   .text:0000104a .L0
../src/ff-pic24-30-33.s:3715   .text:00001046 .L0
../src/ff-pic24-30-33.s:3717   .text:0000104c .L0
../src/ff-pic24-30-33.s:3716   .text:0000104a .L0
../src/ff-pic24-30-33.s:3718   .text:0000104e .L0
../src/ff-pic24-30-33.s:3717   .text:0000104c .L0
../src/ff-pic24-30-33.s:3719   .text:00001050 .L0
../src/ff-pic24-30-33.s:3718   .text:0000104e .L0
../src/ff-pic24-30-33.s:3720   .text:00001052 .L0
../src/ff-pic24-30-33.s:3719   .text:00001050 .L0
../src/ff-pic24-30-33.s:3722   .text:00001054 .L0
../src/ff-pic24-30-33.s:3720   .text:00001052 .L0
../src/ff-pic24-30-33.s:3730   .text:0000105e .L0
../src/ff-pic24-30-33.s:3722   .text:00001054 .L0
../src/ff-pic24-30-33.s:3731   .text:00001060 .L0
../src/ff-pic24-30-33.s:3730   .text:0000105e .L0
../src/ff-pic24-30-33.s:3733   .text:00001062 .L0
../src/ff-pic24-30-33.s:3731   .text:00001060 .L0
../src/ff-pic24-30-33.s:3734   .text:00001064 .L0
../src/ff-pic24-30-33.s:3733   .text:00001062 .L0
../src/ff-pic24-30-33.s:3736   .text:00001066 .L0
../src/ff-pic24-30-33.s:3734   .text:00001064 .L0
../src/ff-pic24-30-33.s:3737   .text:00001068 .L0
../src/ff-pic24-30-33.s:3736   .text:00001066 .L0
../src/ff-pic24-30-33.s:3738   .text:0000106a .L0
../src/ff-pic24-30-33.s:3737   .text:00001068 .L0
../src/ff-pic24-30-33.s:3739   .text:0000106c .L0
../src/ff-pic24-30-33.s:3738   .text:0000106a .L0
../src/ff-pic24-30-33.s:3740   .text:0000106e .L0
../src/ff-pic24-30-33.s:3739   .text:0000106c .L0
../src/ff-pic24-30-33.s:3750   .text:00001078 .L0
../src/ff-pic24-30-33.s:3740   .text:0000106e .L0
../src/ff-pic24-30-33.s:3751   .text:0000107a .L0
../src/ff-pic24-30-33.s:3750   .text:00001078 .L0
../src/ff-pic24-30-33.s:3752   .text:0000107c .L0
../src/ff-pic24-30-33.s:3751   .text:0000107a .L0
../src/ff-pic24-30-33.s:3753   .text:0000107e .L0
../src/ff-pic24-30-33.s:3752   .text:0000107c .L0
../src/ff-pic24-30-33.s:3754   .text:00001080 .L0
../src/ff-pic24-30-33.s:3753   .text:0000107e .L0
../src/ff-pic24-30-33.s:3755   .text:00001082 .L0
../src/ff-pic24-30-33.s:3754   .text:00001080 .L0
../src/ff-pic24-30-33.s:3756   .text:00001084 .L0
../src/ff-pic24-30-33.s:3755   .text:00001082 .L0
../src/ff-pic24-30-33.s:3757   .text:00001086 .L0
../src/ff-pic24-30-33.s:3756   .text:00001084 .L0
../src/ff-pic24-30-33.s:3758   .text:00001088 .L0
../src/ff-pic24-30-33.s:3757   .text:00001086 .L0
../src/ff-pic24-30-33.s:3759   .text:0000108a .L0
../src/ff-pic24-30-33.s:3758   .text:00001088 .L0
../src/ff-pic24-30-33.s:3760   .text:0000108c .L0
../src/ff-pic24-30-33.s:3759   .text:0000108a .L0
../src/ff-pic24-30-33.s:3761   .text:0000108e .L0
../src/ff-pic24-30-33.s:3760   .text:0000108c .L0
MPLAB ASM30 Listing:  ../src/ff-pic24-30-33.s 			page 247


../src/ff-pic24-30-33.s:3771   .text:00001096 .L0
../src/ff-pic24-30-33.s:3761   .text:0000108e .L0
../src/ff-pic24-30-33.s:3773   .text:0000109a .L0
../src/ff-pic24-30-33.s:3771   .text:00001096 .L0
../src/ff-pic24-30-33.s:3774   .text:0000109c .L0
../src/ff-pic24-30-33.s:3773   .text:0000109a .L0
../src/ff-pic24-30-33.s:3775   .text:0000109e .L0
../src/ff-pic24-30-33.s:3774   .text:0000109c .L0
../src/ff-pic24-30-33.s:3785   .text:000010a8 .L0
../src/ff-pic24-30-33.s:3775   .text:0000109e .L0
../src/ff-pic24-30-33.s:3786   .text:000010ac .L0
../src/ff-pic24-30-33.s:3785   .text:000010a8 .L0
../src/ff-pic24-30-33.s:3787   .text:000010ae .L0
../src/ff-pic24-30-33.s:3786   .text:000010ac .L0
../src/ff-pic24-30-33.s:3788   .text:000010b0 .L0
../src/ff-pic24-30-33.s:3787   .text:000010ae .L0
../src/ff-pic24-30-33.s:3789   .text:000010b2 .L0
../src/ff-pic24-30-33.s:3788   .text:000010b0 .L0
../src/ff-pic24-30-33.s:3790   .text:000010b4 .L0
../src/ff-pic24-30-33.s:3789   .text:000010b2 .L0
../src/ff-pic24-30-33.s:3791   .text:000010b6 .L0
../src/ff-pic24-30-33.s:3790   .text:000010b4 .L0
../src/ff-pic24-30-33.s:3792   .text:000010b8 .L0
../src/ff-pic24-30-33.s:3791   .text:000010b6 .L0
../src/ff-pic24-30-33.s:3803   .text:000010c2 .L0
../src/ff-pic24-30-33.s:3792   .text:000010b8 .L0
../src/ff-pic24-30-33.s:3804   .text:000010c4 .L0
../src/ff-pic24-30-33.s:3803   .text:000010c2 .L0
../src/ff-pic24-30-33.s:3806   .text:000010c8 .L0
../src/ff-pic24-30-33.s:3804   .text:000010c4 .L0
../src/ff-pic24-30-33.s:3815   .text:000010d0 .L0
../src/ff-pic24-30-33.s:3806   .text:000010c8 .L0
../src/ff-pic24-30-33.s:3816   .text:000010d2 .L0
../src/ff-pic24-30-33.s:3815   .text:000010d0 .L0
../src/ff-pic24-30-33.s:3817   .text:000010d4 .L0
../src/ff-pic24-30-33.s:3816   .text:000010d2 .L0
../src/ff-pic24-30-33.s:3818   .text:000010d6 .L0
../src/ff-pic24-30-33.s:3817   .text:000010d4 .L0
../src/ff-pic24-30-33.s:3819   .text:000010d8 .L0
../src/ff-pic24-30-33.s:3818   .text:000010d6 .L0
../src/ff-pic24-30-33.s:3820   .text:000010da .L0
../src/ff-pic24-30-33.s:3819   .text:000010d8 .L0
../src/ff-pic24-30-33.s:3830   .text:000010e8 .L0
../src/ff-pic24-30-33.s:3820   .text:000010da .L0
../src/ff-pic24-30-33.s:3831   .text:000010ea .L0
../src/ff-pic24-30-33.s:3830   .text:000010e8 .L0
../src/ff-pic24-30-33.s:3832   .text:000010ec .L0
../src/ff-pic24-30-33.s:3831   .text:000010ea .L0
../src/ff-pic24-30-33.s:3833   .text:000010ee .L0
../src/ff-pic24-30-33.s:3832   .text:000010ec .L0
../src/ff-pic24-30-33.s:3834   .text:000010f0 .L0
../src/ff-pic24-30-33.s:3833   .text:000010ee .L0
../src/ff-pic24-30-33.s:3835   .text:000010f2 .L0
../src/ff-pic24-30-33.s:3834   .text:000010f0 .L0
../src/ff-pic24-30-33.s:3844   .text:000010fc .L0
../src/ff-pic24-30-33.s:3835   .text:000010f2 .L0
../src/ff-pic24-30-33.s:3845   .text:000010fe .L0
MPLAB ASM30 Listing:  ../src/ff-pic24-30-33.s 			page 248


../src/ff-pic24-30-33.s:3844   .text:000010fc .L0
../src/ff-pic24-30-33.s:3846   .text:00001100 .L0
../src/ff-pic24-30-33.s:3845   .text:000010fe .L0
../src/ff-pic24-30-33.s:3847   .text:00001102 .L0
../src/ff-pic24-30-33.s:3846   .text:00001100 .L0
../src/ff-pic24-30-33.s:3856   .text:00001108 .L0
../src/ff-pic24-30-33.s:3847   .text:00001102 .L0
../src/ff-pic24-30-33.s:3857   .text:0000110a .L0
../src/ff-pic24-30-33.s:3856   .text:00001108 .L0
../src/ff-pic24-30-33.s:3858   .text:0000110c .L0
../src/ff-pic24-30-33.s:3857   .text:0000110a .L0
../src/ff-pic24-30-33.s:3859   .text:0000110e .L0
../src/ff-pic24-30-33.s:3858   .text:0000110c .L0
../src/ff-pic24-30-33.s:3868   .text:00001116 .L0
../src/ff-pic24-30-33.s:3859   .text:0000110e .L0
../src/ff-pic24-30-33.s:3869   .text:00001118 .L0
../src/ff-pic24-30-33.s:3868   .text:00001116 .L0
../src/ff-pic24-30-33.s:3878   .text:00001120 .L0
../src/ff-pic24-30-33.s:3869   .text:00001118 .L0
../src/ff-pic24-30-33.s:3879   .text:00001122 .L0
../src/ff-pic24-30-33.s:3878   .text:00001120 .L0
../src/ff-pic24-30-33.s:3880   .text:00001124 .L0
../src/ff-pic24-30-33.s:3879   .text:00001122 .L0
../src/ff-pic24-30-33.s:3881   .text:00001126 .L0
../src/ff-pic24-30-33.s:3880   .text:00001124 .L0
../src/ff-pic24-30-33.s:3890   .text:0000112e .L0
../src/ff-pic24-30-33.s:3881   .text:00001126 .L0
../src/ff-pic24-30-33.s:3891   .text:00001130 .L0
../src/ff-pic24-30-33.s:3890   .text:0000112e .L0
../src/ff-pic24-30-33.s:3900   .text:00001138 .L0
../src/ff-pic24-30-33.s:3891   .text:00001130 .L0
../src/ff-pic24-30-33.s:3901   .text:0000113a .L0
../src/ff-pic24-30-33.s:3900   .text:00001138 .L0
../src/ff-pic24-30-33.s:3902   .text:0000113c .L0
../src/ff-pic24-30-33.s:3901   .text:0000113a .L0
../src/ff-pic24-30-33.s:3903   .text:0000113e .L0
../src/ff-pic24-30-33.s:3902   .text:0000113c .L0
../src/ff-pic24-30-33.s:3912   .text:00001146 .L0
../src/ff-pic24-30-33.s:3903   .text:0000113e .L0
../src/ff-pic24-30-33.s:3913   .text:00001148 .L0
../src/ff-pic24-30-33.s:3912   .text:00001146 .L0
../src/ff-pic24-30-33.s:3922   .text:00001152 .L0
../src/ff-pic24-30-33.s:3913   .text:00001148 .L0
../src/ff-pic24-30-33.s:3923   .text:00001154 .L0
../src/ff-pic24-30-33.s:3922   .text:00001152 .L0
../src/ff-pic24-30-33.s:3924   .text:00001156 .L0
../src/ff-pic24-30-33.s:3923   .text:00001154 .L0
../src/ff-pic24-30-33.s:3925   .text:00001158 .L0
../src/ff-pic24-30-33.s:3924   .text:00001156 .L0
../src/ff-pic24-30-33.s:3934   .text:00001160 .L0
../src/ff-pic24-30-33.s:3925   .text:00001158 .L0
../src/ff-pic24-30-33.s:3935   .text:00001162 .L0
../src/ff-pic24-30-33.s:3934   .text:00001160 .L0
../src/ff-pic24-30-33.s:3936   .text:00001164 .L0
../src/ff-pic24-30-33.s:3935   .text:00001162 .L0
../src/ff-pic24-30-33.s:3937   .text:00001166 .L0
../src/ff-pic24-30-33.s:3936   .text:00001164 .L0
MPLAB ASM30 Listing:  ../src/ff-pic24-30-33.s 			page 249


../src/ff-pic24-30-33.s:3947   .text:0000116c .L0
../src/ff-pic24-30-33.s:3937   .text:00001166 .L0
../src/ff-pic24-30-33.s:3948   .text:0000116e .L0
../src/ff-pic24-30-33.s:3947   .text:0000116c .L0
../src/ff-pic24-30-33.s:3949   .text:00001170 .L0
../src/ff-pic24-30-33.s:3948   .text:0000116e .L0
../src/ff-pic24-30-33.s:3958   .text:00001178 .L0
../src/ff-pic24-30-33.s:3949   .text:00001170 .L0
../src/ff-pic24-30-33.s:3959   .text:0000117a .L0
../src/ff-pic24-30-33.s:3958   .text:00001178 .L0
../src/ff-pic24-30-33.s:3960   .text:0000117c .L0
../src/ff-pic24-30-33.s:3959   .text:0000117a .L0
../src/ff-pic24-30-33.s:3969   .text:00001188 .L0
../src/ff-pic24-30-33.s:3960   .text:0000117c .L0
../src/ff-pic24-30-33.s:3970   .text:0000118a .L0
../src/ff-pic24-30-33.s:3969   .text:00001188 .L0
../src/ff-pic24-30-33.s:3971   .text:0000118c .L0
../src/ff-pic24-30-33.s:3970   .text:0000118a .L0
../src/ff-pic24-30-33.s:3972   .text:0000118e .L0
../src/ff-pic24-30-33.s:3971   .text:0000118c .L0
../src/ff-pic24-30-33.s:3981   .text:0000119a .L0
../src/ff-pic24-30-33.s:3972   .text:0000118e .L0
../src/ff-pic24-30-33.s:3982   .text:0000119c .L0
../src/ff-pic24-30-33.s:3981   .text:0000119a .L0
../src/ff-pic24-30-33.s:3983   .text:0000119e .L0
../src/ff-pic24-30-33.s:3982   .text:0000119c .L0
../src/ff-pic24-30-33.s:3984   .text:000011a0 .L0
../src/ff-pic24-30-33.s:3983   .text:0000119e .L0
../src/ff-pic24-30-33.s:3993   .text:000011aa .L0
../src/ff-pic24-30-33.s:3984   .text:000011a0 .L0
../src/ff-pic24-30-33.s:3994   .text:000011ac .L0
../src/ff-pic24-30-33.s:3993   .text:000011aa .L0
../src/ff-pic24-30-33.s:3995   .text:000011ae .L0
../src/ff-pic24-30-33.s:3994   .text:000011ac .L0
../src/ff-pic24-30-33.s:3996   .text:000011b0 .L0
../src/ff-pic24-30-33.s:3995   .text:000011ae .L0
../src/ff-pic24-30-33.s:3997   .text:000011b2 .L0
../src/ff-pic24-30-33.s:3996   .text:000011b0 .L0
../src/ff-pic24-30-33.s:3998   .text:000011b4 .L0
../src/ff-pic24-30-33.s:3997   .text:000011b2 .L0
../src/ff-pic24-30-33.s:4007   .text:000011ba .L0
../src/ff-pic24-30-33.s:3998   .text:000011b4 .L0
../src/ff-pic24-30-33.s:4008   .text:000011bc .L0
../src/ff-pic24-30-33.s:4007   .text:000011ba .L0
../src/ff-pic24-30-33.s:4009   .text:000011be .L0
../src/ff-pic24-30-33.s:4008   .text:000011bc .L0
../src/ff-pic24-30-33.s:4010   .text:000011c0 .L0
../src/ff-pic24-30-33.s:4009   .text:000011be .L0
../src/ff-pic24-30-33.s:4011   .text:000011c2 .L0
../src/ff-pic24-30-33.s:4010   .text:000011c0 .L0
../src/ff-pic24-30-33.s:4012   .text:000011c4 .L0
../src/ff-pic24-30-33.s:4011   .text:000011c2 .L0
../src/ff-pic24-30-33.s:4021   .text:000011cc .L0
../src/ff-pic24-30-33.s:4012   .text:000011c4 .L0
../src/ff-pic24-30-33.s:4022   .text:000011ce .L0
../src/ff-pic24-30-33.s:4021   .text:000011cc .L0
../src/ff-pic24-30-33.s:4023   .text:000011d0 .L0
MPLAB ASM30 Listing:  ../src/ff-pic24-30-33.s 			page 250


../src/ff-pic24-30-33.s:4022   .text:000011ce .L0
../src/ff-pic24-30-33.s:4024   .text:000011d2 .L0
../src/ff-pic24-30-33.s:4023   .text:000011d0 .L0
../src/ff-pic24-30-33.s:4025   .text:000011d4 .L0
../src/ff-pic24-30-33.s:4024   .text:000011d2 .L0
../src/ff-pic24-30-33.s:4026   .text:000011d6 .L0
../src/ff-pic24-30-33.s:4025   .text:000011d4 .L0
../src/ff-pic24-30-33.s:4027   .text:000011d8 .L0
../src/ff-pic24-30-33.s:4026   .text:000011d6 .L0
../src/ff-pic24-30-33.s:4028   .text:000011da .L0
../src/ff-pic24-30-33.s:4027   .text:000011d8 .L0
../src/ff-pic24-30-33.s:4029   .text:000011dc .L0
../src/ff-pic24-30-33.s:4028   .text:000011da .L0
../src/ff-pic24-30-33.s:4038   .text:000011ea .L0
../src/ff-pic24-30-33.s:4029   .text:000011dc .L0
../src/ff-pic24-30-33.s:4039   .text:000011ec .L0
../src/ff-pic24-30-33.s:4038   .text:000011ea .L0
../src/ff-pic24-30-33.s:4040   .text:000011ee .L0
../src/ff-pic24-30-33.s:4039   .text:000011ec .L0
../src/ff-pic24-30-33.s:4041   .text:000011f0 .L0
../src/ff-pic24-30-33.s:4040   .text:000011ee .L0
../src/ff-pic24-30-33.s:4042   .text:000011f2 .L0
../src/ff-pic24-30-33.s:4041   .text:000011f0 .L0
../src/ff-pic24-30-33.s:4043   .text:000011f4 .L0
../src/ff-pic24-30-33.s:4042   .text:000011f2 .L0
../src/ff-pic24-30-33.s:4044   .text:000011f6 .L0
../src/ff-pic24-30-33.s:4043   .text:000011f4 .L0
../src/ff-pic24-30-33.s:4045   .text:000011f8 .L0
../src/ff-pic24-30-33.s:4044   .text:000011f6 .L0
../src/ff-pic24-30-33.s:4046   .text:000011fa .L0
../src/ff-pic24-30-33.s:4045   .text:000011f8 .L0
../src/ff-pic24-30-33.s:4047   .text:000011fc .L0
../src/ff-pic24-30-33.s:4046   .text:000011fa .L0
../src/ff-pic24-30-33.s:4057   .text:00001206 .L0
../src/ff-pic24-30-33.s:4047   .text:000011fc .L0
../src/ff-pic24-30-33.s:4058   .text:00001208 .L0
../src/ff-pic24-30-33.s:4057   .text:00001206 .L0
../src/ff-pic24-30-33.s:4067   .text:00001212 .L0
../src/ff-pic24-30-33.s:4058   .text:00001208 .L0
../src/ff-pic24-30-33.s:4068   .text:00001214 .L0
../src/ff-pic24-30-33.s:4067   .text:00001212 .L0
../src/ff-pic24-30-33.s:4078   .text:00001222 .L0
../src/ff-pic24-30-33.s:4068   .text:00001214 .L0
../src/ff-pic24-30-33.s:4079   .text:00001224 .L0
../src/ff-pic24-30-33.s:4078   .text:00001222 .L0
../src/ff-pic24-30-33.s:4080   .text:00001226 .L0
../src/ff-pic24-30-33.s:4079   .text:00001224 .L0
../src/ff-pic24-30-33.s:4081   .text:00001228 .L0
../src/ff-pic24-30-33.s:4080   .text:00001226 .L0
../src/ff-pic24-30-33.s:4083   .text:0000122a .L0
../src/ff-pic24-30-33.s:4081   .text:00001228 .L0
../src/ff-pic24-30-33.s:4093   .text:00001232 .L0
../src/ff-pic24-30-33.s:4083   .text:0000122a .L0
../src/ff-pic24-30-33.s:4094   .text:00001234 .L0
../src/ff-pic24-30-33.s:4093   .text:00001232 .L0
../src/ff-pic24-30-33.s:4095   .text:00001236 .L0
../src/ff-pic24-30-33.s:4094   .text:00001234 .L0
MPLAB ASM30 Listing:  ../src/ff-pic24-30-33.s 			page 251


../src/ff-pic24-30-33.s:4096   .text:00001238 .L0
../src/ff-pic24-30-33.s:4095   .text:00001236 .L0
../src/ff-pic24-30-33.s:4097   .text:0000123a .L0
../src/ff-pic24-30-33.s:4096   .text:00001238 .L0
../src/ff-pic24-30-33.s:4098   .text:0000123c .L0
../src/ff-pic24-30-33.s:4097   .text:0000123a .L0
../src/ff-pic24-30-33.s:4099   .text:0000123e .L0
../src/ff-pic24-30-33.s:4098   .text:0000123c .L0
../src/ff-pic24-30-33.s:4109   .text:00001246 .L0
../src/ff-pic24-30-33.s:4099   .text:0000123e .L0
../src/ff-pic24-30-33.s:4110   .text:00001248 .L0
../src/ff-pic24-30-33.s:4109   .text:00001246 .L0
../src/ff-pic24-30-33.s:4111   .text:0000124a .L0
../src/ff-pic24-30-33.s:4110   .text:00001248 .L0
../src/ff-pic24-30-33.s:4112   .text:0000124c .L0
../src/ff-pic24-30-33.s:4111   .text:0000124a .L0
../src/ff-pic24-30-33.s:4113   .text:0000124e .L0
../src/ff-pic24-30-33.s:4112   .text:0000124c .L0
../src/ff-pic24-30-33.s:4114   .text:00001250 .L0
../src/ff-pic24-30-33.s:4113   .text:0000124e .L0
../src/ff-pic24-30-33.s:4115   .text:00001252 .L0
../src/ff-pic24-30-33.s:4114   .text:00001250 .L0
../src/ff-pic24-30-33.s:4124   .text:0000125a .L0
../src/ff-pic24-30-33.s:4115   .text:00001252 .L0
../src/ff-pic24-30-33.s:4135   .text:00001266 .L0
../src/ff-pic24-30-33.s:4124   .text:0000125a .L0
../src/ff-pic24-30-33.s:4136   .text:00001268 .L0
../src/ff-pic24-30-33.s:4135   .text:00001266 .L0
../src/ff-pic24-30-33.s:4137   .text:0000126a .L0
../src/ff-pic24-30-33.s:4136   .text:00001268 .L0
../src/ff-pic24-30-33.s:4138   .text:0000126c .L0
../src/ff-pic24-30-33.s:4137   .text:0000126a .L0
../src/ff-pic24-30-33.s:4139   .text:0000126e .L0
../src/ff-pic24-30-33.s:4138   .text:0000126c .L0
../src/ff-pic24-30-33.s:4140   .text:00001270 .L0
../src/ff-pic24-30-33.s:4139   .text:0000126e .L0
../src/ff-pic24-30-33.s:4150   .text:0000127a .L0
../src/ff-pic24-30-33.s:4140   .text:00001270 .L0
../src/ff-pic24-30-33.s:4151   .text:0000127c .L0
../src/ff-pic24-30-33.s:4150   .text:0000127a .L0
../src/ff-pic24-30-33.s:4152   .text:0000127e .L0
../src/ff-pic24-30-33.s:4151   .text:0000127c .L0
../src/ff-pic24-30-33.s:4162   .text:0000128c .L0
../src/ff-pic24-30-33.s:4152   .text:0000127e .L0
../src/ff-pic24-30-33.s:4163   .text:0000128e .L0
../src/ff-pic24-30-33.s:4162   .text:0000128c .L0
../src/ff-pic24-30-33.s:4164   .text:00001292 .L0
../src/ff-pic24-30-33.s:4163   .text:0000128e .L0
../src/ff-pic24-30-33.s:4165   .text:00001294 .L0
../src/ff-pic24-30-33.s:4164   .text:00001292 .L0
../src/ff-pic24-30-33.s:4166   .text:00001298 .L0
../src/ff-pic24-30-33.s:4165   .text:00001294 .L0
../src/ff-pic24-30-33.s:4167   .text:0000129a .L0
../src/ff-pic24-30-33.s:4166   .text:00001298 .L0
../src/ff-pic24-30-33.s:4168   .text:0000129c .L0
../src/ff-pic24-30-33.s:4167   .text:0000129a .L0
../src/ff-pic24-30-33.s:4169   .text:000012a0 .L0
MPLAB ASM30 Listing:  ../src/ff-pic24-30-33.s 			page 252


../src/ff-pic24-30-33.s:4168   .text:0000129c .L0
../src/ff-pic24-30-33.s:4179   .text:000012a8 .L0
../src/ff-pic24-30-33.s:4169   .text:000012a0 .L0
../src/ff-pic24-30-33.s:4180   .text:000012aa .L0
../src/ff-pic24-30-33.s:4179   .text:000012a8 .L0
../src/ff-pic24-30-33.s:4181   .text:000012ac .L0
../src/ff-pic24-30-33.s:4180   .text:000012aa .L0
../src/ff-pic24-30-33.s:4182   .text:000012ae .L0
../src/ff-pic24-30-33.s:4181   .text:000012ac .L0
../src/ff-pic24-30-33.s:4183   .text:000012b0 .L0
../src/ff-pic24-30-33.s:4182   .text:000012ae .L0
../src/ff-pic24-30-33.s:4184   .text:000012b2 .L0
../src/ff-pic24-30-33.s:4183   .text:000012b0 .L0
../src/ff-pic24-30-33.s:4194   .text:000012bc .L0
../src/ff-pic24-30-33.s:4184   .text:000012b2 .L0
../src/ff-pic24-30-33.s:4195   .text:000012be .L0
../src/ff-pic24-30-33.s:4194   .text:000012bc .L0
../src/ff-pic24-30-33.s:4196   .text:000012c0 .L0
../src/ff-pic24-30-33.s:4195   .text:000012be .L0
../src/ff-pic24-30-33.s:4197   .text:000012c2 .L0
../src/ff-pic24-30-33.s:4196   .text:000012c0 .L0
../src/ff-pic24-30-33.s:4198   .text:000012c4 .L0
../src/ff-pic24-30-33.s:4197   .text:000012c2 .L0
../src/ff-pic24-30-33.s:4199   .text:000012c6 .L0
../src/ff-pic24-30-33.s:4198   .text:000012c4 .L0
../src/ff-pic24-30-33.s:4209   .text:000012ce .L0
../src/ff-pic24-30-33.s:4199   .text:000012c6 .L0
../src/ff-pic24-30-33.s:4210   .text:000012d0 .L0
../src/ff-pic24-30-33.s:4209   .text:000012ce .L0
../src/ff-pic24-30-33.s:4211   .text:000012d2 .L0
../src/ff-pic24-30-33.s:4210   .text:000012d0 .L0
../src/ff-pic24-30-33.s:4212   .text:000012d4 .L0
../src/ff-pic24-30-33.s:4211   .text:000012d2 .L0
../src/ff-pic24-30-33.s:4213   .text:000012d6 .L0
../src/ff-pic24-30-33.s:4212   .text:000012d4 .L0
../src/ff-pic24-30-33.s:4214   .text:000012d8 .L0
../src/ff-pic24-30-33.s:4213   .text:000012d6 .L0
../src/ff-pic24-30-33.s:4224   .text:000012e4 .L0
../src/ff-pic24-30-33.s:4214   .text:000012d8 .L0
../src/ff-pic24-30-33.s:4225   .text:000012e6 .L0
../src/ff-pic24-30-33.s:4224   .text:000012e4 .L0
../src/ff-pic24-30-33.s:4226   .text:000012e8 .L0
../src/ff-pic24-30-33.s:4225   .text:000012e6 .L0
../src/ff-pic24-30-33.s:4227   .text:000012ea .L0
../src/ff-pic24-30-33.s:4226   .text:000012e8 .L0
../src/ff-pic24-30-33.s:4228   .text:000012ee .L0
../src/ff-pic24-30-33.s:4227   .text:000012ea .L0
../src/ff-pic24-30-33.s:4230   .text:000012f0 .L0
../src/ff-pic24-30-33.s:4228   .text:000012ee .L0
../src/ff-pic24-30-33.s:4240   .text:000012f8 .L0
../src/ff-pic24-30-33.s:4230   .text:000012f0 .L0
../src/ff-pic24-30-33.s:4241   .text:000012fa .L0
../src/ff-pic24-30-33.s:4240   .text:000012f8 .L0
../src/ff-pic24-30-33.s:4242   .text:000012fc .L0
../src/ff-pic24-30-33.s:4241   .text:000012fa .L0
../src/ff-pic24-30-33.s:4243   .text:000012fe .L0
../src/ff-pic24-30-33.s:4242   .text:000012fc .L0
MPLAB ASM30 Listing:  ../src/ff-pic24-30-33.s 			page 253


../src/ff-pic24-30-33.s:4244   .text:00001300 .L0
../src/ff-pic24-30-33.s:4243   .text:000012fe .L0
../src/ff-pic24-30-33.s:4245   .text:00001302 .L0
../src/ff-pic24-30-33.s:4244   .text:00001300 .L0
../src/ff-pic24-30-33.s:4255   .text:0000130c .L0
../src/ff-pic24-30-33.s:4245   .text:00001302 .L0
../src/ff-pic24-30-33.s:4256   .text:0000130e .L0
../src/ff-pic24-30-33.s:4255   .text:0000130c .L0
../src/ff-pic24-30-33.s:4257   .text:00001310 .L0
../src/ff-pic24-30-33.s:4256   .text:0000130e .L0
../src/ff-pic24-30-33.s:4258   .text:00001312 .L0
../src/ff-pic24-30-33.s:4257   .text:00001310 .L0
../src/ff-pic24-30-33.s:4259   .text:00001314 .L0
../src/ff-pic24-30-33.s:4258   .text:00001312 .L0
../src/ff-pic24-30-33.s:4261   .text:00001316 .L0
../src/ff-pic24-30-33.s:4259   .text:00001314 .L0
../src/ff-pic24-30-33.s:4263   .text:00001318 .L0
../src/ff-pic24-30-33.s:4261   .text:00001316 .L0
../src/ff-pic24-30-33.s:4264   .text:0000131a .L0
../src/ff-pic24-30-33.s:4263   .text:00001318 .L0
../src/ff-pic24-30-33.s:4265   .text:0000131c .L0
../src/ff-pic24-30-33.s:4264   .text:0000131a .L0
../src/ff-pic24-30-33.s:4266   .text:0000131e .L0
../src/ff-pic24-30-33.s:4265   .text:0000131c .L0
../src/ff-pic24-30-33.s:4267   .text:00001320 .L0
../src/ff-pic24-30-33.s:4266   .text:0000131e .L0
../src/ff-pic24-30-33.s:4268   .text:00001322 .L0
../src/ff-pic24-30-33.s:4267   .text:00001320 .L0
../src/ff-pic24-30-33.s:4269   .text:00001324 .L0
../src/ff-pic24-30-33.s:4268   .text:00001322 .L0
../src/ff-pic24-30-33.s:4278   .text:0000132c .L0
../src/ff-pic24-30-33.s:4269   .text:00001324 .L0
../src/ff-pic24-30-33.s:4279   .text:0000132e .L0
../src/ff-pic24-30-33.s:4278   .text:0000132c .L0
../src/ff-pic24-30-33.s:4280   .text:00001330 .L0
../src/ff-pic24-30-33.s:4279   .text:0000132e .L0
../src/ff-pic24-30-33.s:4281   .text:00001332 .L0
../src/ff-pic24-30-33.s:4280   .text:00001330 .L0
../src/ff-pic24-30-33.s:4282   .text:00001334 .L0
../src/ff-pic24-30-33.s:4281   .text:00001332 .L0
../src/ff-pic24-30-33.s:4283   .text:00001336 .L0
../src/ff-pic24-30-33.s:4282   .text:00001334 .L0
../src/ff-pic24-30-33.s:4284   .text:00001338 .L0
../src/ff-pic24-30-33.s:4283   .text:00001336 .L0
../src/ff-pic24-30-33.s:4285   .text:0000133a .L0
../src/ff-pic24-30-33.s:4284   .text:00001338 .L0
../src/ff-pic24-30-33.s:4286   .text:0000133c .L0
../src/ff-pic24-30-33.s:4285   .text:0000133a .L0
../src/ff-pic24-30-33.s:4287   .text:0000133e .L0
../src/ff-pic24-30-33.s:4286   .text:0000133c .L0
../src/ff-pic24-30-33.s:4296   .text:00001348 .L0
../src/ff-pic24-30-33.s:4287   .text:0000133e .L0
../src/ff-pic24-30-33.s:4297   .text:0000134a .L0
../src/ff-pic24-30-33.s:4296   .text:00001348 .L0
../src/ff-pic24-30-33.s:4298   .text:0000134c .L0
../src/ff-pic24-30-33.s:4297   .text:0000134a .L0
../src/ff-pic24-30-33.s:4299   .text:0000134e .L0
MPLAB ASM30 Listing:  ../src/ff-pic24-30-33.s 			page 254


../src/ff-pic24-30-33.s:4298   .text:0000134c .L0
../src/ff-pic24-30-33.s:4300   .text:00001350 .L0
../src/ff-pic24-30-33.s:4299   .text:0000134e .L0
../src/ff-pic24-30-33.s:4310   .text:0000135a .L0
../src/ff-pic24-30-33.s:4300   .text:00001350 .L0
../src/ff-pic24-30-33.s:4311   .text:0000135c .L0
../src/ff-pic24-30-33.s:4310   .text:0000135a .L0
../src/ff-pic24-30-33.s:4312   .text:0000135e .L0
../src/ff-pic24-30-33.s:4311   .text:0000135c .L0
../src/ff-pic24-30-33.s:4313   .text:00001360 .L0
../src/ff-pic24-30-33.s:4312   .text:0000135e .L0
../src/ff-pic24-30-33.s:4314   .text:00001362 .L0
../src/ff-pic24-30-33.s:4313   .text:00001360 .L0
../src/ff-pic24-30-33.s:4315   .text:00001364 .L0
../src/ff-pic24-30-33.s:4314   .text:00001362 .L0
../src/ff-pic24-30-33.s:4316   .text:00001366 .L0
../src/ff-pic24-30-33.s:4315   .text:00001364 .L0
../src/ff-pic24-30-33.s:4317   .text:00001368 .L0
../src/ff-pic24-30-33.s:4316   .text:00001366 .L0
../src/ff-pic24-30-33.s:4318   .text:0000136a .L0
../src/ff-pic24-30-33.s:4317   .text:00001368 .L0
../src/ff-pic24-30-33.s:4326   .text:00001374 .L0
../src/ff-pic24-30-33.s:4318   .text:0000136a .L0
../src/ff-pic24-30-33.s:4327   .text:00001378 .L0
../src/ff-pic24-30-33.s:4326   .text:00001374 .L0
../src/ff-pic24-30-33.s:4328   .text:0000137c .L0
../src/ff-pic24-30-33.s:4327   .text:00001378 .L0
../src/ff-pic24-30-33.s:4329   .text:00001380 .L0
../src/ff-pic24-30-33.s:4328   .text:0000137c .L0
../src/ff-pic24-30-33.s:4343   .text:00001394 .L0
../src/ff-pic24-30-33.s:4329   .text:00001380 .L0
../src/ff-pic24-30-33.s:4344   .text:00001398 .L0
../src/ff-pic24-30-33.s:4343   .text:00001394 .L0
../src/ff-pic24-30-33.s:4345   .text:0000139a .L0
../src/ff-pic24-30-33.s:4344   .text:00001398 .L0
../src/ff-pic24-30-33.s:4354   .text:000013a4 .L0
../src/ff-pic24-30-33.s:4345   .text:0000139a .L0
../src/ff-pic24-30-33.s:4355   .text:000013a8 .L0
../src/ff-pic24-30-33.s:4354   .text:000013a4 .L0
../src/ff-pic24-30-33.s:4356   .text:000013aa .L0
../src/ff-pic24-30-33.s:4355   .text:000013a8 .L0
../src/ff-pic24-30-33.s:4365   .text:000013b4 .L0
../src/ff-pic24-30-33.s:4356   .text:000013aa .L0
../src/ff-pic24-30-33.s:4366   .text:000013b6 .L0
../src/ff-pic24-30-33.s:4365   .text:000013b4 .L0
../src/ff-pic24-30-33.s:4367   .text:000013b8 .L0
../src/ff-pic24-30-33.s:4366   .text:000013b6 .L0
../src/ff-pic24-30-33.s:4376   .text:000013c4 .L0
../src/ff-pic24-30-33.s:4367   .text:000013b8 .L0
../src/ff-pic24-30-33.s:4386   .text:000013d0 .L0
../src/ff-pic24-30-33.s:4376   .text:000013c4 .L0
../src/ff-pic24-30-33.s:4396   .text:000013dc .L0
../src/ff-pic24-30-33.s:4386   .text:000013d0 .L0
../src/ff-pic24-30-33.s:4406   .text:000013e8 .L0
../src/ff-pic24-30-33.s:4396   .text:000013dc .L0
../src/ff-pic24-30-33.s:4416   .text:000013f2 .L0
../src/ff-pic24-30-33.s:4406   .text:000013e8 .L0
MPLAB ASM30 Listing:  ../src/ff-pic24-30-33.s 			page 255


../src/ff-pic24-30-33.s:4426   .text:000013fc .L0
../src/ff-pic24-30-33.s:4416   .text:000013f2 .L0
../src/ff-pic24-30-33.s:4427   .text:000013fe .L0
../src/ff-pic24-30-33.s:4426   .text:000013fc .L0
../src/ff-pic24-30-33.s:4428   .text:00001400 .L0
../src/ff-pic24-30-33.s:4427   .text:000013fe .L0
../src/ff-pic24-30-33.s:4437   .text:0000140c .L0
../src/ff-pic24-30-33.s:4428   .text:00001400 .L0
../src/ff-pic24-30-33.s:4448   .text:0000141a .L0
../src/ff-pic24-30-33.s:4437   .text:0000140c .L0
../src/ff-pic24-30-33.s:4449   .text:0000141c .L0
../src/ff-pic24-30-33.s:4448   .text:0000141a .L0
../src/ff-pic24-30-33.s:4459   .text:0000142a .L0
../src/ff-pic24-30-33.s:4449   .text:0000141c .L0
../src/ff-pic24-30-33.s:4460   .text:0000142c .L0
../src/ff-pic24-30-33.s:4459   .text:0000142a .L0
../src/ff-pic24-30-33.s:4461   .text:0000142e .L0
../src/ff-pic24-30-33.s:4460   .text:0000142c .L0
../src/ff-pic24-30-33.s:4462   .text:00001430 .L0
../src/ff-pic24-30-33.s:4461   .text:0000142e .L0
../src/ff-pic24-30-33.s:4463   .text:00001432 .L0
../src/ff-pic24-30-33.s:4462   .text:00001430 .L0
../src/ff-pic24-30-33.s:4464   .text:00001434 .L0
../src/ff-pic24-30-33.s:4463   .text:00001432 .L0
../src/ff-pic24-30-33.s:4465   .text:00001436 .L0
../src/ff-pic24-30-33.s:4464   .text:00001434 .L0
../src/ff-pic24-30-33.s:4474   .text:0000143c .L0
../src/ff-pic24-30-33.s:4465   .text:00001436 .L0
../src/ff-pic24-30-33.s:4475   .text:0000143e .L0
../src/ff-pic24-30-33.s:4474   .text:0000143c .L0
../src/ff-pic24-30-33.s:4476   .text:00001440 .L0
../src/ff-pic24-30-33.s:4475   .text:0000143e .L0
../src/ff-pic24-30-33.s:4477   .text:00001442 .L0
../src/ff-pic24-30-33.s:4476   .text:00001440 .L0
../src/ff-pic24-30-33.s:4478   .text:00001444 .L0
../src/ff-pic24-30-33.s:4477   .text:00001442 .L0
../src/ff-pic24-30-33.s:4488   .text:0000144e .L0
../src/ff-pic24-30-33.s:4478   .text:00001444 .L0
../src/ff-pic24-30-33.s:4489   .text:00001450 .L0
../src/ff-pic24-30-33.s:4488   .text:0000144e .L0
../src/ff-pic24-30-33.s:4490   .text:00001452 .L0
../src/ff-pic24-30-33.s:4489   .text:00001450 .L0
../src/ff-pic24-30-33.s:4491   .text:00001454 .L0
../src/ff-pic24-30-33.s:4490   .text:00001452 .L0
../src/ff-pic24-30-33.s:4492   .text:00001456 .L0
../src/ff-pic24-30-33.s:4491   .text:00001454 .L0
../src/ff-pic24-30-33.s:4493   .text:00001458 .L0
../src/ff-pic24-30-33.s:4492   .text:00001456 .L0
../src/ff-pic24-30-33.s:4494   .text:0000145a .L0
../src/ff-pic24-30-33.s:4493   .text:00001458 .L0
../src/ff-pic24-30-33.s:4495   .text:0000145c .L0
../src/ff-pic24-30-33.s:4494   .text:0000145a .L0
../src/ff-pic24-30-33.s:4496   .text:0000145e .L0
../src/ff-pic24-30-33.s:4495   .text:0000145c .L0
../src/ff-pic24-30-33.s:4497   .text:00001460 .L0
../src/ff-pic24-30-33.s:4496   .text:0000145e .L0
../src/ff-pic24-30-33.s:4498   .text:00001462 .L0
MPLAB ASM30 Listing:  ../src/ff-pic24-30-33.s 			page 256


../src/ff-pic24-30-33.s:4497   .text:00001460 .L0
../src/ff-pic24-30-33.s:4499   .text:00001464 .L0
../src/ff-pic24-30-33.s:4498   .text:00001462 .L0
../src/ff-pic24-30-33.s:4500   .text:00001466 .L0
../src/ff-pic24-30-33.s:4499   .text:00001464 .L0
../src/ff-pic24-30-33.s:4501   .text:00001468 .L0
../src/ff-pic24-30-33.s:4500   .text:00001466 .L0
../src/ff-pic24-30-33.s:4502   .text:0000146a .L0
../src/ff-pic24-30-33.s:4501   .text:00001468 .L0
../src/ff-pic24-30-33.s:4503   .text:0000146c .L0
../src/ff-pic24-30-33.s:4502   .text:0000146a .L0
../src/ff-pic24-30-33.s:4505   .text:0000146e .L0
../src/ff-pic24-30-33.s:4503   .text:0000146c .L0
../src/ff-pic24-30-33.s:4506   .text:00001470 .L0
../src/ff-pic24-30-33.s:4505   .text:0000146e .L0
../src/ff-pic24-30-33.s:4507   .text:00001472 .L0
../src/ff-pic24-30-33.s:4506   .text:00001470 .L0
../src/ff-pic24-30-33.s:4508   .text:00001474 .L0
../src/ff-pic24-30-33.s:4507   .text:00001472 .L0
../src/ff-pic24-30-33.s:4509   .text:00001476 .L0
../src/ff-pic24-30-33.s:4508   .text:00001474 .L0
../src/ff-pic24-30-33.s:4510   .text:00001478 .L0
../src/ff-pic24-30-33.s:4509   .text:00001476 .L0
../src/ff-pic24-30-33.s:4511   .text:0000147a .L0
../src/ff-pic24-30-33.s:4510   .text:00001478 .L0
../src/ff-pic24-30-33.s:4512   .text:0000147c .L0
../src/ff-pic24-30-33.s:4511   .text:0000147a .L0
../src/ff-pic24-30-33.s:4522   .text:00001488 .L0
../src/ff-pic24-30-33.s:4512   .text:0000147c .L0
../src/ff-pic24-30-33.s:4523   .text:0000148a .L0
../src/ff-pic24-30-33.s:4522   .text:00001488 .L0
../src/ff-pic24-30-33.s:4524   .text:0000148c .L0
../src/ff-pic24-30-33.s:4523   .text:0000148a .L0
../src/ff-pic24-30-33.s:4525   .text:0000148e .L0
../src/ff-pic24-30-33.s:4524   .text:0000148c .L0
../src/ff-pic24-30-33.s:4526   .text:00001490 .L0
../src/ff-pic24-30-33.s:4525   .text:0000148e .L0
../src/ff-pic24-30-33.s:4534   .text:0000149c .L0
../src/ff-pic24-30-33.s:4526   .text:00001490 .L0
../src/ff-pic24-30-33.s:4535   .text:000014a0 .L0
../src/ff-pic24-30-33.s:4534   .text:0000149c .L0
../src/ff-pic24-30-33.s:4543   .text:000014ae .L0
../src/ff-pic24-30-33.s:4535   .text:000014a0 .L0
../src/ff-pic24-30-33.s:4544   .text:000014b2 .L0
../src/ff-pic24-30-33.s:4543   .text:000014ae .L0
../src/ff-pic24-30-33.s:4554   .text:000014be .L0
../src/ff-pic24-30-33.s:4544   .text:000014b2 .L0
../src/ff-pic24-30-33.s:4555   .text:000014c0 .L0
../src/ff-pic24-30-33.s:4554   .text:000014be .L0
../src/ff-pic24-30-33.s:4556   .text:000014c2 .L0
../src/ff-pic24-30-33.s:4555   .text:000014c0 .L0
../src/ff-pic24-30-33.s:4557   .text:000014c4 .L0
../src/ff-pic24-30-33.s:4556   .text:000014c2 .L0
../src/ff-pic24-30-33.s:4558   .text:000014c6 .L0
../src/ff-pic24-30-33.s:4557   .text:000014c4 .L0
../src/ff-pic24-30-33.s:4559   .text:000014c8 .L0
../src/ff-pic24-30-33.s:4558   .text:000014c6 .L0
MPLAB ASM30 Listing:  ../src/ff-pic24-30-33.s 			page 257


../src/ff-pic24-30-33.s:4561   .text:000014ca .L0
../src/ff-pic24-30-33.s:4559   .text:000014c8 .L0
../src/ff-pic24-30-33.s:4562   .text:000014cc .L0
../src/ff-pic24-30-33.s:4561   .text:000014ca .L0
../src/ff-pic24-30-33.s:4563   .text:000014ce .L0
../src/ff-pic24-30-33.s:4562   .text:000014cc .L0
../src/ff-pic24-30-33.s:4565   .text:000014d0 .L0
../src/ff-pic24-30-33.s:4563   .text:000014ce .L0
../src/ff-pic24-30-33.s:4566   .text:000014d2 .L0
../src/ff-pic24-30-33.s:4565   .text:000014d0 .L0
../src/ff-pic24-30-33.s:4567   .text:000014d4 .L0
../src/ff-pic24-30-33.s:4566   .text:000014d2 .L0
../src/ff-pic24-30-33.s:4568   .text:000014d6 .L0
../src/ff-pic24-30-33.s:4567   .text:000014d4 .L0
../src/ff-pic24-30-33.s:4569   .text:000014d8 .L0
../src/ff-pic24-30-33.s:4568   .text:000014d6 .L0
../src/ff-pic24-30-33.s:4570   .text:000014da .L0
../src/ff-pic24-30-33.s:4569   .text:000014d8 .L0
../src/ff-pic24-30-33.s:4580   .text:000014e4 .L0
../src/ff-pic24-30-33.s:4570   .text:000014da .L0
../src/ff-pic24-30-33.s:4581   .text:000014e6 .L0
../src/ff-pic24-30-33.s:4580   .text:000014e4 .L0
../src/ff-pic24-30-33.s:4582   .text:000014e8 .L0
../src/ff-pic24-30-33.s:4581   .text:000014e6 .L0
../src/ff-pic24-30-33.s:4583   .text:000014ea .L0
../src/ff-pic24-30-33.s:4582   .text:000014e8 .L0
../src/ff-pic24-30-33.s:4585   .text:000014ec .L0
../src/ff-pic24-30-33.s:4583   .text:000014ea .L0
../src/ff-pic24-30-33.s:4586   .text:000014ee .L0
../src/ff-pic24-30-33.s:4585   .text:000014ec .L0
../src/ff-pic24-30-33.s:4587   .text:000014f0 .L0
../src/ff-pic24-30-33.s:4586   .text:000014ee .L0
../src/ff-pic24-30-33.s:4589   .text:000014f2 .L0
../src/ff-pic24-30-33.s:4587   .text:000014f0 .L0
../src/ff-pic24-30-33.s:4590   .text:000014f4 .L0
../src/ff-pic24-30-33.s:4589   .text:000014f2 .L0
../src/ff-pic24-30-33.s:4591   .text:000014f6 .L0
../src/ff-pic24-30-33.s:4590   .text:000014f4 .L0
../src/ff-pic24-30-33.s:4592   .text:000014f8 .L0
../src/ff-pic24-30-33.s:4591   .text:000014f6 .L0
../src/ff-pic24-30-33.s:4593   .text:000014fa .L0
../src/ff-pic24-30-33.s:4592   .text:000014f8 .L0
../src/ff-pic24-30-33.s:4594   .text:000014fc .L0
../src/ff-pic24-30-33.s:4593   .text:000014fa .L0
../src/ff-pic24-30-33.s:4604   .text:00001506 .L0
../src/ff-pic24-30-33.s:4594   .text:000014fc .L0
../src/ff-pic24-30-33.s:4605   .text:00001508 .L0
../src/ff-pic24-30-33.s:4604   .text:00001506 .L0
../src/ff-pic24-30-33.s:4606   .text:0000150a .L0
../src/ff-pic24-30-33.s:4605   .text:00001508 .L0
../src/ff-pic24-30-33.s:4607   .text:0000150c .L0
../src/ff-pic24-30-33.s:4606   .text:0000150a .L0
../src/ff-pic24-30-33.s:4609   .text:0000150e .L0
../src/ff-pic24-30-33.s:4607   .text:0000150c .L0
../src/ff-pic24-30-33.s:4610   .text:00001510 .L0
../src/ff-pic24-30-33.s:4609   .text:0000150e .L0
../src/ff-pic24-30-33.s:4611   .text:00001512 .L0
MPLAB ASM30 Listing:  ../src/ff-pic24-30-33.s 			page 258


../src/ff-pic24-30-33.s:4610   .text:00001510 .L0
../src/ff-pic24-30-33.s:4613   .text:00001514 .L0
../src/ff-pic24-30-33.s:4611   .text:00001512 .L0
../src/ff-pic24-30-33.s:4614   .text:00001516 .L0
../src/ff-pic24-30-33.s:4613   .text:00001514 .L0
../src/ff-pic24-30-33.s:4615   .text:00001518 .L0
../src/ff-pic24-30-33.s:4614   .text:00001516 .L0
../src/ff-pic24-30-33.s:4616   .text:0000151a .L0
../src/ff-pic24-30-33.s:4615   .text:00001518 .L0
../src/ff-pic24-30-33.s:4617   .text:0000151c .L0
../src/ff-pic24-30-33.s:4616   .text:0000151a .L0
../src/ff-pic24-30-33.s:4618   .text:0000151e .L0
../src/ff-pic24-30-33.s:4617   .text:0000151c .L0
../src/ff-pic24-30-33.s:4627   .text:00001528 .L0
../src/ff-pic24-30-33.s:4618   .text:0000151e .L0
../src/ff-pic24-30-33.s:4628   .text:0000152a .L0
../src/ff-pic24-30-33.s:4627   .text:00001528 .L0
../src/ff-pic24-30-33.s:4629   .text:0000152c .L0
../src/ff-pic24-30-33.s:4628   .text:0000152a .L0
../src/ff-pic24-30-33.s:4630   .text:0000152e .L0
../src/ff-pic24-30-33.s:4629   .text:0000152c .L0
../src/ff-pic24-30-33.s:4631   .text:00001530 .L0
../src/ff-pic24-30-33.s:4630   .text:0000152e .L0
../src/ff-pic24-30-33.s:4640   .text:0000153a .L0
../src/ff-pic24-30-33.s:4631   .text:00001530 .L0
../src/ff-pic24-30-33.s:4641   .text:0000153c .L0
../src/ff-pic24-30-33.s:4640   .text:0000153a .L0
../src/ff-pic24-30-33.s:4642   .text:0000153e .L0
../src/ff-pic24-30-33.s:4641   .text:0000153c .L0
../src/ff-pic24-30-33.s:4643   .text:00001540 .L0
../src/ff-pic24-30-33.s:4642   .text:0000153e .L0
../src/ff-pic24-30-33.s:4644   .text:00001542 .L0
../src/ff-pic24-30-33.s:4643   .text:00001540 .L0
../src/ff-pic24-30-33.s:4645   .text:00001544 .L0
../src/ff-pic24-30-33.s:4644   .text:00001542 .L0
../src/ff-pic24-30-33.s:4654   .text:0000154c .L0
../src/ff-pic24-30-33.s:4645   .text:00001544 .L0
../src/ff-pic24-30-33.s:4655   .text:0000154e .L0
../src/ff-pic24-30-33.s:4654   .text:0000154c .L0
../src/ff-pic24-30-33.s:4656   .text:00001550 .L0
../src/ff-pic24-30-33.s:4655   .text:0000154e .L0
../src/ff-pic24-30-33.s:4657   .text:00001552 .L0
../src/ff-pic24-30-33.s:4656   .text:00001550 .L0
../src/ff-pic24-30-33.s:4658   .text:00001554 .L0
../src/ff-pic24-30-33.s:4657   .text:00001552 .L0
../src/ff-pic24-30-33.s:4659   .text:00001556 .L0
../src/ff-pic24-30-33.s:4658   .text:00001554 .L0
../src/ff-pic24-30-33.s:4668   .text:0000155e .L0
../src/ff-pic24-30-33.s:4659   .text:00001556 .L0
../src/ff-pic24-30-33.s:4669   .text:00001560 .L0
../src/ff-pic24-30-33.s:4668   .text:0000155e .L0
../src/ff-pic24-30-33.s:4670   .text:00001564 .L0
../src/ff-pic24-30-33.s:4669   .text:00001560 .L0
../src/ff-pic24-30-33.s:4671   .text:00001566 .L0
../src/ff-pic24-30-33.s:4670   .text:00001564 .L0
../src/ff-pic24-30-33.s:4672   .text:00001568 .L0
../src/ff-pic24-30-33.s:4671   .text:00001566 .L0
MPLAB ASM30 Listing:  ../src/ff-pic24-30-33.s 			page 259


../src/ff-pic24-30-33.s:4673   .text:0000156a .L0
../src/ff-pic24-30-33.s:4672   .text:00001568 .L0
../src/ff-pic24-30-33.s:4674   .text:0000156e .L0
../src/ff-pic24-30-33.s:4673   .text:0000156a .L0
../src/ff-pic24-30-33.s:4683   .text:00001578 .L0
../src/ff-pic24-30-33.s:4674   .text:0000156e .L0
../src/ff-pic24-30-33.s:4685   .text:0000157a .L0
../src/ff-pic24-30-33.s:4683   .text:00001578 .L0
../src/ff-pic24-30-33.s:4686   .text:0000157c .L0
../src/ff-pic24-30-33.s:4685   .text:0000157a .L0
../src/ff-pic24-30-33.s:4687   .text:0000157e .L0
../src/ff-pic24-30-33.s:4686   .text:0000157c .L0
../src/ff-pic24-30-33.s:4688   .text:00001580 .L0
../src/ff-pic24-30-33.s:4687   .text:0000157e .L0
../src/ff-pic24-30-33.s:4689   .text:00001584 .L0
../src/ff-pic24-30-33.s:4688   .text:00001580 .L0
../src/ff-pic24-30-33.s:4690   .text:00001586 .L0
../src/ff-pic24-30-33.s:4689   .text:00001584 .L0
../src/ff-pic24-30-33.s:4691   .text:00001588 .L0
../src/ff-pic24-30-33.s:4690   .text:00001586 .L0
../src/ff-pic24-30-33.s:4692   .text:0000158a .L0
../src/ff-pic24-30-33.s:4691   .text:00001588 .L0
../src/ff-pic24-30-33.s:4705   .text:00001592 .L0
../src/ff-pic24-30-33.s:4692   .text:0000158a .L0
../src/ff-pic24-30-33.s:4706   .text:00001594 .L0
../src/ff-pic24-30-33.s:4705   .text:00001592 .L0
../src/ff-pic24-30-33.s:4707   .text:00001596 .L0
../src/ff-pic24-30-33.s:4706   .text:00001594 .L0
../src/ff-pic24-30-33.s:4708   .text:00001598 .L0
../src/ff-pic24-30-33.s:4707   .text:00001596 .L0
../src/ff-pic24-30-33.s:4709   .text:0000159a .L0
../src/ff-pic24-30-33.s:4708   .text:00001598 .L0
../src/ff-pic24-30-33.s:4710   .text:0000159c .L0
../src/ff-pic24-30-33.s:4709   .text:0000159a .L0
../src/ff-pic24-30-33.s:4711   .text:0000159e .L0
../src/ff-pic24-30-33.s:4710   .text:0000159c .L0
../src/ff-pic24-30-33.s:4712   .text:000015a0 .L0
../src/ff-pic24-30-33.s:4711   .text:0000159e .L0
../src/ff-pic24-30-33.s:4713   .text:000015a2 .L0
../src/ff-pic24-30-33.s:4712   .text:000015a0 .L0
../src/ff-pic24-30-33.s:4714   .text:000015a4 .L0
../src/ff-pic24-30-33.s:4713   .text:000015a2 .L0
../src/ff-pic24-30-33.s:4715   .text:000015a6 .L0
../src/ff-pic24-30-33.s:4714   .text:000015a4 .L0
../src/ff-pic24-30-33.s:4717   .text:000015a8 .L0
../src/ff-pic24-30-33.s:4715   .text:000015a6 .L0
../src/ff-pic24-30-33.s:4718   .text:000015aa .L0
../src/ff-pic24-30-33.s:4717   .text:000015a8 .L0
../src/ff-pic24-30-33.s:4719   .text:000015ac .L0
../src/ff-pic24-30-33.s:4718   .text:000015aa .L0
../src/ff-pic24-30-33.s:4720   .text:000015ae .L0
../src/ff-pic24-30-33.s:4719   .text:000015ac .L0
../src/ff-pic24-30-33.s:4721   .text:000015b0 .L0
../src/ff-pic24-30-33.s:4720   .text:000015ae .L0
../src/ff-pic24-30-33.s:4722   .text:000015b2 .L0
../src/ff-pic24-30-33.s:4721   .text:000015b0 .L0
../src/ff-pic24-30-33.s:4723   .text:000015b4 .L0
MPLAB ASM30 Listing:  ../src/ff-pic24-30-33.s 			page 260


../src/ff-pic24-30-33.s:4722   .text:000015b2 .L0
../src/ff-pic24-30-33.s:4724   .text:000015b6 .L0
../src/ff-pic24-30-33.s:4723   .text:000015b4 .L0
../src/ff-pic24-30-33.s:4725   .text:000015b8 .L0
../src/ff-pic24-30-33.s:4724   .text:000015b6 .L0
../src/ff-pic24-30-33.s:4726   .text:000015ba .L0
../src/ff-pic24-30-33.s:4725   .text:000015b8 .L0
../src/ff-pic24-30-33.s:4727   .text:000015bc .L0
../src/ff-pic24-30-33.s:4726   .text:000015ba .L0
../src/ff-pic24-30-33.s:4728   .text:000015be .L0
../src/ff-pic24-30-33.s:4727   .text:000015bc .L0
../src/ff-pic24-30-33.s:4730   .text:000015c0 .L0
../src/ff-pic24-30-33.s:4728   .text:000015be .L0
../src/ff-pic24-30-33.s:4731   .text:000015c2 .L0
../src/ff-pic24-30-33.s:4730   .text:000015c0 .L0
../src/ff-pic24-30-33.s:4740   .text:000015ce .L0
../src/ff-pic24-30-33.s:4731   .text:000015c2 .L0
../src/ff-pic24-30-33.s:4741   .text:000015d0 .L0
../src/ff-pic24-30-33.s:4740   .text:000015ce .L0
../src/ff-pic24-30-33.s:4742   .text:000015d4 .L0
../src/ff-pic24-30-33.s:4741   .text:000015d0 .L0
../src/ff-pic24-30-33.s:4753   .text:000015e0 .L0
../src/ff-pic24-30-33.s:4742   .text:000015d4 .L0
../src/ff-pic24-30-33.s:4754   .text:000015e4 .L0
../src/ff-pic24-30-33.s:4753   .text:000015e0 .L0
../src/ff-pic24-30-33.s:4755   .text:000015e6 .L0
../src/ff-pic24-30-33.s:4754   .text:000015e4 .L0
../src/ff-pic24-30-33.s:4756   .text:000015e8 .L0
../src/ff-pic24-30-33.s:4755   .text:000015e6 .L0
../src/ff-pic24-30-33.s:4757   .text:000015ea .L0
../src/ff-pic24-30-33.s:4756   .text:000015e8 .L0
../src/ff-pic24-30-33.s:4758   .text:000015ec .L0
../src/ff-pic24-30-33.s:4757   .text:000015ea .L0
../src/ff-pic24-30-33.s:4759   .text:000015ee .L0
../src/ff-pic24-30-33.s:4758   .text:000015ec .L0
../src/ff-pic24-30-33.s:4760   .text:000015f0 .L0
../src/ff-pic24-30-33.s:4759   .text:000015ee .L0
../src/ff-pic24-30-33.s:4762   .text:000015f2 .L0
../src/ff-pic24-30-33.s:4760   .text:000015f0 .L0
../src/ff-pic24-30-33.s:4772   .text:000015fe .L0
../src/ff-pic24-30-33.s:4762   .text:000015f2 .L0
../src/ff-pic24-30-33.s:4773   .text:00001600 .L0
../src/ff-pic24-30-33.s:4772   .text:000015fe .L0
../src/ff-pic24-30-33.s:4774   .text:00001604 .L0
../src/ff-pic24-30-33.s:4773   .text:00001600 .L0
../src/ff-pic24-30-33.s:4775   .text:00001606 .L0
../src/ff-pic24-30-33.s:4774   .text:00001604 .L0
../src/ff-pic24-30-33.s:4776   .text:00001608 .L0
../src/ff-pic24-30-33.s:4775   .text:00001606 .L0
../src/ff-pic24-30-33.s:4777   .text:0000160a .L0
../src/ff-pic24-30-33.s:4776   .text:00001608 .L0
../src/ff-pic24-30-33.s:4778   .text:0000160e .L0
../src/ff-pic24-30-33.s:4777   .text:0000160a .L0
../src/ff-pic24-30-33.s:4780   .text:00001610 .L0
../src/ff-pic24-30-33.s:4778   .text:0000160e .L0
../src/ff-pic24-30-33.s:4781   .text:00001614 .L0
../src/ff-pic24-30-33.s:4780   .text:00001610 .L0
MPLAB ASM30 Listing:  ../src/ff-pic24-30-33.s 			page 261


../src/ff-pic24-30-33.s:4782   .text:00001616 .L0
../src/ff-pic24-30-33.s:4781   .text:00001614 .L0
../src/ff-pic24-30-33.s:4783   .text:00001618 .L0
../src/ff-pic24-30-33.s:4782   .text:00001616 .L0
../src/ff-pic24-30-33.s:4784   .text:0000161a .L0
../src/ff-pic24-30-33.s:4783   .text:00001618 .L0
../src/ff-pic24-30-33.s:4785   .text:0000161c .L0
../src/ff-pic24-30-33.s:4784   .text:0000161a .L0
../src/ff-pic24-30-33.s:4786   .text:0000161e .L0
../src/ff-pic24-30-33.s:4785   .text:0000161c .L0
../src/ff-pic24-30-33.s:4787   .text:00001620 .L0
../src/ff-pic24-30-33.s:4786   .text:0000161e .L0
../src/ff-pic24-30-33.s:4788   .text:00001622 .L0
../src/ff-pic24-30-33.s:4787   .text:00001620 .L0
../src/ff-pic24-30-33.s:4789   .text:00001624 .L0
../src/ff-pic24-30-33.s:4788   .text:00001622 .L0
../src/ff-pic24-30-33.s:4798   .text:00001630 .L0
../src/ff-pic24-30-33.s:4789   .text:00001624 .L0
../src/ff-pic24-30-33.s:4799   .text:00001632 .L0
../src/ff-pic24-30-33.s:4798   .text:00001630 .L0
../src/ff-pic24-30-33.s:4800   .text:00001634 .L0
../src/ff-pic24-30-33.s:4799   .text:00001632 .L0
../src/ff-pic24-30-33.s:4801   .text:00001638 .L0
../src/ff-pic24-30-33.s:4800   .text:00001634 .L0
../src/ff-pic24-30-33.s:4802   .text:0000163a .L0
../src/ff-pic24-30-33.s:4801   .text:00001638 .L0
../src/ff-pic24-30-33.s:4803   .text:0000163c .L0
../src/ff-pic24-30-33.s:4802   .text:0000163a .L0
../src/ff-pic24-30-33.s:4804   .text:0000163e .L0
../src/ff-pic24-30-33.s:4803   .text:0000163c .L0
../src/ff-pic24-30-33.s:4805   .text:00001640 .L0
../src/ff-pic24-30-33.s:4804   .text:0000163e .L0
../src/ff-pic24-30-33.s:4806   .text:00001642 .L0
../src/ff-pic24-30-33.s:4805   .text:00001640 .L0
../src/ff-pic24-30-33.s:4807   .text:00001644 .L0
../src/ff-pic24-30-33.s:4806   .text:00001642 .L0
../src/ff-pic24-30-33.s:4808   .text:00001646 .L0
../src/ff-pic24-30-33.s:4807   .text:00001644 .L0
../src/ff-pic24-30-33.s:4809   .text:00001648 .L0
../src/ff-pic24-30-33.s:4808   .text:00001646 .L0
../src/ff-pic24-30-33.s:4810   .text:0000164a .L0
../src/ff-pic24-30-33.s:4809   .text:00001648 .L0
../src/ff-pic24-30-33.s:4811   .text:0000164c .L0
../src/ff-pic24-30-33.s:4810   .text:0000164a .L0
../src/ff-pic24-30-33.s:4812   .text:0000164e .L0
../src/ff-pic24-30-33.s:4811   .text:0000164c .L0
../src/ff-pic24-30-33.s:4813   .text:00001650 .L0
../src/ff-pic24-30-33.s:4812   .text:0000164e .L0
../src/ff-pic24-30-33.s:4814   .text:00001652 .L0
../src/ff-pic24-30-33.s:4813   .text:00001650 .L0
../src/ff-pic24-30-33.s:4825   .text:0000165e .L0
../src/ff-pic24-30-33.s:4814   .text:00001652 .L0
../src/ff-pic24-30-33.s:4826   .text:00001660 .L0
../src/ff-pic24-30-33.s:4825   .text:0000165e .L0
../src/ff-pic24-30-33.s:4827   .text:00001662 .L0
../src/ff-pic24-30-33.s:4826   .text:00001660 .L0
../src/ff-pic24-30-33.s:4828   .text:00001664 .L0
MPLAB ASM30 Listing:  ../src/ff-pic24-30-33.s 			page 262


../src/ff-pic24-30-33.s:4827   .text:00001662 .L0
../src/ff-pic24-30-33.s:4829   .text:00001666 .L0
../src/ff-pic24-30-33.s:4828   .text:00001664 .L0
../src/ff-pic24-30-33.s:4830   .text:00001668 .L0
../src/ff-pic24-30-33.s:4829   .text:00001666 .L0
../src/ff-pic24-30-33.s:4831   .text:0000166a .L0
../src/ff-pic24-30-33.s:4830   .text:00001668 .L0
../src/ff-pic24-30-33.s:4832   .text:0000166c .L0
../src/ff-pic24-30-33.s:4831   .text:0000166a .L0
../src/ff-pic24-30-33.s:4833   .text:0000166e .L0
../src/ff-pic24-30-33.s:4832   .text:0000166c .L0
../src/ff-pic24-30-33.s:4834   .text:00001670 .L0
../src/ff-pic24-30-33.s:4833   .text:0000166e .L0
../src/ff-pic24-30-33.s:4835   .text:00001672 .L0
../src/ff-pic24-30-33.s:4834   .text:00001670 .L0
../src/ff-pic24-30-33.s:4836   .text:00001674 .L0
../src/ff-pic24-30-33.s:4835   .text:00001672 .L0
../src/ff-pic24-30-33.s:4838   .text:00001676 .L0
../src/ff-pic24-30-33.s:4836   .text:00001674 .L0
../src/ff-pic24-30-33.s:4839   .text:00001678 .L0
../src/ff-pic24-30-33.s:4838   .text:00001676 .L0
../src/ff-pic24-30-33.s:4840   .text:0000167a .L0
../src/ff-pic24-30-33.s:4839   .text:00001678 .L0
../src/ff-pic24-30-33.s:4841   .text:0000167c .L0
../src/ff-pic24-30-33.s:4840   .text:0000167a .L0
../src/ff-pic24-30-33.s:4842   .text:0000167e .L0
../src/ff-pic24-30-33.s:4841   .text:0000167c .L0
../src/ff-pic24-30-33.s:4843   .text:00001680 .L0
../src/ff-pic24-30-33.s:4842   .text:0000167e .L0
../src/ff-pic24-30-33.s:4844   .text:00001682 .L0
../src/ff-pic24-30-33.s:4843   .text:00001680 .L0
../src/ff-pic24-30-33.s:4845   .text:00001684 .L0
../src/ff-pic24-30-33.s:4844   .text:00001682 .L0
../src/ff-pic24-30-33.s:4846   .text:00001686 .L0
../src/ff-pic24-30-33.s:4845   .text:00001684 .L0
../src/ff-pic24-30-33.s:4847   .text:00001688 .L0
../src/ff-pic24-30-33.s:4846   .text:00001686 .L0
../src/ff-pic24-30-33.s:4848   .text:0000168a .L0
../src/ff-pic24-30-33.s:4847   .text:00001688 .L0
../src/ff-pic24-30-33.s:4850   .text:0000168c .L0
../src/ff-pic24-30-33.s:4848   .text:0000168a .L0
../src/ff-pic24-30-33.s:4865   .text:0000169e .L0
../src/ff-pic24-30-33.s:4850   .text:0000168c .L0
../src/ff-pic24-30-33.s:4866   .text:000016a0 .L0
../src/ff-pic24-30-33.s:4865   .text:0000169e .L0
../src/ff-pic24-30-33.s:4867   .text:000016a2 .L0
../src/ff-pic24-30-33.s:4866   .text:000016a0 .L0
../src/ff-pic24-30-33.s:4868   .text:000016a4 .L0
../src/ff-pic24-30-33.s:4867   .text:000016a2 .L0
../src/ff-pic24-30-33.s:4869   .text:000016a6 .L0
../src/ff-pic24-30-33.s:4868   .text:000016a4 .L0
../src/ff-pic24-30-33.s:4870   .text:000016a8 .L0
../src/ff-pic24-30-33.s:4869   .text:000016a6 .L0
../src/ff-pic24-30-33.s:4871   .text:000016aa .L0
../src/ff-pic24-30-33.s:4870   .text:000016a8 .L0
../src/ff-pic24-30-33.s:4872   .text:000016ac .L0
../src/ff-pic24-30-33.s:4871   .text:000016aa .L0
MPLAB ASM30 Listing:  ../src/ff-pic24-30-33.s 			page 263


../src/ff-pic24-30-33.s:4873   .text:000016ae .L0
../src/ff-pic24-30-33.s:4872   .text:000016ac .L0
../src/ff-pic24-30-33.s:4874   .text:000016b0 .L0
../src/ff-pic24-30-33.s:4873   .text:000016ae .L0
../src/ff-pic24-30-33.s:4875   .text:000016b2 .L0
../src/ff-pic24-30-33.s:4874   .text:000016b0 .L0
../src/ff-pic24-30-33.s:4876   .text:000016b4 .L0
../src/ff-pic24-30-33.s:4875   .text:000016b2 .L0
../src/ff-pic24-30-33.s:4877   .text:000016b6 .L0
../src/ff-pic24-30-33.s:4876   .text:000016b4 .L0
../src/ff-pic24-30-33.s:4878   .text:000016ba .L0
../src/ff-pic24-30-33.s:4877   .text:000016b6 .L0
../src/ff-pic24-30-33.s:4879   .text:000016bc .L0
../src/ff-pic24-30-33.s:4878   .text:000016ba .L0
../src/ff-pic24-30-33.s:4880   .text:000016be .L0
../src/ff-pic24-30-33.s:4879   .text:000016bc .L0
../src/ff-pic24-30-33.s:4881   .text:000016c2 .L0
../src/ff-pic24-30-33.s:4880   .text:000016be .L0
../src/ff-pic24-30-33.s:4882   .text:000016c4 .L0
../src/ff-pic24-30-33.s:4881   .text:000016c2 .L0
../src/ff-pic24-30-33.s:4883   .text:000016c6 .L0
../src/ff-pic24-30-33.s:4882   .text:000016c4 .L0
../src/ff-pic24-30-33.s:4884   .text:000016c8 .L0
../src/ff-pic24-30-33.s:4883   .text:000016c6 .L0
../src/ff-pic24-30-33.s:4885   .text:000016ca .L0
../src/ff-pic24-30-33.s:4884   .text:000016c8 .L0
../src/ff-pic24-30-33.s:4886   .text:000016ce .L0
../src/ff-pic24-30-33.s:4885   .text:000016ca .L0
../src/ff-pic24-30-33.s:4887   .text:000016d0 .L0
../src/ff-pic24-30-33.s:4886   .text:000016ce .L0
../src/ff-pic24-30-33.s:4888   .text:000016d2 .L0
../src/ff-pic24-30-33.s:4887   .text:000016d0 .L0
../src/ff-pic24-30-33.s:4889   .text:000016d4 .L0
../src/ff-pic24-30-33.s:4888   .text:000016d2 .L0
../src/ff-pic24-30-33.s:4890   .text:000016d6 .L0
../src/ff-pic24-30-33.s:4889   .text:000016d4 .L0
../src/ff-pic24-30-33.s:4892   .text:000016d8 .L0
../src/ff-pic24-30-33.s:4890   .text:000016d6 .L0
../src/ff-pic24-30-33.s:4894   .text:000016da .L0
../src/ff-pic24-30-33.s:4892   .text:000016d8 .L0
../src/ff-pic24-30-33.s:4895   .text:000016dc .L0
../src/ff-pic24-30-33.s:4894   .text:000016da .L0
../src/ff-pic24-30-33.s:4896   .text:000016de .L0
../src/ff-pic24-30-33.s:4895   .text:000016dc .L0
../src/ff-pic24-30-33.s:4897   .text:000016e0 .L0
../src/ff-pic24-30-33.s:4896   .text:000016de .L0
../src/ff-pic24-30-33.s:4899   .text:000016e2 .L0
../src/ff-pic24-30-33.s:4897   .text:000016e0 .L0
../src/ff-pic24-30-33.s:4900   .text:000016e4 .L0
../src/ff-pic24-30-33.s:4899   .text:000016e2 .L0
../src/ff-pic24-30-33.s:4901   .text:000016e6 .L0
../src/ff-pic24-30-33.s:4900   .text:000016e4 .L0
../src/ff-pic24-30-33.s:4902   .text:000016e8 .L0
../src/ff-pic24-30-33.s:4901   .text:000016e6 .L0
../src/ff-pic24-30-33.s:4903   .text:000016ea .L0
../src/ff-pic24-30-33.s:4902   .text:000016e8 .L0
../src/ff-pic24-30-33.s:4906   .text:000016ec .L0
MPLAB ASM30 Listing:  ../src/ff-pic24-30-33.s 			page 264


../src/ff-pic24-30-33.s:4903   .text:000016ea .L0
../src/ff-pic24-30-33.s:4907   .text:000016ee .L0
../src/ff-pic24-30-33.s:4906   .text:000016ec .L0
../src/ff-pic24-30-33.s:4909   .text:000016f0 .L0
../src/ff-pic24-30-33.s:4907   .text:000016ee .L0
../src/ff-pic24-30-33.s:4910   .text:000016f2 .L0
../src/ff-pic24-30-33.s:4909   .text:000016f0 .L0
../src/ff-pic24-30-33.s:4911   .text:000016f4 .L0
../src/ff-pic24-30-33.s:4910   .text:000016f2 .L0
../src/ff-pic24-30-33.s:4915   .text:000016f6 .L0
../src/ff-pic24-30-33.s:4911   .text:000016f4 .L0
../src/ff-pic24-30-33.s:4916   .text:000016f8 .L0
../src/ff-pic24-30-33.s:4915   .text:000016f6 .L0
../src/ff-pic24-30-33.s:4917   .text:000016fa .L0
../src/ff-pic24-30-33.s:4916   .text:000016f8 .L0
../src/ff-pic24-30-33.s:4918   .text:000016fc .L0
../src/ff-pic24-30-33.s:4917   .text:000016fa .L0
../src/ff-pic24-30-33.s:4919   .text:000016fe .L0
../src/ff-pic24-30-33.s:4918   .text:000016fc .L0
../src/ff-pic24-30-33.s:4921   .text:00001700 .L0
../src/ff-pic24-30-33.s:4919   .text:000016fe .L0
../src/ff-pic24-30-33.s:4922   .text:00001702 .L0
../src/ff-pic24-30-33.s:4921   .text:00001700 .L0
../src/ff-pic24-30-33.s:4923   .text:00001704 .L0
../src/ff-pic24-30-33.s:4922   .text:00001702 .L0
../src/ff-pic24-30-33.s:4924   .text:00001706 .L0
../src/ff-pic24-30-33.s:4923   .text:00001704 .L0
../src/ff-pic24-30-33.s:4925   .text:00001708 .L0
../src/ff-pic24-30-33.s:4924   .text:00001706 .L0
../src/ff-pic24-30-33.s:4926   .text:0000170c .L0
../src/ff-pic24-30-33.s:4925   .text:00001708 .L0
../src/ff-pic24-30-33.s:4927   .text:0000170e .L0
../src/ff-pic24-30-33.s:4926   .text:0000170c .L0
../src/ff-pic24-30-33.s:4928   .text:00001710 .L0
../src/ff-pic24-30-33.s:4927   .text:0000170e .L0
../src/ff-pic24-30-33.s:4929   .text:00001712 .L0
../src/ff-pic24-30-33.s:4928   .text:00001710 .L0
../src/ff-pic24-30-33.s:4930   .text:00001714 .L0
../src/ff-pic24-30-33.s:4929   .text:00001712 .L0
../src/ff-pic24-30-33.s:4931   .text:00001716 .L0
../src/ff-pic24-30-33.s:4930   .text:00001714 .L0
../src/ff-pic24-30-33.s:4932   .text:0000171a .L0
../src/ff-pic24-30-33.s:4931   .text:00001716 .L0
../src/ff-pic24-30-33.s:4935   .text:0000171c .L0
../src/ff-pic24-30-33.s:4932   .text:0000171a .L0
../src/ff-pic24-30-33.s:4936   .text:0000171e .L0
../src/ff-pic24-30-33.s:4935   .text:0000171c .L0
../src/ff-pic24-30-33.s:4937   .text:00001720 .L0
../src/ff-pic24-30-33.s:4936   .text:0000171e .L0
../src/ff-pic24-30-33.s:4939   .text:00001722 .L0
../src/ff-pic24-30-33.s:4937   .text:00001720 .L0
../src/ff-pic24-30-33.s:4949   .text:0000172a .L0
../src/ff-pic24-30-33.s:4939   .text:00001722 .L0
../src/ff-pic24-30-33.s:4950   .text:0000172c .L0
../src/ff-pic24-30-33.s:4949   .text:0000172a .L0
../src/ff-pic24-30-33.s:4951   .text:0000172e .L0
../src/ff-pic24-30-33.s:4950   .text:0000172c .L0
MPLAB ASM30 Listing:  ../src/ff-pic24-30-33.s 			page 265


../src/ff-pic24-30-33.s:4952   .text:00001732 .L0
../src/ff-pic24-30-33.s:4951   .text:0000172e .L0
../src/ff-pic24-30-33.s:4953   .text:00001734 .L0
../src/ff-pic24-30-33.s:4952   .text:00001732 .L0
../src/ff-pic24-30-33.s:4962   .text:0000173e .L0
../src/ff-pic24-30-33.s:4953   .text:00001734 .L0
../src/ff-pic24-30-33.s:4963   .text:00001740 .L0
../src/ff-pic24-30-33.s:4962   .text:0000173e .L0
../src/ff-pic24-30-33.s:4972   .text:0000174a .L0
../src/ff-pic24-30-33.s:4963   .text:00001740 .L0
../src/ff-pic24-30-33.s:4983   .text:00001754 .L0
../src/ff-pic24-30-33.s:4972   .text:0000174a .L0
../src/ff-pic24-30-33.s:4993   .text:00001762 .L0
../src/ff-pic24-30-33.s:4983   .text:00001754 .L0
../src/ff-pic24-30-33.s:5005   .text:0000176c .L0
../src/ff-pic24-30-33.s:4993   .text:00001762 .L0
../src/ff-pic24-30-33.s:5006   .text:0000176e .L0
../src/ff-pic24-30-33.s:5005   .text:0000176c .L0
../src/ff-pic24-30-33.s:5007   .text:00001772 .L0
../src/ff-pic24-30-33.s:5006   .text:0000176e .L0
../src/ff-pic24-30-33.s:5029   .text:00001782 .L0
../src/ff-pic24-30-33.s:5007   .text:00001772 .L0
../src/ff-pic24-30-33.s:5030   .text:00001784 .L0
../src/ff-pic24-30-33.s:5029   .text:00001782 .L0
../src/ff-pic24-30-33.s:5031   .text:00001786 .L0
../src/ff-pic24-30-33.s:5030   .text:00001784 .L0
../src/ff-pic24-30-33.s:5032   .text:00001788 .L0
../src/ff-pic24-30-33.s:5031   .text:00001786 .L0
../src/ff-pic24-30-33.s:5033   .text:0000178a .L0
../src/ff-pic24-30-33.s:5032   .text:00001788 .L0
../src/ff-pic24-30-33.s:5035   .text:0000178c .L0
../src/ff-pic24-30-33.s:5033   .text:0000178a .L0
../src/ff-pic24-30-33.s:5036   .text:0000178e .L0
../src/ff-pic24-30-33.s:5035   .text:0000178c .L0
../src/ff-pic24-30-33.s:5037   .text:00001790 .L0
../src/ff-pic24-30-33.s:5036   .text:0000178e .L0
../src/ff-pic24-30-33.s:5038   .text:00001792 .L0
../src/ff-pic24-30-33.s:5037   .text:00001790 .L0
../src/ff-pic24-30-33.s:5039   .text:00001794 .L0
../src/ff-pic24-30-33.s:5038   .text:00001792 .L0
../src/ff-pic24-30-33.s:5040   .text:00001796 .L0
../src/ff-pic24-30-33.s:5039   .text:00001794 .L0
../src/ff-pic24-30-33.s:5041   .text:00001798 .L0
../src/ff-pic24-30-33.s:5040   .text:00001796 .L0
../src/ff-pic24-30-33.s:5042   .text:0000179a .L0
../src/ff-pic24-30-33.s:5041   .text:00001798 .L0
../src/ff-pic24-30-33.s:5043   .text:0000179c .L0
../src/ff-pic24-30-33.s:5042   .text:0000179a .L0
../src/ff-pic24-30-33.s:5044   .text:0000179e .L0
../src/ff-pic24-30-33.s:5043   .text:0000179c .L0
../src/ff-pic24-30-33.s:5045   .text:000017a0 .L0
../src/ff-pic24-30-33.s:5044   .text:0000179e .L0
../src/ff-pic24-30-33.s:5046   .text:000017a2 .L0
../src/ff-pic24-30-33.s:5045   .text:000017a0 .L0
../src/ff-pic24-30-33.s:5047   .text:000017a4 .L0
../src/ff-pic24-30-33.s:5046   .text:000017a2 .L0
../src/ff-pic24-30-33.s:5048   .text:000017a6 .L0
MPLAB ASM30 Listing:  ../src/ff-pic24-30-33.s 			page 266


../src/ff-pic24-30-33.s:5047   .text:000017a4 .L0
../src/ff-pic24-30-33.s:5049   .text:000017a8 .L0
../src/ff-pic24-30-33.s:5048   .text:000017a6 .L0
../src/ff-pic24-30-33.s:5051   .text:000017aa .L0
../src/ff-pic24-30-33.s:5049   .text:000017a8 .L0
../src/ff-pic24-30-33.s:5052   .text:000017ac .L0
../src/ff-pic24-30-33.s:5051   .text:000017aa .L0
../src/ff-pic24-30-33.s:5053   .text:000017ae .L0
../src/ff-pic24-30-33.s:5052   .text:000017ac .L0
../src/ff-pic24-30-33.s:5054   .text:000017b0 .L0
../src/ff-pic24-30-33.s:5053   .text:000017ae .L0
../src/ff-pic24-30-33.s:5055   .text:000017b4 .L0
../src/ff-pic24-30-33.s:5054   .text:000017b0 .L0
../src/ff-pic24-30-33.s:5056   .text:000017b6 .L0
../src/ff-pic24-30-33.s:5055   .text:000017b4 .L0
../src/ff-pic24-30-33.s:5057   .text:000017b8 .L0
../src/ff-pic24-30-33.s:5056   .text:000017b6 .L0
../src/ff-pic24-30-33.s:5058   .text:000017ba .L0
../src/ff-pic24-30-33.s:5057   .text:000017b8 .L0
../src/ff-pic24-30-33.s:5059   .text:000017bc .L0
../src/ff-pic24-30-33.s:5058   .text:000017ba .L0
../src/ff-pic24-30-33.s:5063   .text:000017cc .L0
../src/ff-pic24-30-33.s:5059   .text:000017bc .L0
../src/ff-pic24-30-33.s:5065   .text:000017ce .L0
../src/ff-pic24-30-33.s:5063   .text:000017cc .L0
../src/ff-pic24-30-33.s:5066   .text:000017d0 .L0
../src/ff-pic24-30-33.s:5065   .text:000017ce .L0
../src/ff-pic24-30-33.s:5067   .text:000017d4 .L0
../src/ff-pic24-30-33.s:5066   .text:000017d0 .L0
../src/ff-pic24-30-33.s:5068   .text:000017d6 .L0
../src/ff-pic24-30-33.s:5067   .text:000017d4 .L0
../src/ff-pic24-30-33.s:5069   .text:000017d8 .L0
../src/ff-pic24-30-33.s:5068   .text:000017d6 .L0
../src/ff-pic24-30-33.s:5070   .text:000017da .L0
../src/ff-pic24-30-33.s:5069   .text:000017d8 .L0
../src/ff-pic24-30-33.s:5071   .text:000017dc .L0
../src/ff-pic24-30-33.s:5070   .text:000017da .L0
../src/ff-pic24-30-33.s:5072   .text:000017de .L0
../src/ff-pic24-30-33.s:5071   .text:000017dc .L0
../src/ff-pic24-30-33.s:5073   .text:000017e0 .L0
../src/ff-pic24-30-33.s:5072   .text:000017de .L0
../src/ff-pic24-30-33.s:5074   .text:000017e4 .L0
../src/ff-pic24-30-33.s:5073   .text:000017e0 .L0
../src/ff-pic24-30-33.s:5075   .text:000017e6 .L0
../src/ff-pic24-30-33.s:5074   .text:000017e4 .L0
../src/ff-pic24-30-33.s:5076   .text:000017e8 .L0
../src/ff-pic24-30-33.s:5075   .text:000017e6 .L0
../src/ff-pic24-30-33.s:5077   .text:000017ea .L0
../src/ff-pic24-30-33.s:5076   .text:000017e8 .L0
../src/ff-pic24-30-33.s:5078   .text:000017ec .L0
../src/ff-pic24-30-33.s:5077   .text:000017ea .L0
../src/ff-pic24-30-33.s:5079   .text:000017ee .L0
../src/ff-pic24-30-33.s:5078   .text:000017ec .L0
../src/ff-pic24-30-33.s:5080   .text:000017f0 .L0
../src/ff-pic24-30-33.s:5079   .text:000017ee .L0
../src/ff-pic24-30-33.s:5081   .text:000017f2 .L0
../src/ff-pic24-30-33.s:5080   .text:000017f0 .L0
MPLAB ASM30 Listing:  ../src/ff-pic24-30-33.s 			page 267


../src/ff-pic24-30-33.s:5082   .text:000017f4 .L0
../src/ff-pic24-30-33.s:5081   .text:000017f2 .L0
../src/ff-pic24-30-33.s:5083   .text:000017f6 .L0
../src/ff-pic24-30-33.s:5082   .text:000017f4 .L0
../src/ff-pic24-30-33.s:5085   .text:000017f8 .L0
../src/ff-pic24-30-33.s:5083   .text:000017f6 .L0
../src/ff-pic24-30-33.s:5086   .text:000017fa .L0
../src/ff-pic24-30-33.s:5085   .text:000017f8 .L0
../src/ff-pic24-30-33.s:5087   .text:000017fc .L0
../src/ff-pic24-30-33.s:5086   .text:000017fa .L0
../src/ff-pic24-30-33.s:5088   .text:000017fe .L0
../src/ff-pic24-30-33.s:5087   .text:000017fc .L0
../src/ff-pic24-30-33.s:5089   .text:00001802 .L0
../src/ff-pic24-30-33.s:5088   .text:000017fe .L0
../src/ff-pic24-30-33.s:5090   .text:00001804 .L0
../src/ff-pic24-30-33.s:5089   .text:00001802 .L0
../src/ff-pic24-30-33.s:5091   .text:00001806 .L0
../src/ff-pic24-30-33.s:5090   .text:00001804 .L0
../src/ff-pic24-30-33.s:5092   .text:00001808 .L0
../src/ff-pic24-30-33.s:5091   .text:00001806 .L0
../src/ff-pic24-30-33.s:5093   .text:0000180a .L0
../src/ff-pic24-30-33.s:5092   .text:00001808 .L0
../src/ff-pic24-30-33.s:5095   .text:0000180c .L0
../src/ff-pic24-30-33.s:5093   .text:0000180a .L0
../src/ff-pic24-30-33.s:5096   .text:0000180e .L0
../src/ff-pic24-30-33.s:5095   .text:0000180c .L0
../src/ff-pic24-30-33.s:5097   .text:00001812 .L0
../src/ff-pic24-30-33.s:5096   .text:0000180e .L0
../src/ff-pic24-30-33.s:5098   .text:00001814 .L0
../src/ff-pic24-30-33.s:5097   .text:00001812 .L0
../src/ff-pic24-30-33.s:5099   .text:00001816 .L0
../src/ff-pic24-30-33.s:5098   .text:00001814 .L0
../src/ff-pic24-30-33.s:5100   .text:00001818 .L0
../src/ff-pic24-30-33.s:5099   .text:00001816 .L0
../src/ff-pic24-30-33.s:5101   .text:0000181a .L0
../src/ff-pic24-30-33.s:5100   .text:00001818 .L0
../src/ff-pic24-30-33.s:5103   .text:0000181c .L0
../src/ff-pic24-30-33.s:5101   .text:0000181a .L0
../src/ff-pic24-30-33.s:5105   .text:0000181e .L0
../src/ff-pic24-30-33.s:5103   .text:0000181c .L0
../src/ff-pic24-30-33.s:5106   .text:00001820 .L0
../src/ff-pic24-30-33.s:5105   .text:0000181e .L0
../src/ff-pic24-30-33.s:5107   .text:00001822 .L0
../src/ff-pic24-30-33.s:5106   .text:00001820 .L0
../src/ff-pic24-30-33.s:5108   .text:00001824 .L0
../src/ff-pic24-30-33.s:5107   .text:00001822 .L0
../src/ff-pic24-30-33.s:5109   .text:00001826 .L0
../src/ff-pic24-30-33.s:5108   .text:00001824 .L0
../src/ff-pic24-30-33.s:5110   .text:00001828 .L0
../src/ff-pic24-30-33.s:5109   .text:00001826 .L0
../src/ff-pic24-30-33.s:5111   .text:0000182a .L0
../src/ff-pic24-30-33.s:5110   .text:00001828 .L0
../src/ff-pic24-30-33.s:5114   .text:0000182c .L0
../src/ff-pic24-30-33.s:5111   .text:0000182a .L0
../src/ff-pic24-30-33.s:5115   .text:0000182e .L0
../src/ff-pic24-30-33.s:5114   .text:0000182c .L0
../src/ff-pic24-30-33.s:5118   .text:00001830 .L0
MPLAB ASM30 Listing:  ../src/ff-pic24-30-33.s 			page 268


../src/ff-pic24-30-33.s:5115   .text:0000182e .L0
../src/ff-pic24-30-33.s:5119   .text:00001832 .L0
../src/ff-pic24-30-33.s:5118   .text:00001830 .L0
../src/ff-pic24-30-33.s:5120   .text:00001834 .L0
../src/ff-pic24-30-33.s:5119   .text:00001832 .L0
../src/ff-pic24-30-33.s:5121   .text:00001836 .L0
../src/ff-pic24-30-33.s:5120   .text:00001834 .L0
../src/ff-pic24-30-33.s:5122   .text:00001838 .L0
../src/ff-pic24-30-33.s:5121   .text:00001836 .L0
../src/ff-pic24-30-33.s:5123   .text:0000183a .L0
../src/ff-pic24-30-33.s:5122   .text:00001838 .L0
../src/ff-pic24-30-33.s:5124   .text:0000183c .L0
../src/ff-pic24-30-33.s:5123   .text:0000183a .L0
../src/ff-pic24-30-33.s:5125   .text:0000183e .L0
../src/ff-pic24-30-33.s:5124   .text:0000183c .L0
../src/ff-pic24-30-33.s:5126   .text:00001840 .L0
../src/ff-pic24-30-33.s:5125   .text:0000183e .L0
../src/ff-pic24-30-33.s:5127   .text:00001842 .L0
../src/ff-pic24-30-33.s:5126   .text:00001840 .L0
../src/ff-pic24-30-33.s:5128   .text:00001844 .L0
../src/ff-pic24-30-33.s:5127   .text:00001842 .L0
../src/ff-pic24-30-33.s:5129   .text:00001846 .L0
../src/ff-pic24-30-33.s:5128   .text:00001844 .L0
../src/ff-pic24-30-33.s:5131   .text:00001848 .L0
../src/ff-pic24-30-33.s:5129   .text:00001846 .L0
../src/ff-pic24-30-33.s:5132   .text:0000184a .L0
../src/ff-pic24-30-33.s:5131   .text:00001848 .L0
../src/ff-pic24-30-33.s:5134   .text:0000184c .L0
../src/ff-pic24-30-33.s:5132   .text:0000184a .L0
../src/ff-pic24-30-33.s:5135   .text:0000184e .L0
../src/ff-pic24-30-33.s:5134   .text:0000184c .L0
../src/ff-pic24-30-33.s:5137   .text:00001850 .L0
../src/ff-pic24-30-33.s:5135   .text:0000184e .L0
../src/ff-pic24-30-33.s:5138   .text:00001852 .L0
../src/ff-pic24-30-33.s:5137   .text:00001850 .L0
../src/ff-pic24-30-33.s:5140   .text:00001854 .L0
../src/ff-pic24-30-33.s:5138   .text:00001852 .L0
../src/ff-pic24-30-33.s:5141   .text:00001856 .L0
../src/ff-pic24-30-33.s:5140   .text:00001854 .L0
../src/ff-pic24-30-33.s:5142   .text:00001858 .L0
../src/ff-pic24-30-33.s:5141   .text:00001856 .L0
../src/ff-pic24-30-33.s:5143   .text:0000185a .L0
../src/ff-pic24-30-33.s:5142   .text:00001858 .L0
../src/ff-pic24-30-33.s:5144   .text:0000185c .L0
../src/ff-pic24-30-33.s:5143   .text:0000185a .L0
../src/ff-pic24-30-33.s:5147   .text:0000185e .L0
../src/ff-pic24-30-33.s:5144   .text:0000185c .L0
../src/ff-pic24-30-33.s:5148   .text:00001860 .L0
../src/ff-pic24-30-33.s:5147   .text:0000185e .L0
../src/ff-pic24-30-33.s:5156   .text:00001868 .L0
../src/ff-pic24-30-33.s:5148   .text:00001860 .L0
../src/ff-pic24-30-33.s:5157   .text:0000186a .L0
../src/ff-pic24-30-33.s:5156   .text:00001868 .L0
../src/ff-pic24-30-33.s:5158   .text:0000186c .L0
../src/ff-pic24-30-33.s:5157   .text:0000186a .L0
../src/ff-pic24-30-33.s:5159   .text:0000186e .L0
../src/ff-pic24-30-33.s:5158   .text:0000186c .L0
MPLAB ASM30 Listing:  ../src/ff-pic24-30-33.s 			page 269


../src/ff-pic24-30-33.s:5160   .text:00001870 .L0
../src/ff-pic24-30-33.s:5159   .text:0000186e .L0
../src/ff-pic24-30-33.s:5161   .text:00001872 .L0
../src/ff-pic24-30-33.s:5160   .text:00001870 .L0
../src/ff-pic24-30-33.s:5162   .text:00001874 .L0
../src/ff-pic24-30-33.s:5161   .text:00001872 .L0
../src/ff-pic24-30-33.s:5163   .text:00001876 .L0
../src/ff-pic24-30-33.s:5162   .text:00001874 .L0
../src/ff-pic24-30-33.s:5171   .text:00001886 .L0
../src/ff-pic24-30-33.s:5163   .text:00001876 .L0
../src/ff-pic24-30-33.s:5172   .text:0000188a .L0
../src/ff-pic24-30-33.s:5171   .text:00001886 .L0
../src/ff-pic24-30-33.s:5180   .text:00001898 .L0
../src/ff-pic24-30-33.s:5172   .text:0000188a .L0
../src/ff-pic24-30-33.s:5181   .text:0000189c .L0
../src/ff-pic24-30-33.s:5180   .text:00001898 .L0
../src/ff-pic24-30-33.s:5192   .text:000018a6 .L0
../src/ff-pic24-30-33.s:5181   .text:0000189c .L0
../src/ff-pic24-30-33.s:5193   .text:000018aa .L0
../src/ff-pic24-30-33.s:5192   .text:000018a6 .L0
../src/ff-pic24-30-33.s:5194   .text:000018ac .L0
../src/ff-pic24-30-33.s:5193   .text:000018aa .L0
../src/ff-pic24-30-33.s:5195   .text:000018ae .L0
../src/ff-pic24-30-33.s:5194   .text:000018ac .L0
../src/ff-pic24-30-33.s:5196   .text:000018b0 .L0
../src/ff-pic24-30-33.s:5195   .text:000018ae .L0
../src/ff-pic24-30-33.s:5197   .text:000018b4 .L0
../src/ff-pic24-30-33.s:5196   .text:000018b0 .L0
../src/ff-pic24-30-33.s:5198   .text:000018b6 .L0
../src/ff-pic24-30-33.s:5197   .text:000018b4 .L0
../src/ff-pic24-30-33.s:5199   .text:000018b8 .L0
../src/ff-pic24-30-33.s:5198   .text:000018b6 .L0
../src/ff-pic24-30-33.s:5200   .text:000018ba .L0
../src/ff-pic24-30-33.s:5199   .text:000018b8 .L0
../src/ff-pic24-30-33.s:5201   .text:000018be .L0
../src/ff-pic24-30-33.s:5200   .text:000018ba .L0
../src/ff-pic24-30-33.s:5202   .text:000018c0 .L0
../src/ff-pic24-30-33.s:5201   .text:000018be .L0
../src/ff-pic24-30-33.s:5203   .text:000018c2 .L0
../src/ff-pic24-30-33.s:5202   .text:000018c0 .L0
../src/ff-pic24-30-33.s:5207   .text:000018c6 .L0
../src/ff-pic24-30-33.s:5203   .text:000018c2 .L0
../src/ff-pic24-30-33.s:5210   .text:000018ca .L0
../src/ff-pic24-30-33.s:5207   .text:000018c6 .L0
../src/ff-pic24-30-33.s:5213   .text:000018ce .L0
../src/ff-pic24-30-33.s:5210   .text:000018ca .L0
../src/ff-pic24-30-33.s:5216   .text:000018d2 .L0
../src/ff-pic24-30-33.s:5213   .text:000018ce .L0
../src/ff-pic24-30-33.s:5225   .text:000018d6 .L0
../src/ff-pic24-30-33.s:5216   .text:000018d2 .L0
../src/ff-pic24-30-33.s:5226   .text:000018da .L0
../src/ff-pic24-30-33.s:5225   .text:000018d6 .L0
../src/ff-pic24-30-33.s:5227   .text:000018dc .L0
../src/ff-pic24-30-33.s:5226   .text:000018da .L0
../src/ff-pic24-30-33.s:5228   .text:000018de .L0
../src/ff-pic24-30-33.s:5227   .text:000018dc .L0
../src/ff-pic24-30-33.s:5230   .text:000018e0 .L0
MPLAB ASM30 Listing:  ../src/ff-pic24-30-33.s 			page 270


../src/ff-pic24-30-33.s:5228   .text:000018de .L0
../src/ff-pic24-30-33.s:5231   .text:000018e2 .L0
../src/ff-pic24-30-33.s:5230   .text:000018e0 .L0
../src/ff-pic24-30-33.s:5232   .text:000018e4 .L0
../src/ff-pic24-30-33.s:5231   .text:000018e2 .L0
../src/ff-pic24-30-33.s:5234   .text:000018e6 .L0
../src/ff-pic24-30-33.s:5232   .text:000018e4 .L0
../src/ff-pic24-30-33.s:5235   .text:000018e8 .L0
../src/ff-pic24-30-33.s:5234   .text:000018e6 .L0
../src/ff-pic24-30-33.s:5236   .text:000018ea .L0
../src/ff-pic24-30-33.s:5235   .text:000018e8 .L0
../src/ff-pic24-30-33.s:5238   .text:000018ec .L0
../src/ff-pic24-30-33.s:5236   .text:000018ea .L0
../src/ff-pic24-30-33.s:5239   .text:000018ee .L0
../src/ff-pic24-30-33.s:5238   .text:000018ec .L0
../src/ff-pic24-30-33.s:5240   .text:000018f0 .L0
../src/ff-pic24-30-33.s:5239   .text:000018ee .L0
../src/ff-pic24-30-33.s:5258   .text:000018f8 .L0
../src/ff-pic24-30-33.s:5240   .text:000018f0 .L0
../src/ff-pic24-30-33.s:5259   .text:000018fa .L0
../src/ff-pic24-30-33.s:5258   .text:000018f8 .L0
../src/ff-pic24-30-33.s:5260   .text:000018fc .L0
../src/ff-pic24-30-33.s:5259   .text:000018fa .L0
../src/ff-pic24-30-33.s:5261   .text:000018fe .L0
../src/ff-pic24-30-33.s:5260   .text:000018fc .L0
../src/ff-pic24-30-33.s:5262   .text:00001902 .L0
../src/ff-pic24-30-33.s:5261   .text:000018fe .L0
../src/ff-pic24-30-33.s:5264   .text:00001904 .L0
../src/ff-pic24-30-33.s:5262   .text:00001902 .L0
../src/ff-pic24-30-33.s:5265   .text:00001906 .L0
../src/ff-pic24-30-33.s:5264   .text:00001904 .L0
../src/ff-pic24-30-33.s:5266   .text:00001908 .L0
../src/ff-pic24-30-33.s:5265   .text:00001906 .L0
../src/ff-pic24-30-33.s:5267   .text:0000190a .L0
../src/ff-pic24-30-33.s:5266   .text:00001908 .L0
../src/ff-pic24-30-33.s:5268   .text:0000190c .L0
../src/ff-pic24-30-33.s:5267   .text:0000190a .L0
../src/ff-pic24-30-33.s:5269   .text:0000190e .L0
../src/ff-pic24-30-33.s:5268   .text:0000190c .L0
../src/ff-pic24-30-33.s:5270   .text:00001910 .L0
../src/ff-pic24-30-33.s:5269   .text:0000190e .L0
../src/ff-pic24-30-33.s:5272   .text:00001912 .L0
../src/ff-pic24-30-33.s:5270   .text:00001910 .L0
../src/ff-pic24-30-33.s:5273   .text:00001914 .L0
../src/ff-pic24-30-33.s:5272   .text:00001912 .L0
../src/ff-pic24-30-33.s:5274   .text:00001916 .L0
../src/ff-pic24-30-33.s:5273   .text:00001914 .L0
../src/ff-pic24-30-33.s:5277   .text:0000191a .L0
../src/ff-pic24-30-33.s:5274   .text:00001916 .L0
../src/ff-pic24-30-33.s:5278   .text:0000191e .L0
../src/ff-pic24-30-33.s:5277   .text:0000191a .L0
../src/ff-pic24-30-33.s:5321   .text:00001926 .L0
../src/ff-pic24-30-33.s:5278   .text:0000191e .L0
../src/ff-pic24-30-33.s:5322   .text:0000192a .L0
../src/ff-pic24-30-33.s:5321   .text:00001926 .L0
../src/ff-pic24-30-33.s:5323   .text:0000192c .L0
../src/ff-pic24-30-33.s:5322   .text:0000192a .L0
MPLAB ASM30 Listing:  ../src/ff-pic24-30-33.s 			page 271


../src/ff-pic24-30-33.s:5324   .text:0000192e .L0
../src/ff-pic24-30-33.s:5323   .text:0000192c .L0
../src/ff-pic24-30-33.s:5325   .text:00001930 .L0
../src/ff-pic24-30-33.s:5324   .text:0000192e .L0
../src/ff-pic24-30-33.s:5326   .text:00001934 .L0
../src/ff-pic24-30-33.s:5325   .text:00001930 .L0
../src/ff-pic24-30-33.s:5328   .text:00001936 .L0
../src/ff-pic24-30-33.s:5326   .text:00001934 .L0
../src/ff-pic24-30-33.s:5329   .text:00001938 .L0
../src/ff-pic24-30-33.s:5328   .text:00001936 .L0
../src/ff-pic24-30-33.s:5330   .text:0000193a .L0
../src/ff-pic24-30-33.s:5329   .text:00001938 .L0
../src/ff-pic24-30-33.s:5331   .text:0000193c .L0
../src/ff-pic24-30-33.s:5330   .text:0000193a .L0
../src/ff-pic24-30-33.s:5332   .text:0000193e .L0
../src/ff-pic24-30-33.s:5331   .text:0000193c .L0
../src/ff-pic24-30-33.s:5333   .text:00001940 .L0
../src/ff-pic24-30-33.s:5332   .text:0000193e .L0
../src/ff-pic24-30-33.s:5334   .text:00001942 .L0
../src/ff-pic24-30-33.s:5333   .text:00001940 .L0
../src/ff-pic24-30-33.s:5335   .text:00001944 .L0
../src/ff-pic24-30-33.s:5334   .text:00001942 .L0
../src/ff-pic24-30-33.s:5336   .text:00001946 .L0
../src/ff-pic24-30-33.s:5335   .text:00001944 .L0
../src/ff-pic24-30-33.s:5342   .text:00001948 .L0
../src/ff-pic24-30-33.s:5336   .text:00001946 .L0
../src/ff-pic24-30-33.s:5343   .text:0000194a .L0
../src/ff-pic24-30-33.s:5342   .text:00001948 .L0
../src/ff-pic24-30-33.s:5344   .text:0000194c .L0
../src/ff-pic24-30-33.s:5343   .text:0000194a .L0
../src/ff-pic24-30-33.s:5345   .text:0000194e .L0
../src/ff-pic24-30-33.s:5344   .text:0000194c .L0
../src/ff-pic24-30-33.s:5346   .text:00001950 .L0
../src/ff-pic24-30-33.s:5345   .text:0000194e .L0
../src/ff-pic24-30-33.s:5347   .text:00001952 .L0
../src/ff-pic24-30-33.s:5346   .text:00001950 .L0
../src/ff-pic24-30-33.s:5348   .text:00001954 .L0
../src/ff-pic24-30-33.s:5347   .text:00001952 .L0
../src/ff-pic24-30-33.s:5349   .text:00001956 .L0
../src/ff-pic24-30-33.s:5348   .text:00001954 .L0
../src/ff-pic24-30-33.s:5357   .text:0000195c .L0
../src/ff-pic24-30-33.s:5349   .text:00001956 .L0
../src/ff-pic24-30-33.s:5358   .text:0000195e .L0
../src/ff-pic24-30-33.s:5357   .text:0000195c .L0
../src/ff-pic24-30-33.s:5359   .text:00001960 .L0
../src/ff-pic24-30-33.s:5358   .text:0000195e .L0
../src/ff-pic24-30-33.s:5360   .text:00001962 .L0
../src/ff-pic24-30-33.s:5359   .text:00001960 .L0
../src/ff-pic24-30-33.s:5361   .text:00001964 .L0
../src/ff-pic24-30-33.s:5360   .text:00001962 .L0
../src/ff-pic24-30-33.s:5362   .text:00001966 .L0
../src/ff-pic24-30-33.s:5361   .text:00001964 .L0
../src/ff-pic24-30-33.s:5366   .text:0000196c .L0
../src/ff-pic24-30-33.s:5362   .text:00001966 .L0
../src/ff-pic24-30-33.s:5367   .text:0000196e .L0
../src/ff-pic24-30-33.s:5366   .text:0000196c .L0
../src/ff-pic24-30-33.s:5375   .text:00001978 .L0
MPLAB ASM30 Listing:  ../src/ff-pic24-30-33.s 			page 272


../src/ff-pic24-30-33.s:5367   .text:0000196e .L0
../src/ff-pic24-30-33.s:5376   .text:0000197a .L0
../src/ff-pic24-30-33.s:5375   .text:00001978 .L0
../src/ff-pic24-30-33.s:5377   .text:0000197c .L0
../src/ff-pic24-30-33.s:5376   .text:0000197a .L0
../src/ff-pic24-30-33.s:5379   .text:0000197e .L0
../src/ff-pic24-30-33.s:5377   .text:0000197c .L0
../src/ff-pic24-30-33.s:5381   .text:00001980 .L0
../src/ff-pic24-30-33.s:5379   .text:0000197e .L0
../src/ff-pic24-30-33.s:5383   .text:00001982 .L0
../src/ff-pic24-30-33.s:5381   .text:00001980 .L0
../src/ff-pic24-30-33.s:5384   .text:00001984 .L0
../src/ff-pic24-30-33.s:5383   .text:00001982 .L0
../src/ff-pic24-30-33.s:5385   .text:00001986 .L0
../src/ff-pic24-30-33.s:5384   .text:00001984 .L0
../src/ff-pic24-30-33.s:5386   .text:00001988 .L0
../src/ff-pic24-30-33.s:5385   .text:00001986 .L0
../src/ff-pic24-30-33.s:5387   .text:0000198a .L0
../src/ff-pic24-30-33.s:5386   .text:00001988 .L0
../src/ff-pic24-30-33.s:5388   .text:0000198c .L0
../src/ff-pic24-30-33.s:5387   .text:0000198a .L0
../src/ff-pic24-30-33.s:5389   .text:00001990 .L0
../src/ff-pic24-30-33.s:5388   .text:0000198c .L0
../src/ff-pic24-30-33.s:5390   .text:00001992 .L0
../src/ff-pic24-30-33.s:5389   .text:00001990 .L0
../src/ff-pic24-30-33.s:5391   .text:00001994 .L0
../src/ff-pic24-30-33.s:5390   .text:00001992 .L0
../src/ff-pic24-30-33.s:5392   .text:00001996 .L0
../src/ff-pic24-30-33.s:5391   .text:00001994 .L0
../src/ff-pic24-30-33.s:5393   .text:00001998 .L0
../src/ff-pic24-30-33.s:5392   .text:00001996 .L0
../src/ff-pic24-30-33.s:5394   .text:0000199a .L0
../src/ff-pic24-30-33.s:5393   .text:00001998 .L0
../src/ff-pic24-30-33.s:5395   .text:0000199c .L0
../src/ff-pic24-30-33.s:5394   .text:0000199a .L0
../src/ff-pic24-30-33.s:5396   .text:0000199e .L0
../src/ff-pic24-30-33.s:5395   .text:0000199c .L0
../src/ff-pic24-30-33.s:5397   .text:000019a0 .L0
../src/ff-pic24-30-33.s:5396   .text:0000199e .L0
../src/ff-pic24-30-33.s:5401   .text:000019a6 .L0
../src/ff-pic24-30-33.s:5397   .text:000019a0 .L0
../src/ff-pic24-30-33.s:5402   .text:000019a8 .L0
../src/ff-pic24-30-33.s:5401   .text:000019a6 .L0
../src/ff-pic24-30-33.s:5403   .text:000019aa .L0
../src/ff-pic24-30-33.s:5402   .text:000019a8 .L0
../src/ff-pic24-30-33.s:5404   .text:000019ac .L0
../src/ff-pic24-30-33.s:5403   .text:000019aa .L0
../src/ff-pic24-30-33.s:5412   .text:000019b8 .L0
../src/ff-pic24-30-33.s:5404   .text:000019ac .L0
../src/ff-pic24-30-33.s:5422   .text:000019c4 .L0
../src/ff-pic24-30-33.s:5412   .text:000019b8 .L0
../src/ff-pic24-30-33.s:5423   .text:000019c6 .L0
../src/ff-pic24-30-33.s:5422   .text:000019c4 .L0
../src/ff-pic24-30-33.s:5424   .text:000019c8 .L0
../src/ff-pic24-30-33.s:5423   .text:000019c6 .L0
../src/ff-pic24-30-33.s:5425   .text:000019ca .L0
../src/ff-pic24-30-33.s:5424   .text:000019c8 .L0
MPLAB ASM30 Listing:  ../src/ff-pic24-30-33.s 			page 273


../src/ff-pic24-30-33.s:5434   .text:000019d8 .L0
../src/ff-pic24-30-33.s:5425   .text:000019ca .L0
../src/ff-pic24-30-33.s:5438   .text:000019dc .L0
../src/ff-pic24-30-33.s:5434   .text:000019d8 .L0
../src/ff-pic24-30-33.s:5447   .text:000019e8 .L0
../src/ff-pic24-30-33.s:5438   .text:000019dc .L0
../src/ff-pic24-30-33.s:5448   .text:000019ea .L0
../src/ff-pic24-30-33.s:5447   .text:000019e8 .L0
../src/ff-pic24-30-33.s:5449   .text:000019ec .L0
../src/ff-pic24-30-33.s:5448   .text:000019ea .L0
../src/ff-pic24-30-33.s:5451   .text:000019ee .L0
../src/ff-pic24-30-33.s:5449   .text:000019ec .L0
../src/ff-pic24-30-33.s:5452   .text:000019f0 .L0
../src/ff-pic24-30-33.s:5451   .text:000019ee .L0
../src/ff-pic24-30-33.s:5453   .text:000019f2 .L0
../src/ff-pic24-30-33.s:5452   .text:000019f0 .L0
../src/ff-pic24-30-33.s:5454   .text:000019f4 .L0
../src/ff-pic24-30-33.s:5453   .text:000019f2 .L0
../src/ff-pic24-30-33.s:5455   .text:000019f6 .L0
../src/ff-pic24-30-33.s:5454   .text:000019f4 .L0
../src/ff-pic24-30-33.s:5465   .text:00001a02 .L0
../src/ff-pic24-30-33.s:5455   .text:000019f6 .L0
../src/ff-pic24-30-33.s:5466   .text:00001a04 .L0
../src/ff-pic24-30-33.s:5465   .text:00001a02 .L0
../src/ff-pic24-30-33.s:5468   .text:00001a08 .L0
../src/ff-pic24-30-33.s:5466   .text:00001a04 .L0
../src/ff-pic24-30-33.s:5477   .text:00001a0e .L0
../src/ff-pic24-30-33.s:5468   .text:00001a08 .L0
../src/ff-pic24-30-33.s:5478   .text:00001a10 .L0
../src/ff-pic24-30-33.s:5477   .text:00001a0e .L0
../src/ff-pic24-30-33.s:5479   .text:00001a12 .L0
../src/ff-pic24-30-33.s:5478   .text:00001a10 .L0
../src/ff-pic24-30-33.s:5480   .text:00001a14 .L0
../src/ff-pic24-30-33.s:5479   .text:00001a12 .L0
../src/ff-pic24-30-33.s:5489   .text:00001a20 .L0
../src/ff-pic24-30-33.s:5480   .text:00001a14 .L0
../src/ff-pic24-30-33.s:5490   .text:00001a22 .L0
../src/ff-pic24-30-33.s:5489   .text:00001a20 .L0
../src/ff-pic24-30-33.s:5491   .text:00001a24 .L0
../src/ff-pic24-30-33.s:5490   .text:00001a22 .L0
../src/ff-pic24-30-33.s:5492   .text:00001a26 .L0
../src/ff-pic24-30-33.s:5491   .text:00001a24 .L0
../src/ff-pic24-30-33.s:5501   .text:00001a2e .L0
../src/ff-pic24-30-33.s:5492   .text:00001a26 .L0
../src/ff-pic24-30-33.s:5502   .text:00001a32 .L0
../src/ff-pic24-30-33.s:5501   .text:00001a2e .L0
../src/ff-pic24-30-33.s:5503   .text:00001a34 .L0
../src/ff-pic24-30-33.s:5502   .text:00001a32 .L0
../src/ff-pic24-30-33.s:5504   .text:00001a36 .L0
../src/ff-pic24-30-33.s:5503   .text:00001a34 .L0
../src/ff-pic24-30-33.s:5505   .text:00001a38 .L0
../src/ff-pic24-30-33.s:5504   .text:00001a36 .L0
../src/ff-pic24-30-33.s:5515   .text:00001a40 .L0
../src/ff-pic24-30-33.s:5505   .text:00001a38 .L0
../src/ff-pic24-30-33.s:5516   .text:00001a42 .L0
../src/ff-pic24-30-33.s:5515   .text:00001a40 .L0
../src/ff-pic24-30-33.s:5517   .text:00001a44 .L0
MPLAB ASM30 Listing:  ../src/ff-pic24-30-33.s 			page 274


../src/ff-pic24-30-33.s:5516   .text:00001a42 .L0
../src/ff-pic24-30-33.s:5528   .text:00001a50 .L0
../src/ff-pic24-30-33.s:5517   .text:00001a44 .L0
../src/ff-pic24-30-33.s:5529   .text:00001a52 .L0
../src/ff-pic24-30-33.s:5528   .text:00001a50 .L0
../src/ff-pic24-30-33.s:5549   .text:00001a60 .L0
../src/ff-pic24-30-33.s:5529   .text:00001a52 .L0
../src/ff-pic24-30-33.s:5550   .text:00001a62 .L0
../src/ff-pic24-30-33.s:5549   .text:00001a60 .L0
../src/ff-pic24-30-33.s:5551   .text:00001a64 .L0
../src/ff-pic24-30-33.s:5550   .text:00001a62 .L0
../src/ff-pic24-30-33.s:5552   .text:00001a66 .L0
../src/ff-pic24-30-33.s:5551   .text:00001a64 .L0
../src/ff-pic24-30-33.s:5553   .text:00001a68 .L0
../src/ff-pic24-30-33.s:5552   .text:00001a66 .L0
../src/ff-pic24-30-33.s:5554   .text:00001a6a .L0
../src/ff-pic24-30-33.s:5553   .text:00001a68 .L0
../src/ff-pic24-30-33.s:5555   .text:00001a6c .L0
../src/ff-pic24-30-33.s:5554   .text:00001a6a .L0
../src/ff-pic24-30-33.s:5559   .text:00001a7e .L0
../src/ff-pic24-30-33.s:5555   .text:00001a6c .L0
../src/ff-pic24-30-33.s:5560   .text:00001a80 .L0
../src/ff-pic24-30-33.s:5559   .text:00001a7e .L0
../src/ff-pic24-30-33.s:5561   .text:00001a82 .L0
../src/ff-pic24-30-33.s:5560   .text:00001a80 .L0
../src/ff-pic24-30-33.s:5562   .text:00001a84 .L0
../src/ff-pic24-30-33.s:5561   .text:00001a82 .L0
../src/ff-pic24-30-33.s:5563   .text:00001a86 .L0
../src/ff-pic24-30-33.s:5562   .text:00001a84 .L0
../src/ff-pic24-30-33.s:5564   .text:00001a8a .L0
../src/ff-pic24-30-33.s:5563   .text:00001a86 .L0
../src/ff-pic24-30-33.s:5565   .text:00001a8c .L0
../src/ff-pic24-30-33.s:5564   .text:00001a8a .L0
../src/ff-pic24-30-33.s:5567   .text:00001a8e .L0
../src/ff-pic24-30-33.s:5565   .text:00001a8c .L0
../src/ff-pic24-30-33.s:5568   .text:00001a90 .L0
../src/ff-pic24-30-33.s:5567   .text:00001a8e .L0
../src/ff-pic24-30-33.s:5569   .text:00001a92 .L0
../src/ff-pic24-30-33.s:5568   .text:00001a90 .L0
../src/ff-pic24-30-33.s:5570   .text:00001a94 .L0
../src/ff-pic24-30-33.s:5569   .text:00001a92 .L0
../src/ff-pic24-30-33.s:5571   .text:00001a96 .L0
../src/ff-pic24-30-33.s:5570   .text:00001a94 .L0
../src/ff-pic24-30-33.s:5572   .text:00001a98 .L0
../src/ff-pic24-30-33.s:5571   .text:00001a96 .L0
../src/ff-pic24-30-33.s:5573   .text:00001a9a .L0
../src/ff-pic24-30-33.s:5572   .text:00001a98 .L0
../src/ff-pic24-30-33.s:5574   .text:00001a9c .L0
../src/ff-pic24-30-33.s:5573   .text:00001a9a .L0
../src/ff-pic24-30-33.s:5575   .text:00001a9e .L0
../src/ff-pic24-30-33.s:5574   .text:00001a9c .L0
../src/ff-pic24-30-33.s:5576   .text:00001aa0 .L0
../src/ff-pic24-30-33.s:5575   .text:00001a9e .L0
../src/ff-pic24-30-33.s:5577   .text:00001aa2 .L0
../src/ff-pic24-30-33.s:5576   .text:00001aa0 .L0
../src/ff-pic24-30-33.s:5578   .text:00001aa4 .L0
../src/ff-pic24-30-33.s:5577   .text:00001aa2 .L0
MPLAB ASM30 Listing:  ../src/ff-pic24-30-33.s 			page 275


../src/ff-pic24-30-33.s:5579   .text:00001aa8 .L0
../src/ff-pic24-30-33.s:5578   .text:00001aa4 .L0
../src/ff-pic24-30-33.s:5580   .text:00001aaa .L0
../src/ff-pic24-30-33.s:5579   .text:00001aa8 .L0
../src/ff-pic24-30-33.s:5581   .text:00001aac .L0
../src/ff-pic24-30-33.s:5580   .text:00001aaa .L0
../src/ff-pic24-30-33.s:5582   .text:00001aae .L0
../src/ff-pic24-30-33.s:5581   .text:00001aac .L0
../src/ff-pic24-30-33.s:5583   .text:00001ab0 .L0
../src/ff-pic24-30-33.s:5582   .text:00001aae .L0
../src/ff-pic24-30-33.s:5586   .text:00001ab4 .L0
../src/ff-pic24-30-33.s:5583   .text:00001ab0 .L0
../src/ff-pic24-30-33.s:5587   .text:00001ab6 .L0
../src/ff-pic24-30-33.s:5586   .text:00001ab4 .L0
../src/ff-pic24-30-33.s:5588   .text:00001ab8 .L0
../src/ff-pic24-30-33.s:5587   .text:00001ab6 .L0
../src/ff-pic24-30-33.s:5589   .text:00001aba .L0
../src/ff-pic24-30-33.s:5588   .text:00001ab8 .L0
../src/ff-pic24-30-33.s:5590   .text:00001abc .L0
../src/ff-pic24-30-33.s:5589   .text:00001aba .L0
../src/ff-pic24-30-33.s:5591   .text:00001abe .L0
../src/ff-pic24-30-33.s:5590   .text:00001abc .L0
../src/ff-pic24-30-33.s:5593   .text:00001ac0 .L0
../src/ff-pic24-30-33.s:5591   .text:00001abe .L0
../src/ff-pic24-30-33.s:5603   .text:00001ad0 .L0
../src/ff-pic24-30-33.s:5593   .text:00001ac0 .L0
../src/ff-pic24-30-33.s:5604   .text:00001ad2 .L0
../src/ff-pic24-30-33.s:5603   .text:00001ad0 .L0
../src/ff-pic24-30-33.s:5605   .text:00001ad4 .L0
../src/ff-pic24-30-33.s:5604   .text:00001ad2 .L0
../src/ff-pic24-30-33.s:5606   .text:00001ad6 .L0
../src/ff-pic24-30-33.s:5605   .text:00001ad4 .L0
../src/ff-pic24-30-33.s:5607   .text:00001ad8 .L0
../src/ff-pic24-30-33.s:5606   .text:00001ad6 .L0
../src/ff-pic24-30-33.s:5608   .text:00001ada .L0
../src/ff-pic24-30-33.s:5607   .text:00001ad8 .L0
../src/ff-pic24-30-33.s:5609   .text:00001adc .L0
../src/ff-pic24-30-33.s:5608   .text:00001ada .L0
../src/ff-pic24-30-33.s:5610   .text:00001ade .L0
../src/ff-pic24-30-33.s:5609   .text:00001adc .L0
../src/ff-pic24-30-33.s:5611   .text:00001ae0 .L0
../src/ff-pic24-30-33.s:5610   .text:00001ade .L0
../src/ff-pic24-30-33.s:5613   .text:00001ae4 .L0
../src/ff-pic24-30-33.s:5611   .text:00001ae0 .L0
../src/ff-pic24-30-33.s:5615   .text:00001ae8 .L0
../src/ff-pic24-30-33.s:5613   .text:00001ae4 .L0
../src/ff-pic24-30-33.s:5626   .text:00001af4 .L0
../src/ff-pic24-30-33.s:5615   .text:00001ae8 .L0
../src/ff-pic24-30-33.s:5627   .text:00001af6 .L0
../src/ff-pic24-30-33.s:5626   .text:00001af4 .L0
../src/ff-pic24-30-33.s:5628   .text:00001af8 .L0
../src/ff-pic24-30-33.s:5627   .text:00001af6 .L0
../src/ff-pic24-30-33.s:5629   .text:00001afa .L0
../src/ff-pic24-30-33.s:5628   .text:00001af8 .L0
../src/ff-pic24-30-33.s:5630   .text:00001afc .L0
../src/ff-pic24-30-33.s:5629   .text:00001afa .L0
../src/ff-pic24-30-33.s:5631   .text:00001afe .L0
MPLAB ASM30 Listing:  ../src/ff-pic24-30-33.s 			page 276


../src/ff-pic24-30-33.s:5630   .text:00001afc .L0
../src/ff-pic24-30-33.s:5632   .text:00001b00 .L0
../src/ff-pic24-30-33.s:5631   .text:00001afe .L0
../src/ff-pic24-30-33.s:5633   .text:00001b02 .L0
../src/ff-pic24-30-33.s:5632   .text:00001b00 .L0
../src/ff-pic24-30-33.s:5634   .text:00001b04 .L0
../src/ff-pic24-30-33.s:5633   .text:00001b02 .L0
../src/ff-pic24-30-33.s:5635   .text:00001b06 .L0
../src/ff-pic24-30-33.s:5634   .text:00001b04 .L0
../src/ff-pic24-30-33.s:5636   .text:00001b08 .L0
../src/ff-pic24-30-33.s:5635   .text:00001b06 .L0
../src/ff-pic24-30-33.s:5637   .text:00001b0a .L0
../src/ff-pic24-30-33.s:5636   .text:00001b08 .L0
../src/ff-pic24-30-33.s:5638   .text:00001b0c .L0
../src/ff-pic24-30-33.s:5637   .text:00001b0a .L0
../src/ff-pic24-30-33.s:5639   .text:00001b0e .L0
../src/ff-pic24-30-33.s:5638   .text:00001b0c .L0
../src/ff-pic24-30-33.s:5640   .text:00001b10 .L0
../src/ff-pic24-30-33.s:5639   .text:00001b0e .L0
../src/ff-pic24-30-33.s:5641   .text:00001b12 .L0
../src/ff-pic24-30-33.s:5640   .text:00001b10 .L0
../src/ff-pic24-30-33.s:5650   .text:00001b1c .L0
../src/ff-pic24-30-33.s:5641   .text:00001b12 .L0
../src/ff-pic24-30-33.s:5652   .text:00001b20 .L0
../src/ff-pic24-30-33.s:5650   .text:00001b1c .L0
../src/ff-pic24-30-33.s:5654   .text:00001b24 .L0
../src/ff-pic24-30-33.s:5652   .text:00001b20 .L0
../src/ff-pic24-30-33.s:5664   .text:00001b2a .L0
../src/ff-pic24-30-33.s:5654   .text:00001b24 .L0
../src/ff-pic24-30-33.s:5665   .text:00001b2c .L0
../src/ff-pic24-30-33.s:5664   .text:00001b2a .L0
../src/ff-pic24-30-33.s:5674   .text:00001b32 .L0
../src/ff-pic24-30-33.s:5665   .text:00001b2c .L0
../src/ff-pic24-30-33.s:5675   .text:00001b34 .L0
../src/ff-pic24-30-33.s:5674   .text:00001b32 .L0
../src/ff-pic24-30-33.s:5684   .text:00001b3a .L0
../src/ff-pic24-30-33.s:5675   .text:00001b34 .L0
../src/ff-pic24-30-33.s:5685   .text:00001b3c .L0
../src/ff-pic24-30-33.s:5684   .text:00001b3a .L0
../src/ff-pic24-30-33.s:5686   .text:00001b3e .L0
../src/ff-pic24-30-33.s:5685   .text:00001b3c .L0
../src/ff-pic24-30-33.s:5687   .text:00001b42 .L0
../src/ff-pic24-30-33.s:5686   .text:00001b3e .L0
../src/ff-pic24-30-33.s:5696   .text:00001b50 .L0
../src/ff-pic24-30-33.s:5687   .text:00001b42 .L0
../src/ff-pic24-30-33.s:5697   .text:00001b52 .L0
../src/ff-pic24-30-33.s:5696   .text:00001b50 .L0
../src/ff-pic24-30-33.s:5708   .text:00001b5a .L0
../src/ff-pic24-30-33.s:5697   .text:00001b52 .L0
../src/ff-pic24-30-33.s:5709   .text:00001b5c .L0
../src/ff-pic24-30-33.s:5708   .text:00001b5a .L0
../src/ff-pic24-30-33.s:5710   .text:00001b5e .L0
../src/ff-pic24-30-33.s:5709   .text:00001b5c .L0
../src/ff-pic24-30-33.s:5711   .text:00001b60 .L0
../src/ff-pic24-30-33.s:5710   .text:00001b5e .L0
../src/ff-pic24-30-33.s:5712   .text:00001b62 .L0
../src/ff-pic24-30-33.s:5711   .text:00001b60 .L0
MPLAB ASM30 Listing:  ../src/ff-pic24-30-33.s 			page 277


../src/ff-pic24-30-33.s:5713   .text:00001b64 .L0
../src/ff-pic24-30-33.s:5712   .text:00001b62 .L0
../src/ff-pic24-30-33.s:5714   .text:00001b66 .L0
../src/ff-pic24-30-33.s:5713   .text:00001b64 .L0
../src/ff-pic24-30-33.s:5715   .text:00001b6a .L0
../src/ff-pic24-30-33.s:5714   .text:00001b66 .L0
../src/ff-pic24-30-33.s:5716   .text:00001b6c .L0
../src/ff-pic24-30-33.s:5715   .text:00001b6a .L0
../src/ff-pic24-30-33.s:5717   .text:00001b6e .L0
../src/ff-pic24-30-33.s:5716   .text:00001b6c .L0
../src/ff-pic24-30-33.s:5718   .text:00001b70 .L0
../src/ff-pic24-30-33.s:5717   .text:00001b6e .L0
../src/ff-pic24-30-33.s:5719   .text:00001b72 .L0
../src/ff-pic24-30-33.s:5718   .text:00001b70 .L0
../src/ff-pic24-30-33.s:5720   .text:00001b74 .L0
../src/ff-pic24-30-33.s:5719   .text:00001b72 .L0
../src/ff-pic24-30-33.s:5721   .text:00001b76 .L0
../src/ff-pic24-30-33.s:5720   .text:00001b74 .L0
../src/ff-pic24-30-33.s:5722   .text:00001b7a .L0
../src/ff-pic24-30-33.s:5721   .text:00001b76 .L0
../src/ff-pic24-30-33.s:5723   .text:00001b7c .L0
../src/ff-pic24-30-33.s:5722   .text:00001b7a .L0
../src/ff-pic24-30-33.s:5724   .text:00001b80 .L0
../src/ff-pic24-30-33.s:5723   .text:00001b7c .L0
../src/ff-pic24-30-33.s:5725   .text:00001b82 .L0
../src/ff-pic24-30-33.s:5724   .text:00001b80 .L0
../src/ff-pic24-30-33.s:5726   .text:00001b84 .L0
../src/ff-pic24-30-33.s:5725   .text:00001b82 .L0
../src/ff-pic24-30-33.s:5727   .text:00001b86 .L0
../src/ff-pic24-30-33.s:5726   .text:00001b84 .L0
../src/ff-pic24-30-33.s:5728   .text:00001b88 .L0
../src/ff-pic24-30-33.s:5727   .text:00001b86 .L0
../src/ff-pic24-30-33.s:5729   .text:00001b8a .L0
../src/ff-pic24-30-33.s:5728   .text:00001b88 .L0
../src/ff-pic24-30-33.s:5730   .text:00001b8c .L0
../src/ff-pic24-30-33.s:5729   .text:00001b8a .L0
../src/ff-pic24-30-33.s:5731   .text:00001b8e .L0
../src/ff-pic24-30-33.s:5730   .text:00001b8c .L0
../src/ff-pic24-30-33.s:5732   .text:00001b90 .L0
../src/ff-pic24-30-33.s:5731   .text:00001b8e .L0
../src/ff-pic24-30-33.s:5734   .text:00001b92 .L0
../src/ff-pic24-30-33.s:5732   .text:00001b90 .L0
../src/ff-pic24-30-33.s:5736   .text:00001b94 .L0
../src/ff-pic24-30-33.s:5734   .text:00001b92 .L0
../src/ff-pic24-30-33.s:5737   .text:00001b96 .L0
../src/ff-pic24-30-33.s:5736   .text:00001b94 .L0
../src/ff-pic24-30-33.s:5739   .text:00001b98 .L0
../src/ff-pic24-30-33.s:5737   .text:00001b96 .L0
../src/ff-pic24-30-33.s:5750   .text:00001ba2 .L0
../src/ff-pic24-30-33.s:5739   .text:00001b98 .L0
../src/ff-pic24-30-33.s:5751   .text:00001ba6 .L0
../src/ff-pic24-30-33.s:5750   .text:00001ba2 .L0
../src/ff-pic24-30-33.s:5755   .text:00001ba8 .L0
../src/ff-pic24-30-33.s:5751   .text:00001ba6 .L0
../src/ff-pic24-30-33.s:5764   .text:00001bb2 .L0
../src/ff-pic24-30-33.s:5755   .text:00001ba8 .L0
../src/ff-pic24-30-33.s:5765   .text:00001bb4 .L0
MPLAB ASM30 Listing:  ../src/ff-pic24-30-33.s 			page 278


../src/ff-pic24-30-33.s:5764   .text:00001bb2 .L0
../src/ff-pic24-30-33.s:5773   .text:00001bbe .L0
../src/ff-pic24-30-33.s:5765   .text:00001bb4 .L0
../src/ff-pic24-30-33.s:5774   .text:00001bc0 .L0
../src/ff-pic24-30-33.s:5773   .text:00001bbe .L0
../src/ff-pic24-30-33.s:5775   .text:00001bc2 .L0
../src/ff-pic24-30-33.s:5774   .text:00001bc0 .L0
../src/ff-pic24-30-33.s:5776   .text:00001bc6 .L0
../src/ff-pic24-30-33.s:5775   .text:00001bc2 .L0
../src/ff-pic24-30-33.s:5778   .text:00001bc8 .L0
../src/ff-pic24-30-33.s:5776   .text:00001bc6 .L0
../src/ff-pic24-30-33.s:5779   .text:00001bca .L0
../src/ff-pic24-30-33.s:5778   .text:00001bc8 .L0
../src/ff-pic24-30-33.s:5781   .text:00001bce .L0
../src/ff-pic24-30-33.s:5779   .text:00001bca .L0
../src/ff-pic24-30-33.s:5782   .text:00001bd0 .L0
../src/ff-pic24-30-33.s:5781   .text:00001bce .L0
../src/ff-pic24-30-33.s:5784   .text:00001bd2 .L0
../src/ff-pic24-30-33.s:5782   .text:00001bd0 .L0
../src/ff-pic24-30-33.s:5785   .text:00001bd4 .L0
../src/ff-pic24-30-33.s:5784   .text:00001bd2 .L0
../src/ff-pic24-30-33.s:5787   .text:00001bd6 .L0
../src/ff-pic24-30-33.s:5785   .text:00001bd4 .L0
../src/ff-pic24-30-33.s:5788   .text:00001bd8 .L0
../src/ff-pic24-30-33.s:5787   .text:00001bd6 .L0
../src/ff-pic24-30-33.s:5795   .text:00001be4 .L0
../src/ff-pic24-30-33.s:5788   .text:00001bd8 .L0
../src/ff-pic24-30-33.s:5796   .text:00001be6 .L0
../src/ff-pic24-30-33.s:5795   .text:00001be4 .L0
../src/ff-pic24-30-33.s:5797   .text:00001be8 .L0
../src/ff-pic24-30-33.s:5796   .text:00001be6 .L0
../src/ff-pic24-30-33.s:5798   .text:00001bea .L0
../src/ff-pic24-30-33.s:5797   .text:00001be8 .L0
../src/ff-pic24-30-33.s:5807   .text:00001bf4 .L0
../src/ff-pic24-30-33.s:5798   .text:00001bea .L0
../src/ff-pic24-30-33.s:5808   .text:00001bf6 .L0
../src/ff-pic24-30-33.s:5807   .text:00001bf4 .L0
../src/ff-pic24-30-33.s:5809   .text:00001bf8 .L0
../src/ff-pic24-30-33.s:5808   .text:00001bf6 .L0
../src/ff-pic24-30-33.s:5810   .text:00001bfa .L0
../src/ff-pic24-30-33.s:5809   .text:00001bf8 .L0
../src/ff-pic24-30-33.s:5811   .text:00001bfe .L0
../src/ff-pic24-30-33.s:5810   .text:00001bfa .L0
../src/ff-pic24-30-33.s:5812   .text:00001c00 .L0
../src/ff-pic24-30-33.s:5811   .text:00001bfe .L0
../src/ff-pic24-30-33.s:5813   .text:00001c02 .L0
../src/ff-pic24-30-33.s:5812   .text:00001c00 .L0
../src/ff-pic24-30-33.s:5814   .text:00001c04 .L0
../src/ff-pic24-30-33.s:5813   .text:00001c02 .L0
../src/ff-pic24-30-33.s:5815   .text:00001c06 .L0
../src/ff-pic24-30-33.s:5814   .text:00001c04 .L0
../src/ff-pic24-30-33.s:5816   .text:00001c08 .L0
../src/ff-pic24-30-33.s:5815   .text:00001c06 .L0
../src/ff-pic24-30-33.s:5818   .text:00001c0a .L0
../src/ff-pic24-30-33.s:5816   .text:00001c08 .L0
../src/ff-pic24-30-33.s:5819   .text:00001c0c .L0
../src/ff-pic24-30-33.s:5818   .text:00001c0a .L0
MPLAB ASM30 Listing:  ../src/ff-pic24-30-33.s 			page 279


../src/ff-pic24-30-33.s:5828   .text:00001c14 .L0
../src/ff-pic24-30-33.s:5819   .text:00001c0c .L0
../src/ff-pic24-30-33.s:5838   .text:00001c1e .L0
../src/ff-pic24-30-33.s:5828   .text:00001c14 .L0
../src/ff-pic24-30-33.s:5848   .text:00001c28 .L0
../src/ff-pic24-30-33.s:5838   .text:00001c1e .L0
../src/ff-pic24-30-33.s:5858   .text:00001c34 .L0
../src/ff-pic24-30-33.s:5848   .text:00001c28 .L0
../src/ff-pic24-30-33.s:5859   .text:00001c38 .L0
../src/ff-pic24-30-33.s:5858   .text:00001c34 .L0
../src/ff-pic24-30-33.s:5868   .text:00001c42 .L0
../src/ff-pic24-30-33.s:5859   .text:00001c38 .L0
../src/ff-pic24-30-33.s:5869   .text:00001c44 .L0
../src/ff-pic24-30-33.s:5868   .text:00001c42 .L0
../src/ff-pic24-30-33.s:5870   .text:00001c46 .L0
../src/ff-pic24-30-33.s:5869   .text:00001c44 .L0
../src/ff-pic24-30-33.s:5871   .text:00001c48 .L0
../src/ff-pic24-30-33.s:5870   .text:00001c46 .L0
../src/ff-pic24-30-33.s:5872   .text:00001c4a .L0
../src/ff-pic24-30-33.s:5871   .text:00001c48 .L0
../src/ff-pic24-30-33.s:5881   .text:00001c56 .L0
../src/ff-pic24-30-33.s:5872   .text:00001c4a .L0
../src/ff-pic24-30-33.s:5882   .text:00001c58 .L0
../src/ff-pic24-30-33.s:5881   .text:00001c56 .L0
../src/ff-pic24-30-33.s:5883   .text:00001c5a .L0
../src/ff-pic24-30-33.s:5882   .text:00001c58 .L0
../src/ff-pic24-30-33.s:5884   .text:00001c5c .L0
../src/ff-pic24-30-33.s:5883   .text:00001c5a .L0
../src/ff-pic24-30-33.s:5885   .text:00001c5e .L0
../src/ff-pic24-30-33.s:5884   .text:00001c5c .L0
../src/ff-pic24-30-33.s:5886   .text:00001c60 .L0
../src/ff-pic24-30-33.s:5885   .text:00001c5e .L0
../src/ff-pic24-30-33.s:5887   .text:00001c62 .L0
../src/ff-pic24-30-33.s:5886   .text:00001c60 .L0
../src/ff-pic24-30-33.s:5888   .text:00001c64 .L0
../src/ff-pic24-30-33.s:5887   .text:00001c62 .L0
../src/ff-pic24-30-33.s:5889   .text:00001c66 .L0
../src/ff-pic24-30-33.s:5888   .text:00001c64 .L0
../src/ff-pic24-30-33.s:5890   .text:00001c68 .L0
../src/ff-pic24-30-33.s:5889   .text:00001c66 .L0
../src/ff-pic24-30-33.s:5891   .text:00001c6a .L0
../src/ff-pic24-30-33.s:5890   .text:00001c68 .L0
../src/ff-pic24-30-33.s:5892   .text:00001c6c .L0
../src/ff-pic24-30-33.s:5891   .text:00001c6a .L0
../src/ff-pic24-30-33.s:5901   .text:00001c78 .L0
../src/ff-pic24-30-33.s:5892   .text:00001c6c .L0
../src/ff-pic24-30-33.s:5902   .text:00001c7a .L0
../src/ff-pic24-30-33.s:5901   .text:00001c78 .L0
../src/ff-pic24-30-33.s:5903   .text:00001c7c .L0
../src/ff-pic24-30-33.s:5902   .text:00001c7a .L0
../src/ff-pic24-30-33.s:5904   .text:00001c7e .L0
../src/ff-pic24-30-33.s:5903   .text:00001c7c .L0
../src/ff-pic24-30-33.s:5905   .text:00001c80 .L0
../src/ff-pic24-30-33.s:5904   .text:00001c7e .L0
../src/ff-pic24-30-33.s:5906   .text:00001c82 .L0
../src/ff-pic24-30-33.s:5905   .text:00001c80 .L0
../src/ff-pic24-30-33.s:5915   .text:00001c90 .L0
MPLAB ASM30 Listing:  ../src/ff-pic24-30-33.s 			page 280


../src/ff-pic24-30-33.s:5906   .text:00001c82 .L0
../src/ff-pic24-30-33.s:5925   .text:00001c9e .L0
../src/ff-pic24-30-33.s:5915   .text:00001c90 .L0
../src/ff-pic24-30-33.s:5926   .text:00001ca0 .L0
../src/ff-pic24-30-33.s:5925   .text:00001c9e .L0
../src/ff-pic24-30-33.s:5927   .text:00001ca2 .L0
../src/ff-pic24-30-33.s:5926   .text:00001ca0 .L0
../src/ff-pic24-30-33.s:5928   .text:00001ca4 .L0
../src/ff-pic24-30-33.s:5927   .text:00001ca2 .L0
../src/ff-pic24-30-33.s:5929   .text:00001ca6 .L0
../src/ff-pic24-30-33.s:5928   .text:00001ca4 .L0
../src/ff-pic24-30-33.s:5930   .text:00001ca8 .L0
../src/ff-pic24-30-33.s:5929   .text:00001ca6 .L0
../src/ff-pic24-30-33.s:5939   .text:00001cb6 .L0
../src/ff-pic24-30-33.s:5930   .text:00001ca8 .L0
../src/ff-pic24-30-33.s:5940   .text:00001cb8 .L0
../src/ff-pic24-30-33.s:5939   .text:00001cb6 .L0
../src/ff-pic24-30-33.s:5941   .text:00001cba .L0
../src/ff-pic24-30-33.s:5940   .text:00001cb8 .L0
../src/ff-pic24-30-33.s:5942   .text:00001cbc .L0
../src/ff-pic24-30-33.s:5941   .text:00001cba .L0
../src/ff-pic24-30-33.s:5943   .text:00001cbe .L0
../src/ff-pic24-30-33.s:5942   .text:00001cbc .L0
../src/ff-pic24-30-33.s:5944   .text:00001cc0 .L0
../src/ff-pic24-30-33.s:5943   .text:00001cbe .L0
../src/ff-pic24-30-33.s:5945   .text:00001cc2 .L0
../src/ff-pic24-30-33.s:5944   .text:00001cc0 .L0
../src/ff-pic24-30-33.s:5952   .text:00001cc8 .L0
../src/ff-pic24-30-33.s:5945   .text:00001cc2 .L0
../src/ff-pic24-30-33.s:5953   .text:00001ccc .L0
../src/ff-pic24-30-33.s:5952   .text:00001cc8 .L0
../src/ff-pic24-30-33.s:5963   .text:00001cd6 .L0
../src/ff-pic24-30-33.s:5953   .text:00001ccc .L0
../src/ff-pic24-30-33.s:5964   .text:00001cd8 .L0
../src/ff-pic24-30-33.s:5963   .text:00001cd6 .L0
../src/ff-pic24-30-33.s:5965   .text:00001cda .L0
../src/ff-pic24-30-33.s:5964   .text:00001cd8 .L0
../src/ff-pic24-30-33.s:5966   .text:00001cdc .L0
../src/ff-pic24-30-33.s:5965   .text:00001cda .L0
../src/ff-pic24-30-33.s:5967   .text:00001cde .L0
../src/ff-pic24-30-33.s:5966   .text:00001cdc .L0
../src/ff-pic24-30-33.s:5968   .text:00001ce0 .L0
../src/ff-pic24-30-33.s:5967   .text:00001cde .L0
../src/ff-pic24-30-33.s:5969   .text:00001ce2 .L0
../src/ff-pic24-30-33.s:5968   .text:00001ce0 .L0
../src/ff-pic24-30-33.s:5970   .text:00001ce4 .L0
../src/ff-pic24-30-33.s:5969   .text:00001ce2 .L0
../src/ff-pic24-30-33.s:5979   .text:00001cf0 .L0
../src/ff-pic24-30-33.s:5970   .text:00001ce4 .L0
../src/ff-pic24-30-33.s:5990   .text:00001cfc .L0
../src/ff-pic24-30-33.s:5979   .text:00001cf0 .L0
../src/ff-pic24-30-33.s:5999   .text:00001d08 .L0
../src/ff-pic24-30-33.s:5990   .text:00001cfc .L0
../src/ff-pic24-30-33.s:6008   .text:00001d14 .L0
../src/ff-pic24-30-33.s:5999   .text:00001d08 .L0
../src/ff-pic24-30-33.s:6009   .text:00001d16 .L0
../src/ff-pic24-30-33.s:6008   .text:00001d14 .L0
MPLAB ASM30 Listing:  ../src/ff-pic24-30-33.s 			page 281


../src/ff-pic24-30-33.s:6010   .text:00001d18 .L0
../src/ff-pic24-30-33.s:6009   .text:00001d16 .L0
../src/ff-pic24-30-33.s:6011   .text:00001d1a .L0
../src/ff-pic24-30-33.s:6010   .text:00001d18 .L0
../src/ff-pic24-30-33.s:6012   .text:00001d1c .L0
../src/ff-pic24-30-33.s:6011   .text:00001d1a .L0
../src/ff-pic24-30-33.s:6013   .text:00001d1e .L0
../src/ff-pic24-30-33.s:6012   .text:00001d1c .L0
../src/ff-pic24-30-33.s:6014   .text:00001d20 .L0
../src/ff-pic24-30-33.s:6013   .text:00001d1e .L0
../src/ff-pic24-30-33.s:6015   .text:00001d22 .L0
../src/ff-pic24-30-33.s:6014   .text:00001d20 .L0
../src/ff-pic24-30-33.s:6025   .text:00001d2e .L0
../src/ff-pic24-30-33.s:6015   .text:00001d22 .L0
../src/ff-pic24-30-33.s:6036   .text:00001d3a .L0
../src/ff-pic24-30-33.s:6025   .text:00001d2e .L0
../src/ff-pic24-30-33.s:6037   .text:00001d3c .L0
../src/ff-pic24-30-33.s:6036   .text:00001d3a .L0
../src/ff-pic24-30-33.s:6046   .text:00001d4a .L0
../src/ff-pic24-30-33.s:6037   .text:00001d3c .L0
../src/ff-pic24-30-33.s:6047   .text:00001d4c .L0
../src/ff-pic24-30-33.s:6046   .text:00001d4a .L0
../src/ff-pic24-30-33.s:6056   .text:00001d56 .L0
../src/ff-pic24-30-33.s:6047   .text:00001d4c .L0
../src/ff-pic24-30-33.s:6057   .text:00001d5a .L0
../src/ff-pic24-30-33.s:6056   .text:00001d56 .L0
../src/ff-pic24-30-33.s:6058   .text:00001d5c .L0
../src/ff-pic24-30-33.s:6057   .text:00001d5a .L0
../src/ff-pic24-30-33.s:6059   .text:00001d5e .L0
../src/ff-pic24-30-33.s:6058   .text:00001d5c .L0
../src/ff-pic24-30-33.s:6060   .text:00001d60 .L0
../src/ff-pic24-30-33.s:6059   .text:00001d5e .L0
../src/ff-pic24-30-33.s:6061   .text:00001d62 .L0
../src/ff-pic24-30-33.s:6060   .text:00001d60 .L0
../src/ff-pic24-30-33.s:6062   .text:00001d64 .L0
../src/ff-pic24-30-33.s:6061   .text:00001d62 .L0
../src/ff-pic24-30-33.s:6063   .text:00001d66 .L0
../src/ff-pic24-30-33.s:6062   .text:00001d64 .L0
../src/ff-pic24-30-33.s:6073   .text:00001d72 .L0
../src/ff-pic24-30-33.s:6063   .text:00001d66 .L0
../src/ff-pic24-30-33.s:6074   .text:00001d74 .L0
../src/ff-pic24-30-33.s:6073   .text:00001d72 .L0
../src/ff-pic24-30-33.s:6075   .text:00001d78 .L0
../src/ff-pic24-30-33.s:6074   .text:00001d74 .L0
../src/ff-pic24-30-33.s:6076   .text:00001d7a .L0
../src/ff-pic24-30-33.s:6075   .text:00001d78 .L0
../src/ff-pic24-30-33.s:6077   .text:00001d7c .L0
../src/ff-pic24-30-33.s:6076   .text:00001d7a .L0
../src/ff-pic24-30-33.s:6078   .text:00001d7e .L0
../src/ff-pic24-30-33.s:6077   .text:00001d7c .L0
../src/ff-pic24-30-33.s:6079   .text:00001d82 .L0
../src/ff-pic24-30-33.s:6078   .text:00001d7e .L0
../src/ff-pic24-30-33.s:6084   .text:00001d86 .L0
../src/ff-pic24-30-33.s:6079   .text:00001d82 .L0
../src/ff-pic24-30-33.s:6085   .text:00001d88 .L0
../src/ff-pic24-30-33.s:6084   .text:00001d86 .L0
../src/ff-pic24-30-33.s:6094   .text:00001d92 .L0
MPLAB ASM30 Listing:  ../src/ff-pic24-30-33.s 			page 282


../src/ff-pic24-30-33.s:6085   .text:00001d88 .L0
../src/ff-pic24-30-33.s:6095   .text:00001d94 .L0
../src/ff-pic24-30-33.s:6094   .text:00001d92 .L0
../src/ff-pic24-30-33.s:6096   .text:00001d96 .L0
../src/ff-pic24-30-33.s:6095   .text:00001d94 .L0
../src/ff-pic24-30-33.s:6105   .text:00001da0 .L0
../src/ff-pic24-30-33.s:6096   .text:00001d96 .L0
../src/ff-pic24-30-33.s:6106   .text:00001da2 .L0
../src/ff-pic24-30-33.s:6105   .text:00001da0 .L0
../src/ff-pic24-30-33.s:6117   .text:00001daa .L0
../src/ff-pic24-30-33.s:6106   .text:00001da2 .L0
../src/ff-pic24-30-33.s:6118   .text:00001dae .L0
../src/ff-pic24-30-33.s:6117   .text:00001daa .L0
../src/ff-pic24-30-33.s:6128   .text:00001db8 .L0
../src/ff-pic24-30-33.s:6118   .text:00001dae .L0
../src/ff-pic24-30-33.s:6129   .text:00001dba .L0
../src/ff-pic24-30-33.s:6128   .text:00001db8 .L0
../src/ff-pic24-30-33.s:6130   .text:00001dbc .L0
../src/ff-pic24-30-33.s:6129   .text:00001dba .L0
../src/ff-pic24-30-33.s:6140   .text:00001dc6 .L0
../src/ff-pic24-30-33.s:6130   .text:00001dbc .L0
../src/ff-pic24-30-33.s:6141   .text:00001dca .L0
../src/ff-pic24-30-33.s:6140   .text:00001dc6 .L0
../src/ff-pic24-30-33.s:6151   .text:00001dd8 .L0
../src/ff-pic24-30-33.s:6141   .text:00001dca .L0
../src/ff-pic24-30-33.s:6161   .text:00001de2 .L0
../src/ff-pic24-30-33.s:6151   .text:00001dd8 .L0
../src/ff-pic24-30-33.s:6171   .text:00001dec .L0
../src/ff-pic24-30-33.s:6161   .text:00001de2 .L0
../src/ff-pic24-30-33.s:6181   .text:00001df8 .L0
../src/ff-pic24-30-33.s:6171   .text:00001dec .L0
../src/ff-pic24-30-33.s:6182   .text:00001dfa .L0
../src/ff-pic24-30-33.s:6181   .text:00001df8 .L0
../src/ff-pic24-30-33.s:6183   .text:00001dfc .L0
../src/ff-pic24-30-33.s:6182   .text:00001dfa .L0
../src/ff-pic24-30-33.s:6198   .text:00001e04 .L0
../src/ff-pic24-30-33.s:6183   .text:00001dfc .L0
../src/ff-pic24-30-33.s:6199   .text:00001e06 .L0
../src/ff-pic24-30-33.s:6198   .text:00001e04 .L0
../src/ff-pic24-30-33.s:6201   .text:00001e08 .L0
../src/ff-pic24-30-33.s:6199   .text:00001e06 .L0
../src/ff-pic24-30-33.s:6202   .text:00001e0a .L0
../src/ff-pic24-30-33.s:6201   .text:00001e08 .L0
../src/ff-pic24-30-33.s:6203   .text:00001e0c .L0
../src/ff-pic24-30-33.s:6202   .text:00001e0a .L0
../src/ff-pic24-30-33.s:6204   .text:00001e0e .L0
../src/ff-pic24-30-33.s:6203   .text:00001e0c .L0
../src/ff-pic24-30-33.s:6205   .text:00001e10 .L0
../src/ff-pic24-30-33.s:6204   .text:00001e0e .L0
../src/ff-pic24-30-33.s:6206   .text:00001e12 .L0
../src/ff-pic24-30-33.s:6205   .text:00001e10 .L0
../src/ff-pic24-30-33.s:6207   .text:00001e14 .L0
../src/ff-pic24-30-33.s:6206   .text:00001e12 .L0
../src/ff-pic24-30-33.s:6216   .text:00001e1e .L0
../src/ff-pic24-30-33.s:6207   .text:00001e14 .L0
../src/ff-pic24-30-33.s:6217   .text:00001e20 .L0
../src/ff-pic24-30-33.s:6216   .text:00001e1e .L0
MPLAB ASM30 Listing:  ../src/ff-pic24-30-33.s 			page 283


../src/ff-pic24-30-33.s:6218   .text:00001e22 .L0
../src/ff-pic24-30-33.s:6217   .text:00001e20 .L0
../src/ff-pic24-30-33.s:6219   .text:00001e26 .L0
../src/ff-pic24-30-33.s:6218   .text:00001e22 .L0
../src/ff-pic24-30-33.s:6220   .text:00001e28 .L0
../src/ff-pic24-30-33.s:6219   .text:00001e26 .L0
../src/ff-pic24-30-33.s:6221   .text:00001e2a .L0
../src/ff-pic24-30-33.s:6220   .text:00001e28 .L0
../src/ff-pic24-30-33.s:6222   .text:00001e2c .L0
../src/ff-pic24-30-33.s:6221   .text:00001e2a .L0
../src/ff-pic24-30-33.s:6223   .text:00001e2e .L0
../src/ff-pic24-30-33.s:6222   .text:00001e2c .L0
../src/ff-pic24-30-33.s:6224   .text:00001e30 .L0
../src/ff-pic24-30-33.s:6223   .text:00001e2e .L0
../src/ff-pic24-30-33.s:6225   .text:00001e32 .L0
../src/ff-pic24-30-33.s:6224   .text:00001e30 .L0
../src/ff-pic24-30-33.s:6226   .text:00001e34 .L0
../src/ff-pic24-30-33.s:6225   .text:00001e32 .L0
../src/ff-pic24-30-33.s:6227   .text:00001e36 .L0
../src/ff-pic24-30-33.s:6226   .text:00001e34 .L0
../src/ff-pic24-30-33.s:6228   .text:00001e38 .L0
../src/ff-pic24-30-33.s:6227   .text:00001e36 .L0
../src/ff-pic24-30-33.s:6229   .text:00001e3a .L0
../src/ff-pic24-30-33.s:6228   .text:00001e38 .L0
../src/ff-pic24-30-33.s:6230   .text:00001e3e .L0
../src/ff-pic24-30-33.s:6229   .text:00001e3a .L0
../src/ff-pic24-30-33.s:6231   .text:00001e40 .L0
../src/ff-pic24-30-33.s:6230   .text:00001e3e .L0
../src/ff-pic24-30-33.s:6232   .text:00001e42 .L0
../src/ff-pic24-30-33.s:6231   .text:00001e40 .L0
../src/ff-pic24-30-33.s:6233   .text:00001e44 .L0
../src/ff-pic24-30-33.s:6232   .text:00001e42 .L0
../src/ff-pic24-30-33.s:6234   .text:00001e48 .L0
../src/ff-pic24-30-33.s:6233   .text:00001e44 .L0
../src/ff-pic24-30-33.s:6235   .text:00001e4a .L0
../src/ff-pic24-30-33.s:6234   .text:00001e48 .L0
../src/ff-pic24-30-33.s:6237   .text:00001e4c .L0
../src/ff-pic24-30-33.s:6235   .text:00001e4a .L0
../src/ff-pic24-30-33.s:6239   .text:00001e4e .L0
../src/ff-pic24-30-33.s:6237   .text:00001e4c .L0
../src/ff-pic24-30-33.s:6241   .text:00001e50 .L0
../src/ff-pic24-30-33.s:6239   .text:00001e4e .L0
../src/ff-pic24-30-33.s:6242   .text:00001e52 .L0
../src/ff-pic24-30-33.s:6241   .text:00001e50 .L0
../src/ff-pic24-30-33.s:6243   .text:00001e54 .L0
../src/ff-pic24-30-33.s:6242   .text:00001e52 .L0
../src/ff-pic24-30-33.s:6244   .text:00001e56 .L0
../src/ff-pic24-30-33.s:6243   .text:00001e54 .L0
../src/ff-pic24-30-33.s:6245   .text:00001e58 .L0
../src/ff-pic24-30-33.s:6244   .text:00001e56 .L0
../src/ff-pic24-30-33.s:6246   .text:00001e5a .L0
../src/ff-pic24-30-33.s:6245   .text:00001e58 .L0
../src/ff-pic24-30-33.s:6247   .text:00001e5c .L0
../src/ff-pic24-30-33.s:6246   .text:00001e5a .L0
../src/ff-pic24-30-33.s:6257   .text:00001e64 .L0
../src/ff-pic24-30-33.s:6247   .text:00001e5c .L0
../src/ff-pic24-30-33.s:6258   .text:00001e66 .L0
MPLAB ASM30 Listing:  ../src/ff-pic24-30-33.s 			page 284


../src/ff-pic24-30-33.s:6257   .text:00001e64 .L0
../src/ff-pic24-30-33.s:6259   .text:00001e68 .L0
../src/ff-pic24-30-33.s:6258   .text:00001e66 .L0
../src/ff-pic24-30-33.s:6260   .text:00001e6a .L0
../src/ff-pic24-30-33.s:6259   .text:00001e68 .L0
../src/ff-pic24-30-33.s:6262   .text:00001e6c .L0
../src/ff-pic24-30-33.s:6260   .text:00001e6a .L0
../src/ff-pic24-30-33.s:6263   .text:00001e6e .L0
../src/ff-pic24-30-33.s:6262   .text:00001e6c .L0
../src/ff-pic24-30-33.s:6264   .text:00001e70 .L0
../src/ff-pic24-30-33.s:6263   .text:00001e6e .L0
../src/ff-pic24-30-33.s:6265   .text:00001e72 .L0
../src/ff-pic24-30-33.s:6264   .text:00001e70 .L0
../src/ff-pic24-30-33.s:6266   .text:00001e74 .L0
../src/ff-pic24-30-33.s:6265   .text:00001e72 .L0
../src/ff-pic24-30-33.s:6267   .text:00001e76 .L0
../src/ff-pic24-30-33.s:6266   .text:00001e74 .L0
../src/ff-pic24-30-33.s:6268   .text:00001e78 .L0
../src/ff-pic24-30-33.s:6267   .text:00001e76 .L0
../src/ff-pic24-30-33.s:6270   .text:00001e7a .L0
../src/ff-pic24-30-33.s:6268   .text:00001e78 .L0
../src/ff-pic24-30-33.s:6271   .text:00001e7c .L0
../src/ff-pic24-30-33.s:6270   .text:00001e7a .L0
../src/ff-pic24-30-33.s:6280   .text:00001e86 .L0
../src/ff-pic24-30-33.s:6271   .text:00001e7c .L0
../src/ff-pic24-30-33.s:6281   .text:00001e88 .L0
../src/ff-pic24-30-33.s:6280   .text:00001e86 .L0
../src/ff-pic24-30-33.s:6290   .text:00001e94 .L0
../src/ff-pic24-30-33.s:6281   .text:00001e88 .L0
../src/ff-pic24-30-33.s:6291   .text:00001e96 .L0
../src/ff-pic24-30-33.s:6290   .text:00001e94 .L0
../src/ff-pic24-30-33.s:6300   .text:00001ea2 .L0
../src/ff-pic24-30-33.s:6291   .text:00001e96 .L0
../src/ff-pic24-30-33.s:6301   .text:00001ea6 .L0
../src/ff-pic24-30-33.s:6300   .text:00001ea2 .L0
../src/ff-pic24-30-33.s:6302   .text:00001ea8 .L0
../src/ff-pic24-30-33.s:6301   .text:00001ea6 .L0
../src/ff-pic24-30-33.s:6303   .text:00001eaa .L0
../src/ff-pic24-30-33.s:6302   .text:00001ea8 .L0
../src/ff-pic24-30-33.s:6305   .text:00001eac .L0
../src/ff-pic24-30-33.s:6303   .text:00001eaa .L0
../src/ff-pic24-30-33.s:6306   .text:00001eae .L0
../src/ff-pic24-30-33.s:6305   .text:00001eac .L0
../src/ff-pic24-30-33.s:6307   .text:00001eb0 .L0
../src/ff-pic24-30-33.s:6306   .text:00001eae .L0
../src/ff-pic24-30-33.s:6308   .text:00001eb4 .L0
../src/ff-pic24-30-33.s:6307   .text:00001eb0 .L0
../src/ff-pic24-30-33.s:6309   .text:00001eb6 .L0
../src/ff-pic24-30-33.s:6308   .text:00001eb4 .L0
../src/ff-pic24-30-33.s:6310   .text:00001eba .L0
../src/ff-pic24-30-33.s:6309   .text:00001eb6 .L0
../src/ff-pic24-30-33.s:6311   .text:00001ebc .L0
../src/ff-pic24-30-33.s:6310   .text:00001eba .L0
../src/ff-pic24-30-33.s:6312   .text:00001ec0 .L0
../src/ff-pic24-30-33.s:6311   .text:00001ebc .L0
../src/ff-pic24-30-33.s:6314   .text:00001ec2 .L0
../src/ff-pic24-30-33.s:6312   .text:00001ec0 .L0
MPLAB ASM30 Listing:  ../src/ff-pic24-30-33.s 			page 285


../src/ff-pic24-30-33.s:6315   .text:00001ec4 .L0
../src/ff-pic24-30-33.s:6314   .text:00001ec2 .L0
../src/ff-pic24-30-33.s:6316   .text:00001ec6 .L0
../src/ff-pic24-30-33.s:6315   .text:00001ec4 .L0
../src/ff-pic24-30-33.s:6317   .text:00001ec8 .L0
../src/ff-pic24-30-33.s:6316   .text:00001ec6 .L0
../src/ff-pic24-30-33.s:6318   .text:00001eca .L0
../src/ff-pic24-30-33.s:6317   .text:00001ec8 .L0
../src/ff-pic24-30-33.s:6319   .text:00001ecc .L0
../src/ff-pic24-30-33.s:6318   .text:00001eca .L0
../src/ff-pic24-30-33.s:6321   .text:00001ece .L0
../src/ff-pic24-30-33.s:6319   .text:00001ecc .L0
../src/ff-pic24-30-33.s:6322   .text:00001ed2 .L0
../src/ff-pic24-30-33.s:6321   .text:00001ece .L0
../src/ff-pic24-30-33.s:6323   .text:00001ed4 .L0
../src/ff-pic24-30-33.s:6322   .text:00001ed2 .L0
../src/ff-pic24-30-33.s:6324   .text:00001ed8 .L0
../src/ff-pic24-30-33.s:6323   .text:00001ed4 .L0
../src/ff-pic24-30-33.s:6326   .text:00001eda .L0
../src/ff-pic24-30-33.s:6324   .text:00001ed8 .L0
../src/ff-pic24-30-33.s:6327   .text:00001edc .L0
../src/ff-pic24-30-33.s:6326   .text:00001eda .L0
../src/ff-pic24-30-33.s:6328   .text:00001ede .L0
../src/ff-pic24-30-33.s:6327   .text:00001edc .L0
../src/ff-pic24-30-33.s:6329   .text:00001ee0 .L0
../src/ff-pic24-30-33.s:6328   .text:00001ede .L0
../src/ff-pic24-30-33.s:6330   .text:00001ee2 .L0
../src/ff-pic24-30-33.s:6329   .text:00001ee0 .L0
../src/ff-pic24-30-33.s:6331   .text:00001ee4 .L0
../src/ff-pic24-30-33.s:6330   .text:00001ee2 .L0
../src/ff-pic24-30-33.s:6333   .text:00001ee6 .L0
../src/ff-pic24-30-33.s:6331   .text:00001ee4 .L0
../src/ff-pic24-30-33.s:6334   .text:00001ee8 .L0
../src/ff-pic24-30-33.s:6333   .text:00001ee6 .L0
../src/ff-pic24-30-33.s:6335   .text:00001eea .L0
../src/ff-pic24-30-33.s:6334   .text:00001ee8 .L0
../src/ff-pic24-30-33.s:6336   .text:00001eec .L0
../src/ff-pic24-30-33.s:6335   .text:00001eea .L0
../src/ff-pic24-30-33.s:6337   .text:00001eee .L0
../src/ff-pic24-30-33.s:6336   .text:00001eec .L0
../src/ff-pic24-30-33.s:6347   .text:00001ef6 .L0
../src/ff-pic24-30-33.s:6337   .text:00001eee .L0
../src/ff-pic24-30-33.s:6348   .text:00001ef8 .L0
../src/ff-pic24-30-33.s:6347   .text:00001ef6 .L0
../src/ff-pic24-30-33.s:6349   .text:00001efa .L0
../src/ff-pic24-30-33.s:6348   .text:00001ef8 .L0
    ../src/Cfloats.s:7      .text:00001f02 .L0
../src/ff-pic24-30-33.s:6349   .text:00001efa .L0
    ../src/Cfloats.s:8      .text:00001f04 .L0
    ../src/Cfloats.s:7      .text:00001f02 .L0
    ../src/Cfloats.s:9      .text:00001f06 .L0
    ../src/Cfloats.s:8      .text:00001f04 .L0
    ../src/Cfloats.s:10     .text:00001f08 .L0
    ../src/Cfloats.s:9      .text:00001f06 .L0
    ../src/Cfloats.s:12     .text:00001f0a .L0
    ../src/Cfloats.s:10     .text:00001f08 .L0
    ../src/Cfloats.s:13     .text:00001f0e .L0
MPLAB ASM30 Listing:  ../src/ff-pic24-30-33.s 			page 286


    ../src/Cfloats.s:12     .text:00001f0a .L0
    ../src/Cfloats.s:14     .text:00001f10 .L0
    ../src/Cfloats.s:13     .text:00001f0e .L0
    ../src/Cfloats.s:15     .text:00001f12 .L0
    ../src/Cfloats.s:14     .text:00001f10 .L0
    ../src/Cfloats.s:25     .text:00001f1a .L0
    ../src/Cfloats.s:15     .text:00001f12 .L0
    ../src/Cfloats.s:26     .text:00001f1c .L0
    ../src/Cfloats.s:25     .text:00001f1a .L0
    ../src/Cfloats.s:27     .text:00001f1e .L0
    ../src/Cfloats.s:26     .text:00001f1c .L0
    ../src/Cfloats.s:28     .text:00001f20 .L0
    ../src/Cfloats.s:27     .text:00001f1e .L0
    ../src/Cfloats.s:30     .text:00001f22 .L0
    ../src/Cfloats.s:28     .text:00001f20 .L0
    ../src/Cfloats.s:31     .text:00001f26 .L0
    ../src/Cfloats.s:30     .text:00001f22 .L0
    ../src/Cfloats.s:32     .text:00001f28 .L0
    ../src/Cfloats.s:31     .text:00001f26 .L0
    ../src/Cfloats.s:33     .text:00001f2a .L0
    ../src/Cfloats.s:32     .text:00001f28 .L0
    ../src/Cfloats.s:43     .text:00001f32 .L0
    ../src/Cfloats.s:33     .text:00001f2a .L0
    ../src/Cfloats.s:44     .text:00001f34 .L0
    ../src/Cfloats.s:43     .text:00001f32 .L0
    ../src/Cfloats.s:45     .text:00001f36 .L0
    ../src/Cfloats.s:44     .text:00001f34 .L0
    ../src/Cfloats.s:46     .text:00001f38 .L0
    ../src/Cfloats.s:45     .text:00001f36 .L0
    ../src/Cfloats.s:48     .text:00001f3a .L0
    ../src/Cfloats.s:46     .text:00001f38 .L0
    ../src/Cfloats.s:49     .text:00001f3e .L0
    ../src/Cfloats.s:48     .text:00001f3a .L0
    ../src/Cfloats.s:50     .text:00001f40 .L0
    ../src/Cfloats.s:49     .text:00001f3e .L0
    ../src/Cfloats.s:51     .text:00001f42 .L0
    ../src/Cfloats.s:50     .text:00001f40 .L0
    ../src/Cfloats.s:61     .text:00001f4a .L0
    ../src/Cfloats.s:51     .text:00001f42 .L0
    ../src/Cfloats.s:62     .text:00001f4c .L0
    ../src/Cfloats.s:61     .text:00001f4a .L0
    ../src/Cfloats.s:63     .text:00001f4e .L0
    ../src/Cfloats.s:62     .text:00001f4c .L0
    ../src/Cfloats.s:64     .text:00001f50 .L0
    ../src/Cfloats.s:63     .text:00001f4e .L0
    ../src/Cfloats.s:66     .text:00001f52 .L0
    ../src/Cfloats.s:64     .text:00001f50 .L0
    ../src/Cfloats.s:67     .text:00001f56 .L0
    ../src/Cfloats.s:66     .text:00001f52 .L0
    ../src/Cfloats.s:68     .text:00001f58 .L0
    ../src/Cfloats.s:67     .text:00001f56 .L0
    ../src/Cfloats.s:69     .text:00001f5a .L0
    ../src/Cfloats.s:68     .text:00001f58 .L0
    ../src/Cfloats.s:79     .text:00001f64 .L0
    ../src/Cfloats.s:69     .text:00001f5a .L0
    ../src/Cfloats.s:80     .text:00001f66 .L0
    ../src/Cfloats.s:79     .text:00001f64 .L0
MPLAB ASM30 Listing:  ../src/ff-pic24-30-33.s 			page 287


    ../src/Cfloats.s:81     .text:00001f68 .L0
    ../src/Cfloats.s:80     .text:00001f66 .L0
    ../src/Cfloats.s:82     .text:00001f6a .L0
    ../src/Cfloats.s:81     .text:00001f68 .L0
    ../src/Cfloats.s:84     .text:00001f6c .L0
    ../src/Cfloats.s:82     .text:00001f6a .L0
    ../src/Cfloats.s:85     .text:00001f70 .L0
    ../src/Cfloats.s:84     .text:00001f6c .L0
    ../src/Cfloats.s:86     .text:00001f72 .L0
    ../src/Cfloats.s:85     .text:00001f70 .L0
    ../src/Cfloats.s:87     .text:00001f74 .L0
    ../src/Cfloats.s:86     .text:00001f72 .L0
    ../src/Cfloats.s:97     .text:00001f7e .L0
    ../src/Cfloats.s:87     .text:00001f74 .L0
    ../src/Cfloats.s:98     .text:00001f80 .L0
    ../src/Cfloats.s:97     .text:00001f7e .L0
    ../src/Cfloats.s:100    .text:00001f82 .L0
    ../src/Cfloats.s:98     .text:00001f80 .L0
    ../src/Cfloats.s:101    .text:00001f86 .L0
    ../src/Cfloats.s:100    .text:00001f82 .L0
    ../src/Cfloats.s:102    .text:00001f88 .L0
    ../src/Cfloats.s:101    .text:00001f86 .L0
    ../src/Cfloats.s:103    .text:00001f8a .L0
    ../src/Cfloats.s:102    .text:00001f88 .L0
    ../src/Cfloats.s:113    .text:00001f94 .L0
    ../src/Cfloats.s:103    .text:00001f8a .L0
    ../src/Cfloats.s:114    .text:00001f96 .L0
    ../src/Cfloats.s:113    .text:00001f94 .L0
    ../src/Cfloats.s:116    .text:00001f98 .L0
    ../src/Cfloats.s:114    .text:00001f96 .L0
    ../src/Cfloats.s:117    .text:00001f9c .L0
    ../src/Cfloats.s:116    .text:00001f98 .L0
    ../src/Cfloats.s:118    .text:00001f9e .L0
    ../src/Cfloats.s:117    .text:00001f9c .L0
    ../src/Cfloats.s:119    .text:00001fa0 .L0
    ../src/Cfloats.s:118    .text:00001f9e .L0
    ../src/Cfloats.s:129    .text:00001faa .L0
    ../src/Cfloats.s:119    .text:00001fa0 .L0
    ../src/Cfloats.s:130    .text:00001fac .L0
    ../src/Cfloats.s:129    .text:00001faa .L0
    ../src/Cfloats.s:132    .text:00001fae .L0
    ../src/Cfloats.s:130    .text:00001fac .L0
    ../src/Cfloats.s:133    .text:00001fb2 .L0
    ../src/Cfloats.s:132    .text:00001fae .L0
    ../src/Cfloats.s:134    .text:00001fb4 .L0
    ../src/Cfloats.s:133    .text:00001fb2 .L0
    ../src/Cfloats.s:135    .text:00001fb6 .L0
    ../src/Cfloats.s:134    .text:00001fb4 .L0
    ../src/Cfloats.s:145    .text:00001fc0 .L0
    ../src/Cfloats.s:135    .text:00001fb6 .L0
    ../src/Cfloats.s:146    .text:00001fc2 .L0
    ../src/Cfloats.s:145    .text:00001fc0 .L0
    ../src/Cfloats.s:148    .text:00001fc4 .L0
    ../src/Cfloats.s:146    .text:00001fc2 .L0
    ../src/Cfloats.s:149    .text:00001fc8 .L0
    ../src/Cfloats.s:148    .text:00001fc4 .L0
    ../src/Cfloats.s:150    .text:00001fca .L0
MPLAB ASM30 Listing:  ../src/ff-pic24-30-33.s 			page 288


    ../src/Cfloats.s:149    .text:00001fc8 .L0
    ../src/Cfloats.s:151    .text:00001fcc .L0
    ../src/Cfloats.s:150    .text:00001fca .L0
    ../src/Cfloats.s:161    .text:00001fd6 .L0
    ../src/Cfloats.s:151    .text:00001fcc .L0
    ../src/Cfloats.s:162    .text:00001fd8 .L0
    ../src/Cfloats.s:161    .text:00001fd6 .L0
    ../src/Cfloats.s:164    .text:00001fda .L0
    ../src/Cfloats.s:162    .text:00001fd8 .L0
    ../src/Cfloats.s:165    .text:00001fde .L0
    ../src/Cfloats.s:164    .text:00001fda .L0
    ../src/Cfloats.s:166    .text:00001fe0 .L0
    ../src/Cfloats.s:165    .text:00001fde .L0
    ../src/Cfloats.s:167    .text:00001fe2 .L0
    ../src/Cfloats.s:166    .text:00001fe0 .L0
    ../src/Cfloats.s:177    .text:00001fec .L0
    ../src/Cfloats.s:167    .text:00001fe2 .L0
    ../src/Cfloats.s:178    .text:00001fee .L0
    ../src/Cfloats.s:177    .text:00001fec .L0
    ../src/Cfloats.s:180    .text:00001ff0 .L0
    ../src/Cfloats.s:178    .text:00001fee .L0
    ../src/Cfloats.s:181    .text:00001ff4 .L0
    ../src/Cfloats.s:180    .text:00001ff0 .L0
    ../src/Cfloats.s:182    .text:00001ff6 .L0
    ../src/Cfloats.s:181    .text:00001ff4 .L0
    ../src/Cfloats.s:183    .text:00001ff8 .L0
    ../src/Cfloats.s:182    .text:00001ff6 .L0
    ../src/Cfloats.s:193    .text:00002004 .L0
    ../src/Cfloats.s:183    .text:00001ff8 .L0
    ../src/Cfloats.s:194    .text:00002006 .L0
    ../src/Cfloats.s:193    .text:00002004 .L0
    ../src/Cfloats.s:196    .text:00002008 .L0
    ../src/Cfloats.s:194    .text:00002006 .L0
    ../src/Cfloats.s:197    .text:0000200c .L0
    ../src/Cfloats.s:196    .text:00002008 .L0
    ../src/Cfloats.s:198    .text:0000200e .L0
    ../src/Cfloats.s:197    .text:0000200c .L0
    ../src/Cfloats.s:199    .text:00002010 .L0
    ../src/Cfloats.s:198    .text:0000200e .L0
    ../src/Cfloats.s:209    .text:0000201a .L0
    ../src/Cfloats.s:199    .text:00002010 .L0
    ../src/Cfloats.s:210    .text:0000201c .L0
    ../src/Cfloats.s:209    .text:0000201a .L0
    ../src/Cfloats.s:212    .text:0000201e .L0
    ../src/Cfloats.s:210    .text:0000201c .L0
    ../src/Cfloats.s:213    .text:00002022 .L0
    ../src/Cfloats.s:212    .text:0000201e .L0
    ../src/Cfloats.s:214    .text:00002024 .L0
    ../src/Cfloats.s:213    .text:00002022 .L0
    ../src/Cfloats.s:215    .text:00002026 .L0
    ../src/Cfloats.s:214    .text:00002024 .L0
    ../src/Cfloats.s:225    .text:00002030 .L0
    ../src/Cfloats.s:215    .text:00002026 .L0
    ../src/Cfloats.s:226    .text:00002032 .L0
    ../src/Cfloats.s:225    .text:00002030 .L0
    ../src/Cfloats.s:228    .text:00002034 .L0
    ../src/Cfloats.s:226    .text:00002032 .L0
MPLAB ASM30 Listing:  ../src/ff-pic24-30-33.s 			page 289


    ../src/Cfloats.s:229    .text:00002038 .L0
    ../src/Cfloats.s:228    .text:00002034 .L0
    ../src/Cfloats.s:230    .text:0000203a .L0
    ../src/Cfloats.s:229    .text:00002038 .L0
    ../src/Cfloats.s:231    .text:0000203c .L0
    ../src/Cfloats.s:230    .text:0000203a .L0
    ../src/Cfloats.s:241    .text:00002046 .L0
    ../src/Cfloats.s:231    .text:0000203c .L0
    ../src/Cfloats.s:242    .text:00002048 .L0
    ../src/Cfloats.s:241    .text:00002046 .L0
    ../src/Cfloats.s:244    .text:0000204a .L0
    ../src/Cfloats.s:242    .text:00002048 .L0
    ../src/Cfloats.s:245    .text:0000204e .L0
    ../src/Cfloats.s:244    .text:0000204a .L0
    ../src/Cfloats.s:246    .text:00002050 .L0
    ../src/Cfloats.s:245    .text:0000204e .L0
    ../src/Cfloats.s:247    .text:00002052 .L0
    ../src/Cfloats.s:246    .text:00002050 .L0
../src/ff-pic24-30-33.s:6362   .text:0000205c .L0
    ../src/Cfloats.s:247    .text:00002052 .L0
../src/ff-pic24-30-33.s:6363   .text:0000205e .L0
../src/ff-pic24-30-33.s:6362   .text:0000205c .L0
../src/ff-pic24-30-33.s:6372   .text:00002068 .L0
../src/ff-pic24-30-33.s:6363   .text:0000205e .L0
../src/ff-pic24-30-33.s:6373   .text:0000206a .L0
../src/ff-pic24-30-33.s:6372   .text:00002068 .L0
../src/ff-pic24-30-33.s:6381   .text:0000206c .L0
../src/ff-pic24-30-33.s:6373   .text:0000206a .L0
../src/ff-pic24-30-33.s:6382   .text:0000206e .L0
../src/ff-pic24-30-33.s:6381   .text:0000206c .L0
../src/ff-pic24-30-33.s:6383   .text:00002070 .L0
../src/ff-pic24-30-33.s:6382   .text:0000206e .L0
../src/ff-pic24-30-33.s:6384   .text:00002072 .L0
../src/ff-pic24-30-33.s:6383   .text:00002070 .L0
../src/ff-pic24-30-33.s:6385   .text:00002074 .L0
../src/ff-pic24-30-33.s:6384   .text:00002072 .L0
../src/ff-pic24-30-33.s:6386   .text:00002076 .L0
../src/ff-pic24-30-33.s:6385   .text:00002074 .L0
../src/ff-pic24-30-33.s:6387   .text:00002078 .L0
../src/ff-pic24-30-33.s:6386   .text:00002076 .L0
../src/ff-pic24-30-33.s:6389   .text:0000207a .L0
../src/ff-pic24-30-33.s:6387   .text:00002078 .L0
../src/ff-pic24-30-33.s:6390   .text:0000207c .L0
../src/ff-pic24-30-33.s:6389   .text:0000207a .L0
../src/ff-pic24-30-33.s:6391   .text:0000207e .L0
../src/ff-pic24-30-33.s:6390   .text:0000207c .L0
../src/ff-pic24-30-33.s:6392   .text:00002080 .L0
../src/ff-pic24-30-33.s:6391   .text:0000207e .L0
../src/ff-pic24-30-33.s:6394   .text:00002082 .L0
../src/ff-pic24-30-33.s:6392   .text:00002080 .L0
../src/ff-pic24-30-33.s:6395   .text:00002084 .L0
../src/ff-pic24-30-33.s:6394   .text:00002082 .L0
../src/ff-pic24-30-33.s:6396   .text:00002086 .L0
../src/ff-pic24-30-33.s:6395   .text:00002084 .L0
../src/ff-pic24-30-33.s:6397   .text:00002088 .L0
../src/ff-pic24-30-33.s:6396   .text:00002086 .L0
../src/ff-pic24-30-33.s:6399   .text:0000208a .L0
MPLAB ASM30 Listing:  ../src/ff-pic24-30-33.s 			page 290


../src/ff-pic24-30-33.s:6397   .text:00002088 .L0
../src/ff-pic24-30-33.s:6401   .text:0000208c .L0
../src/ff-pic24-30-33.s:6399   .text:0000208a .L0
../src/ff-pic24-30-33.s:6402   .text:0000208e .L0
../src/ff-pic24-30-33.s:6401   .text:0000208c .L0
../src/ff-pic24-30-33.s:6420   .text:00002096 .L0
../src/ff-pic24-30-33.s:6402   .text:0000208e .L0
../src/ff-pic24-30-33.s:6421   .text:00002098 .L0
../src/ff-pic24-30-33.s:6420   .text:00002096 .L0
../src/ff-pic24-30-33.s:6422   .text:0000209c .L0
../src/ff-pic24-30-33.s:6421   .text:00002098 .L0
../src/ff-pic24-30-33.s:6423   .text:0000209e .L0
../src/ff-pic24-30-33.s:6422   .text:0000209c .L0
../src/ff-pic24-30-33.s:6424   .text:000020a0 .L0
../src/ff-pic24-30-33.s:6423   .text:0000209e .L0
../src/ff-pic24-30-33.s:6425   .text:000020a2 .L0
../src/ff-pic24-30-33.s:6424   .text:000020a0 .L0
../src/ff-pic24-30-33.s:6426   .text:000020a6 .L0
../src/ff-pic24-30-33.s:6425   .text:000020a2 .L0
../src/ff-pic24-30-33.s:6435   .text:000020b4 .L0
../src/ff-pic24-30-33.s:6426   .text:000020a6 .L0
../src/ff-pic24-30-33.s:6436   .text:000020b8 .L0
../src/ff-pic24-30-33.s:6435   .text:000020b4 .L0
../src/ff-pic24-30-33.s:6437   .text:000020bc .L0
../src/ff-pic24-30-33.s:6436   .text:000020b8 .L0
../src/ff-pic24-30-33.s:6438   .text:000020c0 .L0
../src/ff-pic24-30-33.s:6437   .text:000020bc .L0
../src/ff-pic24-30-33.s:6439   .text:000020c2 .L0
../src/ff-pic24-30-33.s:6438   .text:000020c0 .L0
../src/ff-pic24-30-33.s:6440   .text:000020c4 .L0
../src/ff-pic24-30-33.s:6439   .text:000020c2 .L0
../src/ff-pic24-30-33.s:6441   .text:000020c6 .L0
../src/ff-pic24-30-33.s:6440   .text:000020c4 .L0
../src/ff-pic24-30-33.s:6442   .text:000020ca .L0
../src/ff-pic24-30-33.s:6441   .text:000020c6 .L0
../src/ff-pic24-30-33.s:6443   .text:000020cc .L0
../src/ff-pic24-30-33.s:6442   .text:000020ca .L0
../src/ff-pic24-30-33.s:6444   .text:000020d0 .L0
../src/ff-pic24-30-33.s:6443   .text:000020cc .L0
../src/ff-pic24-30-33.s:6445   .text:000020d2 .L0
../src/ff-pic24-30-33.s:6444   .text:000020d0 .L0
../src/ff-pic24-30-33.s:6446   .text:000020d6 .L0
../src/ff-pic24-30-33.s:6445   .text:000020d2 .L0
../src/ff-pic24-30-33.s:6447   .text:000020d8 .L0
../src/ff-pic24-30-33.s:6446   .text:000020d6 .L0
../src/ff-pic24-30-33.s:6448   .text:000020da .L0
../src/ff-pic24-30-33.s:6447   .text:000020d8 .L0
../src/ff-pic24-30-33.s:6450   .text:000020dc .L0
../src/ff-pic24-30-33.s:6448   .text:000020da .L0
../src/ff-pic24-30-33.s:6451   .text:000020de .L0
../src/ff-pic24-30-33.s:6450   .text:000020dc .L0
../src/ff-pic24-30-33.s:6452   .text:000020e2 .L0
../src/ff-pic24-30-33.s:6451   .text:000020de .L0
../src/ff-pic24-30-33.s:6453   .text:000020e6 .L0
../src/ff-pic24-30-33.s:6452   .text:000020e2 .L0
../src/ff-pic24-30-33.s:6464   .text:00002400 .L0
../src/ff-pic24-30-33.s:6453   .text:000020e6 .L0
MPLAB ASM30 Listing:  ../src/ff-pic24-30-33.s 			page 291


                            .text:00000000 .L0
../src/ff-pic24-30-33.s:6464   .text:00002400 .L0
                      .debug_info:00000000 .L0
                      .debug_info:0000008b .L0

UNDEFINED SYMBOLS
SPLIM
RCOUNT
SR
_SR
INTCON1
INTCON2
IFS0
IEC0
INTTREG
PR1
T1CON
TMR3
T3CON
U1MODE
U1STA
U1TXREG
U1RXREG
U1BRG
AD1PCFGL
RPINR18
RPOR0
RCON
OSCCON
OSCCONL
CLKDIV
PLLFBD
NVMCON
NVMKEY
PMD1
PMD2
PMD3
_Cfadd
_Cfsub
_Cfmul
_Cfdiv
_Cfpow
_Cfsin
_Cfcos
_Cftan
_Cfsqrt
_Cfexp
_Cflog
_Cflog10
_Cfatan
_Cfasin
_Cfacos

EQUATE SYMBOLS
D:/MyCode/Forth/ff50/PIC24-30-33/src/Cfloats.s = 0x0
D:/MyCode/Forth/ff50/PIC24-30-33/src/p33_config.inc = 0x0
d:/programfiles/microchip/xc16/v1.11/support/dsPIC33F/inc/p33FJ128GP802.inc = 0x0
d:/programfiles/microchip/xc16/v1.11/support/dsPIC33F/inc/p33Fxxxx.inc = 0x0
D:/MyCode/Forth/ff50/PIC24-30-33/src/ff30.inc = 0x0
D:/MyCode/Forth/ff50/PIC24-30-33/src/ff-pic24-30-33.s = 0x0
                   __MPLAB_BUILD = 0x1
                  __33FJ128GP802 = 0x1
                      __dsPIC33F = 0x1
                       __HAS_DSP = 0x1
                       __HAS_DMA = 0x1
                 __HAS_CODEGUARD = 0x1
                       __HAS_PMP = 0x1
                        __C30ELF = 0x1
                          WREG0L = _WREG0
                          WREG0H = _WREG0
                          WREG1L = _WREG1
                          WREG1H = _WREG1
                          WREG2L = _WREG2
                          WREG2H = _WREG2
                          WREG3L = _WREG3
                          WREG3H = _WREG3
                          WREG4L = _WREG4
                          WREG4H = _WREG4
                          WREG5L = _WREG5
                          WREG5H = _WREG5
                          WREG6L = _WREG6
                          WREG6H = _WREG6
                          WREG7L = _WREG7
                          WREG7H = _WREG7
                          WREG8L = _WREG8
                          WREG8H = _WREG8
                          WREG9L = _WREG9
                          WREG9H = _WREG9
                         WREG10L = _WREG10
                         WREG10H = _WREG10
                         WREG11L = _WREG11
                         WREG11H = _WREG11
                         WREG12L = _WREG12
                         WREG12H = _WREG12
                         WREG13L = _WREG13
                         WREG13H = _WREG13
                         WREG14L = _WREG14
                         WREG14H = _WREG14
                         WREG15L = _WREG15
                         WREG15H = _WREG15
                          SPLIML = _SPLIM
                          SPLIMH = _SPLIM
                          ACCALL = _ACCAL
                          ACCALH = _ACCAL
                          ACCAHL = _ACCAH
                          ACCAHH = _ACCAH
                          ACCAUL = _ACCAU
                          ACCAUH = _ACCAU
                          ACCBLL = _ACCBL
                          ACCBLH = _ACCBL
                          ACCBHL = _ACCBH
                          ACCBHH = _ACCBH
                          ACCBUL = _ACCBU
                          ACCBUH = _ACCBU
                            PCLL = _PCL
                            PCLH = _PCL
                            PCHL = _PCH
                            PCHH = _PCH
                         TBLPAGL = _TBLPAG
                         TBLPAGH = _TBLPAG
                         PSVPAGL = _PSVPAG
                         PSVPAGH = _PSVPAG
                         RCOUNTL = _RCOUNT
                         RCOUNTH = _RCOUNT
                         DCOUNTL = _DCOUNT
                         DCOUNTH = _DCOUNT
                       DOSTARTLL = _DOSTARTL
                       DOSTARTLH = _DOSTARTL
                       DOSTARTHL = _DOSTARTH
                       DOSTARTHH = _DOSTARTH
                         DOENDLL = _DOENDL
                         DOENDLH = _DOENDL
                         DOENDHL = _DOENDH
                         DOENDHH = _DOENDH
                             SRL = _SR
                             SRH = _SR
                         CORCONL = _CORCON
                         CORCONH = _CORCON
                         MODCONL = _MODCON
                         MODCONH = _MODCON
                        XMODSRTL = _XMODSRT
                        XMODSRTH = _XMODSRT
                        XMODENDL = _XMODEND
                        XMODENDH = _XMODEND
                        YMODSRTL = _YMODSRT
                        YMODSRTH = _YMODSRT
                        YMODENDL = _YMODEND
                        YMODENDH = _YMODEND
                          XBREVL = _XBREV
                          XBREVH = _XBREV
                        DISICNTL = _DISICNT
                        DISICNTH = _DISICNT
                          CNEN1L = _CNEN1
                          CNEN1H = _CNEN1
                          CNEN2L = _CNEN2
                          CNEN2H = _CNEN2
                          CNPU1L = _CNPU1
                          CNPU1H = _CNPU1
                          CNPU2L = _CNPU2
                          CNPU2H = _CNPU2
                        INTCON1L = _INTCON1
                        INTCON1H = _INTCON1
                        INTCON2L = _INTCON2
                        INTCON2H = _INTCON2
                           IFS0L = _IFS0
                           IFS0H = _IFS0
                           IFS1L = _IFS1
                           IFS1H = _IFS1
                           IFS2L = _IFS2
                           IFS2H = _IFS2
                           IFS3L = _IFS3
                           IFS3H = _IFS3
                           IFS4L = _IFS4
                           IFS4H = _IFS4
                           IEC0L = _IEC0
                           IEC0H = _IEC0
                           IEC1L = _IEC1
                           IEC1H = _IEC1
                           IEC2L = _IEC2
                           IEC2H = _IEC2
                           IEC3L = _IEC3
                           IEC3H = _IEC3
                           IEC4L = _IEC4
                           IEC4H = _IEC4
                           IPC0L = _IPC0
                           IPC0H = _IPC0
                           IPC1L = _IPC1
                           IPC1H = _IPC1
                           IPC2L = _IPC2
                           IPC2H = _IPC2
                           IPC3L = _IPC3
                           IPC3H = _IPC3
                           IPC4L = _IPC4
                           IPC4H = _IPC4
                           IPC5L = _IPC5
                           IPC5H = _IPC5
                           IPC6L = _IPC6
                           IPC6H = _IPC6
                           IPC7L = _IPC7
                           IPC7H = _IPC7
                           IPC8L = _IPC8
                           IPC8H = _IPC8
                           IPC9L = _IPC9
                           IPC9H = _IPC9
                          IPC11L = _IPC11
                          IPC11H = _IPC11
                          IPC14L = _IPC14
                          IPC14H = _IPC14
                          IPC15L = _IPC15
                          IPC15H = _IPC15
                          IPC16L = _IPC16
                          IPC16H = _IPC16
                          IPC17L = _IPC17
                          IPC17H = _IPC17
                          IPC19L = _IPC19
                          IPC19H = _IPC19
                        INTTREGL = _INTTREG
                        INTTREGH = _INTTREG
                           TMR1L = _TMR1
                           TMR1H = _TMR1
                            PR1L = _PR1
                            PR1H = _PR1
                          T1CONL = _T1CON
                          T1CONH = _T1CON
                           TMR2L = _TMR2
                           TMR2H = _TMR2
                        TMR3HLDL = _TMR3HLD
                        TMR3HLDH = _TMR3HLD
                           TMR3L = _TMR3
                           TMR3H = _TMR3
                            PR2L = _PR2
                            PR2H = _PR2
                            PR3L = _PR3
                            PR3H = _PR3
                          T2CONL = _T2CON
                          T2CONH = _T2CON
                          T3CONL = _T3CON
                          T3CONH = _T3CON
                           TMR4L = _TMR4
                           TMR4H = _TMR4
                        TMR5HLDL = _TMR5HLD
                        TMR5HLDH = _TMR5HLD
                           TMR5L = _TMR5
                           TMR5H = _TMR5
                            PR4L = _PR4
                            PR4H = _PR4
                            PR5L = _PR5
                            PR5H = _PR5
                          T4CONL = _T4CON
                          T4CONH = _T4CON
                          T5CONL = _T5CON
                          T5CONH = _T5CON
                         IC1BUFL = _IC1BUF
                         IC1BUFH = _IC1BUF
                         IC1CONL = _IC1CON
                         IC1CONH = _IC1CON
                         IC2BUFL = _IC2BUF
                         IC2BUFH = _IC2BUF
                         IC2CONL = _IC2CON
                         IC2CONH = _IC2CON
                         IC7BUFL = _IC7BUF
                         IC7BUFH = _IC7BUF
                         IC7CONL = _IC7CON
                         IC7CONH = _IC7CON
                         IC8BUFL = _IC8BUF
                         IC8BUFH = _IC8BUF
                         IC8CONL = _IC8CON
                         IC8CONH = _IC8CON
                          OC1RSL = _OC1RS
                          OC1RSH = _OC1RS
                           OC1RL = _OC1R
                           OC1RH = _OC1R
                         OC1CONL = _OC1CON
                         OC1CONH = _OC1CON
                          OC2RSL = _OC2RS
                          OC2RSH = _OC2RS
                           OC2RL = _OC2R
                           OC2RH = _OC2R
                         OC2CONL = _OC2CON
                         OC2CONH = _OC2CON
                          OC3RSL = _OC3RS
                          OC3RSH = _OC3RS
                           OC3RL = _OC3R
                           OC3RH = _OC3R
                         OC3CONL = _OC3CON
                         OC3CONH = _OC3CON
                          OC4RSL = _OC4RS
                          OC4RSH = _OC4RS
                           OC4RL = _OC4R
                           OC4RH = _OC4R
                         OC4CONL = _OC4CON
                         OC4CONH = _OC4CON
                        I2C1RCVL = _I2C1RCV
                        I2C1RCVH = _I2C1RCV
                         I2CRCVL = _I2CRCV
                         I2CRCVH = _I2CRCV
                        I2C1TRNL = _I2C1TRN
                        I2C1TRNH = _I2C1TRN
                         I2CTRNL = _I2CTRN
                         I2CTRNH = _I2CTRN
                        I2C1BRGL = _I2C1BRG
                        I2C1BRGH = _I2C1BRG
                        I2C1CONL = _I2C1CON
                        I2C1CONH = _I2C1CON
                         I2CCONL = _I2CCON
                         I2CCONH = _I2CCON
                       I2C1STATL = _I2C1STAT
                       I2C1STATH = _I2C1STAT
                        I2CSTATL = _I2CSTAT
                        I2CSTATH = _I2CSTAT
                        I2C1ADDL = _I2C1ADD
                        I2C1ADDH = _I2C1ADD
                         I2CADDL = _I2CADD
                         I2CADDH = _I2CADD
                        I2C1MSKL = _I2C1MSK
                        I2C1MSKH = _I2C1MSK
                         U1MODEL = _U1MODE
                         U1MODEH = _U1MODE
                          U1STAL = _U1STA
                          U1STAH = _U1STA
                        U1TXREGL = _U1TXREG
                        U1TXREGH = _U1TXREG
                        U1RXREGL = _U1RXREG
                        U1RXREGH = _U1RXREG
                          U1BRGL = _U1BRG
                          U1BRGH = _U1BRG
                         U2MODEL = _U2MODE
                         U2MODEH = _U2MODE
                          U2STAL = _U2STA
                          U2STAH = _U2STA
                        U2TXREGL = _U2TXREG
                        U2TXREGH = _U2TXREG
                        U2RXREGL = _U2RXREG
                        U2RXREGH = _U2RXREG
                          U2BRGL = _U2BRG
                          U2BRGH = _U2BRG
                       SPI1STATL = _SPI1STAT
                       SPI1STATH = _SPI1STAT
                       SPI1CON1L = _SPI1CON1
                       SPI1CON1H = _SPI1CON1
                       SPI1CON2L = _SPI1CON2
                       SPI1CON2H = _SPI1CON2
                        SPI1BUFL = _SPI1BUF
                        SPI1BUFH = _SPI1BUF
                       SPI2STATL = _SPI2STAT
                       SPI2STATH = _SPI2STAT
                       SPI2CON1L = _SPI2CON1
                       SPI2CON1H = _SPI2CON1
                       SPI2CON2L = _SPI2CON2
                       SPI2CON2H = _SPI2CON2
                        SPI2BUFL = _SPI2BUF
                        SPI2BUFH = _SPI2BUF
                        DCICON1L = _DCICON1
                        DCICON1H = _DCICON1
                        DCICON2L = _DCICON2
                        DCICON2H = _DCICON2
                        DCICON3L = _DCICON3
                        DCICON3H = _DCICON3
                        DCISTATL = _DCISTAT
                        DCISTATH = _DCISTAT
                          TSCONL = _TSCON
                          TSCONH = _TSCON
                          RSCONL = _RSCON
                          RSCONH = _RSCON
                         RXBUF0L = _RXBUF0
                         RXBUF0H = _RXBUF0
                         RXBUF1L = _RXBUF1
                         RXBUF1H = _RXBUF1
                         RXBUF2L = _RXBUF2
                         RXBUF2H = _RXBUF2
                         RXBUF3L = _RXBUF3
                         RXBUF3H = _RXBUF3
                         TXBUF0L = _TXBUF0
                         TXBUF0H = _TXBUF0
                         TXBUF1L = _TXBUF1
                         TXBUF1H = _TXBUF1
                         TXBUF2L = _TXBUF2
                         TXBUF2H = _TXBUF2
                         TXBUF3L = _TXBUF3
                         TXBUF3H = _TXBUF3
                          TRISAL = _TRISA
                          TRISAH = _TRISA
                          PORTAL = _PORTA
                          PORTAH = _PORTA
                           LATAL = _LATA
                           LATAH = _LATA
                           ODCAL = _ODCA
                           ODCAH = _ODCA
                          TRISBL = _TRISB
                          TRISBH = _TRISB
                          PORTBL = _PORTB
                          PORTBH = _PORTB
                           LATBL = _LATB
                           LATBH = _LATB
                           ODCBL = _ODCB
                           ODCBH = _ODCB
                        PADCFG1L = _PADCFG1
                        PADCFG1H = _PADCFG1
                       ADC1BUF0L = _ADC1BUF0
                       ADC1BUF0H = _ADC1BUF0
                        ADCBUF0L = _ADCBUF0
                        ADCBUF0H = _ADCBUF0
                        AD1CON1L = _AD1CON1
                        AD1CON1H = _AD1CON1
                        AD1CON2L = _AD1CON2
                        AD1CON2H = _AD1CON2
                        AD1CON3L = _AD1CON3
                        AD1CON3H = _AD1CON3
                      AD1CHS123L = _AD1CHS123
                      AD1CHS123H = _AD1CHS123
                        AD1CHS0L = _AD1CHS0
                        AD1CHS0H = _AD1CHS0
                       AD1PCFGLL = _AD1PCFGL
                       AD1PCFGLH = _AD1PCFGL
                         ADPCFGL = _ADPCFG
                         ADPCFGH = _ADPCFG
                        AD1CSSLL = _AD1CSSL
                        AD1CSSLH = _AD1CSSL
                        AD1CON4L = _AD1CON4
                        AD1CON4H = _AD1CON4
                        DMA0CONL = _DMA0CON
                        DMA0CONH = _DMA0CON
                        DMA0REQL = _DMA0REQ
                        DMA0REQH = _DMA0REQ
                        DMA0STAL = _DMA0STA
                        DMA0STAH = _DMA0STA
                        DMA0STBL = _DMA0STB
                        DMA0STBH = _DMA0STB
                        DMA0PADL = _DMA0PAD
                        DMA0PADH = _DMA0PAD
                        DMA0CNTL = _DMA0CNT
                        DMA0CNTH = _DMA0CNT
                        DMA1CONL = _DMA1CON
                        DMA1CONH = _DMA1CON
                        DMA1REQL = _DMA1REQ
                        DMA1REQH = _DMA1REQ
                        DMA1STAL = _DMA1STA
                        DMA1STAH = _DMA1STA
                        DMA1STBL = _DMA1STB
                        DMA1STBH = _DMA1STB
                        DMA1PADL = _DMA1PAD
                        DMA1PADH = _DMA1PAD
                        DMA1CNTL = _DMA1CNT
                        DMA1CNTH = _DMA1CNT
                        DMA2CONL = _DMA2CON
                        DMA2CONH = _DMA2CON
                        DMA2REQL = _DMA2REQ
                        DMA2REQH = _DMA2REQ
                        DMA2STAL = _DMA2STA
                        DMA2STAH = _DMA2STA
                        DMA2STBL = _DMA2STB
                        DMA2STBH = _DMA2STB
                        DMA2PADL = _DMA2PAD
                        DMA2PADH = _DMA2PAD
                        DMA2CNTL = _DMA2CNT
                        DMA2CNTH = _DMA2CNT
                        DMA3CONL = _DMA3CON
                        DMA3CONH = _DMA3CON
                        DMA3REQL = _DMA3REQ
                        DMA3REQH = _DMA3REQ
                        DMA3STAL = _DMA3STA
                        DMA3STAH = _DMA3STA
                        DMA3STBL = _DMA3STB
                        DMA3STBH = _DMA3STB
                        DMA3PADL = _DMA3PAD
                        DMA3PADH = _DMA3PAD
                        DMA3CNTL = _DMA3CNT
                        DMA3CNTH = _DMA3CNT
                        DMA4CONL = _DMA4CON
                        DMA4CONH = _DMA4CON
                        DMA4REQL = _DMA4REQ
                        DMA4REQH = _DMA4REQ
                        DMA4STAL = _DMA4STA
                        DMA4STAH = _DMA4STA
                        DMA4STBL = _DMA4STB
                        DMA4STBH = _DMA4STB
                        DMA4PADL = _DMA4PAD
                        DMA4PADH = _DMA4PAD
                        DMA4CNTL = _DMA4CNT
                        DMA4CNTH = _DMA4CNT
                        DMA5CONL = _DMA5CON
                        DMA5CONH = _DMA5CON
                        DMA5REQL = _DMA5REQ
                        DMA5REQH = _DMA5REQ
                        DMA5STAL = _DMA5STA
                        DMA5STAH = _DMA5STA
                        DMA5STBL = _DMA5STB
                        DMA5STBH = _DMA5STB
                        DMA5PADL = _DMA5PAD
                        DMA5PADH = _DMA5PAD
                        DMA5CNTL = _DMA5CNT
                        DMA5CNTH = _DMA5CNT
                        DMA6CONL = _DMA6CON
                        DMA6CONH = _DMA6CON
                        DMA6REQL = _DMA6REQ
                        DMA6REQH = _DMA6REQ
                        DMA6STAL = _DMA6STA
                        DMA6STAH = _DMA6STA
                        DMA6STBL = _DMA6STB
                        DMA6STBH = _DMA6STB
                        DMA6PADL = _DMA6PAD
                        DMA6PADH = _DMA6PAD
                        DMA6CNTL = _DMA6CNT
                        DMA6CNTH = _DMA6CNT
                        DMA7CONL = _DMA7CON
                        DMA7CONH = _DMA7CON
                        DMA7REQL = _DMA7REQ
                        DMA7REQH = _DMA7REQ
                        DMA7STAL = _DMA7STA
                        DMA7STAH = _DMA7STA
                        DMA7STBL = _DMA7STB
                        DMA7STBH = _DMA7STB
                        DMA7PADL = _DMA7PAD
                        DMA7PADH = _DMA7PAD
                        DMA7CNTL = _DMA7CNT
                        DMA7CNTH = _DMA7CNT
                         DMACS0L = _DMACS0
                         DMACS0H = _DMACS0
                         DMACS1L = _DMACS1
                         DMACS1H = _DMACS1
                          DSADRL = _DSADR
                          DSADRH = _DSADR
                        DAC1CONL = _DAC1CON
                        DAC1CONH = _DAC1CON
                       DAC1STATL = _DAC1STAT
                       DAC1STATH = _DAC1STAT
                       DAC1DFLTL = _DAC1DFLT
                       DAC1DFLTH = _DAC1DFLT
                       DAC1RDATL = _DAC1RDAT
                       DAC1RDATH = _DAC1RDAT
                       DAC1LDATL = _DAC1LDAT
                       DAC1LDATH = _DAC1LDAT
                        C1CTRL1L = _C1CTRL1
                        C1CTRL1H = _C1CTRL1
                        C1CTRL2L = _C1CTRL2
                        C1CTRL2H = _C1CTRL2
                          C1VECL = _C1VEC
                          C1VECH = _C1VEC
                        C1FCTRLL = _C1FCTRL
                        C1FCTRLH = _C1FCTRL
                         C1FIFOL = _C1FIFO
                         C1FIFOH = _C1FIFO
                         C1INTFL = _C1INTF
                         C1INTFH = _C1INTF
                         C1INTEL = _C1INTE
                         C1INTEH = _C1INTE
                           C1ECL = _C1EC
                           C1ECH = _C1EC
                      C1RERRCNTL = _C1RERRCNT
                      C1RERRCNTH = _C1RERRCNT
                      C1TERRCNTL = _C1TERRCNT
                      C1TERRCNTH = _C1TERRCNT
                         C1CFG1L = _C1CFG1
                         C1CFG1H = _C1CFG1
                         C1CFG2L = _C1CFG2
                         C1CFG2H = _C1CFG2
                         C1FEN1L = _C1FEN1
                         C1FEN1H = _C1FEN1
                     C1FMSKSEL1L = _C1FMSKSEL1
                     C1FMSKSEL1H = _C1FMSKSEL1
                     C1FMSKSEL2L = _C1FMSKSEL2
                     C1FMSKSEL2H = _C1FMSKSEL2
                      C1BUFPNT1L = _C1BUFPNT1
                      C1BUFPNT1H = _C1BUFPNT1
                       C1RXFUL1L = _C1RXFUL1
                       C1RXFUL1H = _C1RXFUL1
                      C1BUFPNT2L = _C1BUFPNT2
                      C1BUFPNT2H = _C1BUFPNT2
                       C1RXFUL2L = _C1RXFUL2
                       C1RXFUL2H = _C1RXFUL2
                      C1BUFPNT3L = _C1BUFPNT3
                      C1BUFPNT3H = _C1BUFPNT3
                      C1BUFPNT4L = _C1BUFPNT4
                      C1BUFPNT4H = _C1BUFPNT4
                       C1RXOVF1L = _C1RXOVF1
                       C1RXOVF1H = _C1RXOVF1
                       C1RXOVF2L = _C1RXOVF2
                       C1RXOVF2H = _C1RXOVF2
                      C1RXM0SIDL = _C1RXM0SID
                      C1RXM0SIDH = _C1RXM0SID
                      C1TR01CONL = _C1TR01CON
                      C1TR01CONH = _C1TR01CON
                      C1RXM0EIDL = _C1RXM0EID
                      C1RXM0EIDH = _C1RXM0EID
                      C1TR23CONL = _C1TR23CON
                      C1TR23CONH = _C1TR23CON
                      C1RXM1SIDL = _C1RXM1SID
                      C1RXM1SIDH = _C1RXM1SID
                      C1TR45CONL = _C1TR45CON
                      C1TR45CONH = _C1TR45CON
                      C1RXM1EIDL = _C1RXM1EID
                      C1RXM1EIDH = _C1RXM1EID
                      C1TR67CONL = _C1TR67CON
                      C1TR67CONH = _C1TR67CON
                      C1RXM2SIDL = _C1RXM2SID
                      C1RXM2SIDH = _C1RXM2SID
                      C1RXM2EIDL = _C1RXM2EID
                      C1RXM2EIDH = _C1RXM2EID
                          C1RXDL = _C1RXD
                          C1RXDH = _C1RXD
                      C1RXF0SIDL = _C1RXF0SID
                      C1RXF0SIDH = _C1RXF0SID
                      C1RXF0EIDL = _C1RXF0EID
                      C1RXF0EIDH = _C1RXF0EID
                          C1TXDL = _C1TXD
                          C1TXDH = _C1TXD
                      C1RXF1SIDL = _C1RXF1SID
                      C1RXF1SIDH = _C1RXF1SID
                      C1RXF1EIDL = _C1RXF1EID
                      C1RXF1EIDH = _C1RXF1EID
                      C1RXF2SIDL = _C1RXF2SID
                      C1RXF2SIDH = _C1RXF2SID
                      C1RXF2EIDL = _C1RXF2EID
                      C1RXF2EIDH = _C1RXF2EID
                      C1RXF3SIDL = _C1RXF3SID
                      C1RXF3SIDH = _C1RXF3SID
                      C1RXF3EIDL = _C1RXF3EID
                      C1RXF3EIDH = _C1RXF3EID
                      C1RXF4SIDL = _C1RXF4SID
                      C1RXF4SIDH = _C1RXF4SID
                      C1RXF4EIDL = _C1RXF4EID
                      C1RXF4EIDH = _C1RXF4EID
                      C1RXF5SIDL = _C1RXF5SID
                      C1RXF5SIDH = _C1RXF5SID
                      C1RXF5EIDL = _C1RXF5EID
                      C1RXF5EIDH = _C1RXF5EID
                      C1RXF6SIDL = _C1RXF6SID
                      C1RXF6SIDH = _C1RXF6SID
                      C1RXF6EIDL = _C1RXF6EID
                      C1RXF6EIDH = _C1RXF6EID
                      C1RXF7SIDL = _C1RXF7SID
                      C1RXF7SIDH = _C1RXF7SID
                      C1RXF7EIDL = _C1RXF7EID
                      C1RXF7EIDH = _C1RXF7EID
                      C1RXF8SIDL = _C1RXF8SID
                      C1RXF8SIDH = _C1RXF8SID
                      C1RXF8EIDL = _C1RXF8EID
                      C1RXF8EIDH = _C1RXF8EID
                      C1RXF9SIDL = _C1RXF9SID
                      C1RXF9SIDH = _C1RXF9SID
                      C1RXF9EIDL = _C1RXF9EID
                      C1RXF9EIDH = _C1RXF9EID
                     C1RXF10SIDL = _C1RXF10SID
                     C1RXF10SIDH = _C1RXF10SID
                     C1RXF10EIDL = _C1RXF10EID
                     C1RXF10EIDH = _C1RXF10EID
                     C1RXF11SIDL = _C1RXF11SID
                     C1RXF11SIDH = _C1RXF11SID
                     C1RXF11EIDL = _C1RXF11EID
                     C1RXF11EIDH = _C1RXF11EID
                     C1RXF12SIDL = _C1RXF12SID
                     C1RXF12SIDH = _C1RXF12SID
                     C1RXF12EIDL = _C1RXF12EID
                     C1RXF12EIDH = _C1RXF12EID
                     C1RXF13SIDL = _C1RXF13SID
                     C1RXF13SIDH = _C1RXF13SID
                     C1RXF13EIDL = _C1RXF13EID
                     C1RXF13EIDH = _C1RXF13EID
                     C1RXF14SIDL = _C1RXF14SID
                     C1RXF14SIDH = _C1RXF14SID
                     C1RXF14EIDL = _C1RXF14EID
                     C1RXF14EIDH = _C1RXF14EID
                     C1RXF15SIDL = _C1RXF15SID
                     C1RXF15SIDH = _C1RXF15SID
                     C1RXF15EIDL = _C1RXF15EID
                     C1RXF15EIDH = _C1RXF15EID
                          PMCONL = _PMCON
                          PMCONH = _PMCON
                         PMMODEL = _PMMODE
                         PMMODEH = _PMMODE
                         PMADDRL = _PMADDR
                         PMADDRH = _PMADDR
                        PMDOUT1L = _PMDOUT1
                        PMDOUT1H = _PMDOUT1
                        PMDOUT2L = _PMDOUT2
                        PMDOUT2H = _PMDOUT2
                         PMDIN1L = _PMDIN1
                         PMDIN1H = _PMDIN1
                         PMDIN2L = _PMDIN2
                         PMDIN2H = _PMDIN2
                          PMAENL = _PMAEN
                          PMAENH = _PMAEN
                         PMSTATL = _PMSTAT
                         PMSTATH = _PMSTAT
                        ALRMVALL = _ALRMVAL
                        ALRMVALH = _ALRMVAL
                       ALCFGRPTL = _ALCFGRPT
                       ALCFGRPTH = _ALCFGRPT
                         RTCVALL = _RTCVAL
                         RTCVALH = _RTCVAL
                        RCFGCALL = _RCFGCAL
                        RCFGCALH = _RCFGCAL
                          CMCONL = _CMCON
                          CMCONH = _CMCON
                         CVRCONL = _CVRCON
                         CVRCONH = _CVRCON
                         CRCCONL = _CRCCON
                         CRCCONH = _CRCCON
                         CRCXORL = _CRCXOR
                         CRCXORH = _CRCXOR
                         CRCDATL = _CRCDAT
                         CRCDATH = _CRCDAT
                        CRCWDATL = _CRCWDAT
                        CRCWDATH = _CRCWDAT
                         RPINR0L = _RPINR0
                         RPINR0H = _RPINR0
                         RPINR1L = _RPINR1
                         RPINR1H = _RPINR1
                         RPINR3L = _RPINR3
                         RPINR3H = _RPINR3
                         RPINR4L = _RPINR4
                         RPINR4H = _RPINR4
                         RPINR7L = _RPINR7
                         RPINR7H = _RPINR7
                        RPINR10L = _RPINR10
                        RPINR10H = _RPINR10
                        RPINR11L = _RPINR11
                        RPINR11H = _RPINR11
                        RPINR18L = _RPINR18
                        RPINR18H = _RPINR18
                        RPINR19L = _RPINR19
                        RPINR19H = _RPINR19
                        RPINR20L = _RPINR20
                        RPINR20H = _RPINR20
                        RPINR21L = _RPINR21
                        RPINR21H = _RPINR21
                        RPINR22L = _RPINR22
                        RPINR22H = _RPINR22
                        RPINR23L = _RPINR23
                        RPINR23H = _RPINR23
                        RPINR24L = _RPINR24
                        RPINR24H = _RPINR24
                        RPINR25L = _RPINR25
                        RPINR25H = _RPINR25
                        RPINR26L = _RPINR26
                        RPINR26H = _RPINR26
                          RPOR0L = _RPOR0
                          RPOR0H = _RPOR0
                          RPOR1L = _RPOR1
                          RPOR1H = _RPOR1
                          RPOR2L = _RPOR2
                          RPOR2H = _RPOR2
                          RPOR3L = _RPOR3
                          RPOR3H = _RPOR3
                          RPOR4L = _RPOR4
                          RPOR4H = _RPOR4
                          RPOR5L = _RPOR5
                          RPOR5H = _RPOR5
                          RPOR6L = _RPOR6
                          RPOR6H = _RPOR6
                          RPOR7L = _RPOR7
                          RPOR7H = _RPOR7
                           RCONL = _RCON
                           RCONH = _RCON
                        OSCCONLL = _OSCCONL
                        OSCCONLH = _OSCCONL
                        OSCCONHL = _OSCCONH
                        OSCCONHH = _OSCCONH
                         CLKDIVL = _CLKDIV
                         CLKDIVH = _CLKDIV
                         PLLFBDL = _PLLFBD
                         PLLFBDH = _PLLFBD
                         OSCTUNL = _OSCTUN
                         OSCTUNH = _OSCTUN
                        ACLKCONL = _ACLKCON
                        ACLKCONH = _ACLKCON
                          BSRAML = _BSRAM
                          BSRAMH = _BSRAM
                          SSRAML = _SSRAM
                          SSRAMH = _SSRAM
                         NVMCONL = _NVMCON
                         NVMCONH = _NVMCON
                         NVMKEYL = _NVMKEY
                         NVMKEYH = _NVMKEY
                           PMD1L = _PMD1
                           PMD1H = _PMD1
                           PMD2L = _PMD2
                           PMD2H = _PMD2
                           PMD3L = _PMD3
                           PMD3H = _PMD3
                               C = 0x0
                               Z = 0x1
                              OV = 0x2
                               N = 0x3
                              RA = 0x4
                              DC = 0x8
                              DA = 0x9
                             SAB = 0xa
                             OAB = 0xb
                              SB = 0xc
                              SA = 0xd
                              OB = 0xe
                              OA = 0xf
                            IPL0 = 0x5
                            IPL1 = 0x6
                            IPL2 = 0x7
                              IF = 0x0
                             RND = 0x1
                             PSV = 0x2
                            IPL3 = 0x3
                          ACCSAT = 0x4
                           SATDW = 0x5
                            SATB = 0x6
                            SATA = 0x7
                             EDT = 0xb
                              US = 0xc
                             DL0 = 0x8
                             DL1 = 0x9
                             DL2 = 0xa
                          YMODEN = 0xe
                          XMODEN = 0xf
                            XWM0 = 0x0
                            XWM1 = 0x1
                            XWM2 = 0x2
                            XWM3 = 0x3
                            YWM0 = 0x4
                            YWM1 = 0x5
                            YWM2 = 0x6
                            YWM3 = 0x7
                            BWM0 = 0x8
                            BWM1 = 0x9
                            BWM2 = 0xa
                            BWM3 = 0xb
                            BREN = 0xf
                             XB0 = 0x0
                             XB1 = 0x1
                             XB2 = 0x2
                             XB3 = 0x3
                             XB4 = 0x4
                             XB5 = 0x5
                             XB6 = 0x6
                             XB7 = 0x7
                             XB8 = 0x8
                             XB9 = 0x9
                            XB10 = 0xa
                            XB11 = 0xb
                            XB12 = 0xc
                            XB13 = 0xd
                            XB14 = 0xe
                           CN0IE = 0x0
                           CN1IE = 0x1
                           CN2IE = 0x2
                           CN3IE = 0x3
                           CN4IE = 0x4
                           CN5IE = 0x5
                           CN6IE = 0x6
                           CN7IE = 0x7
                          CN11IE = 0xb
                          CN12IE = 0xc
                          CN13IE = 0xd
                          CN14IE = 0xe
                          CN15IE = 0xf
                          CN16IE = 0x0
                          CN21IE = 0x5
                          CN22IE = 0x6
                          CN23IE = 0x7
                          CN24IE = 0x8
                          CN27IE = 0xb
                          CN29IE = 0xd
                          CN30IE = 0xe
                          CN0PUE = 0x0
                          CN1PUE = 0x1
                          CN2PUE = 0x2
                          CN3PUE = 0x3
                          CN4PUE = 0x4
                          CN5PUE = 0x5
                          CN6PUE = 0x6
                          CN7PUE = 0x7
                         CN11PUE = 0xb
                         CN12PUE = 0xc
                         CN13PUE = 0xd
                         CN14PUE = 0xe
                         CN15PUE = 0xf
                         CN16PUE = 0x0
                         CN21PUE = 0x5
                         CN22PUE = 0x6
                         CN23PUE = 0x7
                         CN24PUE = 0x8
                         CN27PUE = 0xb
                         CN29PUE = 0xd
                         CN30PUE = 0xe
                         OSCFAIL = 0x1
                          STKERR = 0x2
                         ADDRERR = 0x3
                         MATHERR = 0x4
                         DMACERR = 0x5
                         DIV0ERR = 0x6
                        SFTACERR = 0x7
                           COVTE = 0x8
                           OVBTE = 0x9
                           OVATE = 0xa
                         COVBERR = 0xb
                         COVAERR = 0xc
                          OVBERR = 0xd
                          OVAERR = 0xe
                          NSTDIS = 0xf
                          INT0EP = 0x0
                          INT1EP = 0x1
                          INT2EP = 0x2
                            DISI = 0xe
                          ALTIVT = 0xf
                          INT0IF = 0x0
                           IC1IF = 0x1
                           OC1IF = 0x2
                            T1IF = 0x3
                          DMA0IF = 0x4
                           IC2IF = 0x5
                           OC2IF = 0x6
                            T2IF = 0x7
                            T3IF = 0x8
                         SPI1EIF = 0x9
                          SPI1IF = 0xa
                          U1RXIF = 0xb
                          U1TXIF = 0xc
                           AD1IF = 0xd
                          DMA1IF = 0xe
                         SI2C1IF = 0x0
                         MI2C1IF = 0x1
                            CMIF = 0x2
                            CNIF = 0x3
                          INT1IF = 0x4
                           IC7IF = 0x6
                           IC8IF = 0x7
                          DMA2IF = 0x8
                           OC3IF = 0x9
                           OC4IF = 0xa
                            T4IF = 0xb
                            T5IF = 0xc
                          INT2IF = 0xd
                          U2RXIF = 0xe
                          U2TXIF = 0xf
                          SI2CIF = 0x0
                         SPI2EIF = 0x0
                          SPI2IF = 0x1
                          C1RXIF = 0x2
                            C1IF = 0x3
                          DMA3IF = 0x4
                           PMPIF = 0xd
                          DMA4IF = 0xe
                          DCIEIF = 0xb
                           DCIIF = 0xc
                          DMA5IF = 0xd
                           RTCIF = 0xe
                           U1EIF = 0x1
                           U2EIF = 0x2
                           CRCIF = 0x3
                          DMA6IF = 0x4
                          DMA7IF = 0x5
                          C1TXIF = 0x6
                         DAC1RIF = 0xe
                         DAC1LIF = 0xf
                          INT0IE = 0x0
                           IC1IE = 0x1
                           OC1IE = 0x2
                            T1IE = 0x3
                          DMA0IE = 0x4
                           IC2IE = 0x5
                           OC2IE = 0x6
                            T2IE = 0x7
                            T3IE = 0x8
                         SPI1EIE = 0x9
                          SPI1IE = 0xa
                          U1RXIE = 0xb
                          U1TXIE = 0xc
                           AD1IE = 0xd
                          DMA1IE = 0xe
                         SI2C1IE = 0x0
                         MI2C1IE = 0x1
                            CMIE = 0x2
                            CNIE = 0x3
                          INT1IE = 0x4
                           IC7IE = 0x6
                           IC8IE = 0x7
                          DMA2IE = 0x8
                           OC3IE = 0x9
                           OC4IE = 0xa
                            T4IE = 0xb
                            T5IE = 0xc
                          INT2IE = 0xd
                          U2RXIE = 0xe
                          U2TXIE = 0xf
                          SI2CIE = 0x0
                         SPI2EIE = 0x0
                          SPI2IE = 0x1
                          C1RXIE = 0x2
                            C1IE = 0x3
                          DMA3IE = 0x4
                           PMPIE = 0xd
                          DMA4IE = 0xe
                          DCIEIE = 0xb
                           DCIIE = 0xc
                          DMA5IE = 0xd
                           RTCIE = 0xe
                           U1EIE = 0x1
                           U2EIE = 0x2
                           CRCIE = 0x3
                          DMA6IE = 0x4
                          DMA7IE = 0x5
                          C1TXIE = 0x6
                         DAC1RIE = 0xe
                         DAC1LIE = 0xf
                         INT0IP0 = 0x0
                         INT0IP1 = 0x1
                         INT0IP2 = 0x2
                          IC1IP0 = 0x4
                          IC1IP1 = 0x5
                          IC1IP2 = 0x6
                          OC1IP0 = 0x8
                          OC1IP1 = 0x9
                          OC1IP2 = 0xa
                           T1IP0 = 0xc
                           T1IP1 = 0xd
                           T1IP2 = 0xe
                         DMA0IP0 = 0x0
                         DMA0IP1 = 0x1
                         DMA0IP2 = 0x2
                          IC2IP0 = 0x4
                          IC2IP1 = 0x5
                          IC2IP2 = 0x6
                          OC2IP0 = 0x8
                          OC2IP1 = 0x9
                          OC2IP2 = 0xa
                           T2IP0 = 0xc
                           T2IP1 = 0xd
                           T2IP2 = 0xe
                           T3IP0 = 0x0
                           T3IP1 = 0x1
                           T3IP2 = 0x2
                        SPI1EIP0 = 0x4
                        SPI1EIP1 = 0x5
                        SPI1EIP2 = 0x6
                         SPI1IP0 = 0x8
                         SPI1IP1 = 0x9
                         SPI1IP2 = 0xa
                         U1RXIP0 = 0xc
                         U1RXIP1 = 0xd
                         U1RXIP2 = 0xe
                         U1TXIP0 = 0x0
                         U1TXIP1 = 0x1
                         U1TXIP2 = 0x2
                          AD1IP0 = 0x4
                          AD1IP1 = 0x5
                          AD1IP2 = 0x6
                         DMA1IP0 = 0x8
                         DMA1IP1 = 0x9
                         DMA1IP2 = 0xa
                        SI2C1IP0 = 0x0
                        SI2C1IP1 = 0x1
                        SI2C1IP2 = 0x2
                        MI2C1IP0 = 0x4
                        MI2C1IP1 = 0x5
                        MI2C1IP2 = 0x6
                           CMIP0 = 0x8
                           CMIP1 = 0x9
                           CMIP2 = 0xa
                           CNIP0 = 0xc
                           CNIP1 = 0xd
                           CNIP2 = 0xe
                         INT1IP0 = 0x0
                         INT1IP1 = 0x1
                         INT1IP2 = 0x2
                          IC7IP0 = 0x8
                          IC7IP1 = 0x9
                          IC7IP2 = 0xa
                          IC8IP0 = 0xc
                          IC8IP1 = 0xd
                          IC8IP2 = 0xe
                         DMA2IP0 = 0x0
                         DMA2IP1 = 0x1
                         DMA2IP2 = 0x2
                          OC3IP0 = 0x4
                          OC3IP1 = 0x5
                          OC3IP2 = 0x6
                          OC4IP0 = 0x8
                          OC4IP1 = 0x9
                          OC4IP2 = 0xa
                           T4IP0 = 0xc
                           T4IP1 = 0xd
                           T4IP2 = 0xe
                           T5IP0 = 0x0
                           T5IP1 = 0x1
                           T5IP2 = 0x2
                         INT2IP0 = 0x4
                         INT2IP1 = 0x5
                         INT2IP2 = 0x6
                         U2RXIP0 = 0x8
                         U2RXIP1 = 0x9
                         U2RXIP2 = 0xa
                         U2TXIP0 = 0xc
                         U2TXIP1 = 0xd
                         U2TXIP2 = 0xe
                        SPI2EIP0 = 0x0
                        SPI2EIP1 = 0x1
                        SPI2EIP2 = 0x2
                         SPI2IP0 = 0x4
                         SPI2IP1 = 0x5
                         SPI2IP2 = 0x6
                         C1RXIP0 = 0x8
                         C1RXIP1 = 0x9
                         C1RXIP2 = 0xa
                           C1IP0 = 0xc
                           C1IP1 = 0xd
                           C1IP2 = 0xe
                         DMA3IP0 = 0x0
                         DMA3IP1 = 0x1
                         DMA3IP2 = 0x2
                          PMPIP0 = 0x4
                          PMPIP1 = 0x5
                          PMPIP2 = 0x6
                         DMA4IP0 = 0x8
                         DMA4IP1 = 0x9
                         DMA4IP2 = 0xa
                         DCIEIP0 = 0xc
                         DCIEIP1 = 0xd
                         DCIEIP2 = 0xe
                          DCIIP0 = 0x0
                          DCIIP1 = 0x1
                          DCIIP2 = 0x2
                         DMA5IP0 = 0x4
                         DMA5IP1 = 0x5
                         DMA5IP2 = 0x6
                          RTCIP0 = 0x8
                          RTCIP1 = 0x9
                          RTCIP2 = 0xa
                          U1EIP0 = 0x4
                          U1EIP1 = 0x5
                          U1EIP2 = 0x6
                          U2EIP0 = 0x8
                          U2EIP1 = 0x9
                          U2EIP2 = 0xa
                          CRCIP0 = 0xc
                          CRCIP1 = 0xd
                          CRCIP2 = 0xe
                         DMA6IP0 = 0x0
                         DMA6IP1 = 0x1
                         DMA6IP2 = 0x2
                         DMA7IP0 = 0x4
                         DMA7IP1 = 0x5
                         DMA7IP2 = 0x6
                         C1TXIP0 = 0x8
                         C1TXIP1 = 0x9
                         C1TXIP2 = 0xa
                        DAC1RIP0 = 0x8
                        DAC1RIP1 = 0x9
                        DAC1RIP2 = 0xa
                        DAC1LIP0 = 0xc
                        DAC1LIP1 = 0xd
                        DAC1LIP2 = 0xe
                         VECNUM0 = 0x0
                         VECNUM1 = 0x1
                         VECNUM2 = 0x2
                         VECNUM3 = 0x3
                         VECNUM4 = 0x4
                         VECNUM5 = 0x5
                         VECNUM6 = 0x6
                            ILR0 = 0x8
                            ILR1 = 0x9
                            ILR2 = 0xa
                            ILR3 = 0xb
                             TCS = 0x1
                           TSYNC = 0x2
                           TGATE = 0x6
                           TSIDL = 0xd
                             TON = 0xf
                          TCKPS0 = 0x4
                          TCKPS1 = 0x5
                             T32 = 0x3
                           ICBNE = 0x3
                            ICOV = 0x4
                           ICTMR = 0x7
                          ICSIDL = 0xd
                            ICM0 = 0x0
                            ICM1 = 0x1
                            ICM2 = 0x2
                            ICI0 = 0x5
                            ICI1 = 0x6
                          OCTSEL = 0x3
                           OCFLT = 0x4
                          OCSIDL = 0xd
                            OCM0 = 0x0
                            OCM1 = 0x1
                            OCM2 = 0x2
                             SEN = 0x0
                            RSEN = 0x1
                             PEN = 0x2
                            RCEN = 0x3
                           ACKEN = 0x4
                           ACKDT = 0x5
                           STREN = 0x6
                            GCEN = 0x7
                            SMEN = 0x8
                          DISSLW = 0x9
                            A10M = 0xa
                          IPMIEN = 0xb
                          SCLREL = 0xc
                         I2CSIDL = 0xd
                           I2CEN = 0xf
                             TBF = 0x0
                             RBF = 0x1
                             R_W = 0x2
                               S = 0x3
                               P = 0x4
                             D_A = 0x5
                           I2COV = 0x6
                           IWCOL = 0x7
                           ADD10 = 0x8
                          GCSTAT = 0x9
                             BCL = 0xa
                          TRSTAT = 0xe
                         ACKSTAT = 0xf
                           STSEL = 0x0
                            BRGH = 0x3
                          URXINV = 0x4
                           ABAUD = 0x5
                          LPBACK = 0x6
                            WAKE = 0x7
                           RTSMD = 0xb
                            IREN = 0xc
                           USIDL = 0xd
                          UARTEN = 0xf
                          PDSEL0 = 0x1
                          PDSEL1 = 0x2
                            UEN0 = 0x8
                            UEN1 = 0x9
                           URXDA = 0x0
                            OERR = 0x1
                            FERR = 0x2
                            PERR = 0x3
                           RIDLE = 0x4
                           ADDEN = 0x5
                            TRMT = 0x8
                           UTXBF = 0x9
                           UTXEN = 0xa
                          UTXBRK = 0xb
                        UTXISEL0 = 0xd
                          UTXINV = 0xe
                        UTXISEL1 = 0xf
                        URXISEL0 = 0x6
                        URXISEL1 = 0x7
                         UTXREG0 = 0x0
                         UTXREG1 = 0x1
                         UTXREG2 = 0x2
                         UTXREG3 = 0x3
                         UTXREG4 = 0x4
                         UTXREG5 = 0x5
                         UTXREG6 = 0x6
                         UTXREG7 = 0x7
                         UTXREG8 = 0x8
                         URXREG0 = 0x0
                         URXREG1 = 0x1
                         URXREG2 = 0x2
                         URXREG3 = 0x3
                         URXREG4 = 0x4
                         URXREG5 = 0x5
                         URXREG6 = 0x6
                         URXREG7 = 0x7
                         URXREG8 = 0x8
                          SPIRBF = 0x0
                          SPITBF = 0x1
                          SPIROV = 0x6
                         SPISIDL = 0xd
                           SPIEN = 0xf
                           MSTEN = 0x5
                             CKP = 0x6
                            SSEN = 0x7
                             CKE = 0x8
                             SMP = 0x9
                          MODE16 = 0xa
                          DISSDO = 0xb
                          DISSCK = 0xc
                           PPRE0 = 0x0
                           PPRE1 = 0x1
                           SPRE0 = 0x2
                           SPRE1 = 0x3
                           SPRE2 = 0x4
                          FRMDLY = 0x1
                          FRMPOL = 0xd
                          SPIFSD = 0xe
                           FRMEN = 0xf
                            DJST = 0x5
                           CSDOM = 0x6
                            UNFM = 0x7
                           COFSD = 0x8
                           CSCKE = 0x9
                           CSCKD = 0xa
                           DLOOP = 0xb
                         DCISIDL = 0xd
                           DCIEN = 0xf
                          COFSM0 = 0x0
                          COFSM1 = 0x1
                             WS0 = 0x0
                             WS1 = 0x1
                             WS2 = 0x2
                             WS3 = 0x3
                          COFSG0 = 0x5
                          COFSG1 = 0x6
                          COFSG2 = 0x7
                          COFSG3 = 0x8
                           BLEN0 = 0xa
                           BLEN1 = 0xb
                           TMPTY = 0x0
                            TUNF = 0x1
                            RFUL = 0x2
                             ROV = 0x3
                           SLOT0 = 0x8
                           SLOT1 = 0x9
                           SLOT2 = 0xa
                           SLOT3 = 0xb
                            TSE0 = 0x0
                            TSE1 = 0x1
                            TSE2 = 0x2
                            TSE3 = 0x3
                            TSE4 = 0x4
                            TSE5 = 0x5
                            TSE6 = 0x6
                            TSE7 = 0x7
                            TSE8 = 0x8
                            TSE9 = 0x9
                           TSE10 = 0xa
                           TSE11 = 0xb
                           TSE12 = 0xc
                           TSE13 = 0xd
                           TSE14 = 0xe
                           TSE15 = 0xf
                            RSE0 = 0x0
                            RSE1 = 0x1
                            RSE2 = 0x2
                            RSE3 = 0x3
                            RSE4 = 0x4
                            RSE5 = 0x5
                            RSE6 = 0x6
                            RSE7 = 0x7
                            RSE8 = 0x8
                            RSE9 = 0x9
                           RSE10 = 0xa
                           RSE11 = 0xb
                           RSE12 = 0xc
                           RSE13 = 0xd
                           RSE14 = 0xe
                           RSE15 = 0xf
                          TRISA0 = 0x0
                          TRISA1 = 0x1
                          TRISA2 = 0x2
                          TRISA3 = 0x3
                          TRISA4 = 0x4
                             RA0 = 0x0
                             RA1 = 0x1
                             RA2 = 0x2
                             RA3 = 0x3
                             RA4 = 0x4
                           LATA0 = 0x0
                           LATA1 = 0x1
                           LATA2 = 0x2
                           LATA3 = 0x3
                           LATA4 = 0x4
                           ODCA0 = 0x0
                           ODCA1 = 0x1
                           ODCA2 = 0x2
                           ODCA3 = 0x3
                           ODCA4 = 0x4
                          TRISB0 = 0x0
                          TRISB1 = 0x1
                          TRISB2 = 0x2
                          TRISB3 = 0x3
                          TRISB4 = 0x4
                          TRISB5 = 0x5
                          TRISB6 = 0x6
                          TRISB7 = 0x7
                          TRISB8 = 0x8
                          TRISB9 = 0x9
                         TRISB10 = 0xa
                         TRISB11 = 0xb
                         TRISB12 = 0xc
                         TRISB13 = 0xd
                         TRISB14 = 0xe
                         TRISB15 = 0xf
                             RB0 = 0x0
                             RB1 = 0x1
                             RB2 = 0x2
                             RB3 = 0x3
                             RB4 = 0x4
                             RB5 = 0x5
                             RB6 = 0x6
                             RB7 = 0x7
                             RB8 = 0x8
                             RB9 = 0x9
                            RB10 = 0xa
                            RB11 = 0xb
                            RB12 = 0xc
                            RB13 = 0xd
                            RB14 = 0xe
                            RB15 = 0xf
                           LATB0 = 0x0
                           LATB1 = 0x1
                           LATB2 = 0x2
                           LATB3 = 0x3
                           LATB4 = 0x4
                           LATB5 = 0x5
                           LATB6 = 0x6
                           LATB7 = 0x7
                           LATB8 = 0x8
                           LATB9 = 0x9
                          LATB10 = 0xa
                          LATB11 = 0xb
                          LATB12 = 0xc
                          LATB13 = 0xd
                          LATB14 = 0xe
                          LATB15 = 0xf
                           ODCB0 = 0x0
                           ODCB1 = 0x1
                           ODCB2 = 0x2
                           ODCB3 = 0x3
                           ODCB4 = 0x4
                           ODCB5 = 0x5
                           ODCB6 = 0x6
                           ODCB7 = 0x7
                           ODCB8 = 0x8
                           ODCB9 = 0x9
                          ODCB10 = 0xa
                          ODCB11 = 0xb
                          ODCB12 = 0xc
                          ODCB13 = 0xd
                          ODCB14 = 0xe
                          ODCB15 = 0xf
                          PMPTTL = 0x0
                        RTSECSEL = 0x1
                            DONE = 0x0
                            SAMP = 0x1
                            ASAM = 0x2
                          SIMSAM = 0x3
                           AD12B = 0xa
                         ADDMABM = 0xc
                          ADSIDL = 0xd
                            ADON = 0xf
                           SSRC0 = 0x5
                           SSRC1 = 0x6
                           SSRC2 = 0x7
                           FORM0 = 0x8
                           FORM1 = 0x9
                            ALTS = 0x0
                            BUFM = 0x1
                            BUFS = 0x7
                           CSCNA = 0xa
                           SMPI0 = 0x2
                           SMPI1 = 0x3
                           SMPI2 = 0x4
                           SMPI3 = 0x5
                           CHPS0 = 0x8
                           CHPS1 = 0x9
                           VCFG0 = 0xd
                           VCFG1 = 0xe
                           VCFG2 = 0xf
                            ADRC = 0xf
                           ADCS0 = 0x0
                           ADCS1 = 0x1
                           ADCS2 = 0x2
                           ADCS3 = 0x3
                           ADCS4 = 0x4
                           ADCS5 = 0x5
                           ADCS6 = 0x6
                           ADCS7 = 0x7
                           SAMC0 = 0x8
                           SAMC1 = 0x9
                           SAMC2 = 0xa
                           SAMC3 = 0xb
                           SAMC4 = 0xc
                         CH123SA = 0x0
                         CH123SB = 0x8
                        CH123NA0 = 0x1
                        CH123NA1 = 0x2
                        CH123NB0 = 0x9
                        CH123NB1 = 0xa
                           CH0NA = 0x7
                           CH0NB = 0xf
                          CH0SA0 = 0x0
                          CH0SA1 = 0x1
                          CH0SA2 = 0x2
                          CH0SA3 = 0x3
                          CH0SA4 = 0x4
                          CH0SB0 = 0x8
                          CH0SB1 = 0x9
                          CH0SB2 = 0xa
                          CH0SB3 = 0xb
                          CH0SB4 = 0xc
                           PCFG0 = 0x0
                           PCFG1 = 0x1
                           PCFG2 = 0x2
                           PCFG3 = 0x3
                           PCFG4 = 0x4
                           PCFG5 = 0x5
                           PCFG9 = 0x9
                          PCFG10 = 0xa
                          PCFG11 = 0xb
                          PCFG12 = 0xc
                            CSS0 = 0x0
                            CSS1 = 0x1
                            CSS2 = 0x2
                            CSS3 = 0x3
                            CSS4 = 0x4
                            CSS5 = 0x5
                            CSS9 = 0x9
                           CSS10 = 0xa
                           CSS11 = 0xb
                           CSS12 = 0xc
                          DMABL0 = 0x0
                          DMABL1 = 0x1
                          DMABL2 = 0x2
                           NULLW = 0xb
                            HALF = 0xc
                             DIR = 0xd
                            SIZE = 0xe
                            CHEN = 0xf
                   MODE0_DMA0CON = 0x0
                   MODE1_DMA0CON = 0x1
                          AMODE0 = 0x4
                          AMODE1 = 0x5
                           FORCE = 0xf
                         IRQSEL0 = 0x0
                         IRQSEL1 = 0x1
                         IRQSEL2 = 0x2
                         IRQSEL3 = 0x3
                         IRQSEL4 = 0x4
                         IRQSEL5 = 0x5
                         IRQSEL6 = 0x6
                   MODE0_DMA1CON = 0x0
                   MODE1_DMA1CON = 0x1
                   MODE0_DMA2CON = 0x0
                   MODE1_DMA2CON = 0x1
                   MODE0_DMA3CON = 0x0
                   MODE1_DMA3CON = 0x1
                   MODE0_DMA4CON = 0x0
                   MODE1_DMA4CON = 0x1
                   MODE0_DMA5CON = 0x0
                   MODE1_DMA5CON = 0x1
                   MODE0_DMA6CON = 0x0
                   MODE1_DMA6CON = 0x1
                   MODE0_DMA7CON = 0x0
                   MODE1_DMA7CON = 0x1
                          XWCOL0 = 0x0
                          XWCOL1 = 0x1
                          XWCOL2 = 0x2
                          XWCOL3 = 0x3
                          XWCOL4 = 0x4
                          XWCOL5 = 0x5
                          XWCOL6 = 0x6
                          XWCOL7 = 0x7
                          PWCOL0 = 0x8
                          PWCOL1 = 0x9
                          PWCOL2 = 0xa
                          PWCOL3 = 0xb
                          PWCOL4 = 0xc
                          PWCOL5 = 0xd
                          PWCOL6 = 0xe
                          PWCOL7 = 0xf
                           PPST0 = 0x0
                           PPST1 = 0x1
                           PPST2 = 0x2
                           PPST3 = 0x3
                           PPST4 = 0x4
                           PPST5 = 0x5
                           PPST6 = 0x6
                           PPST7 = 0x7
                          LSTCH0 = 0x8
                          LSTCH1 = 0x9
                          LSTCH2 = 0xa
                          LSTCH3 = 0xb
                            FORM = 0x8
                           AMPON = 0xc
                         DACSIDL = 0xd
                           DACEN = 0xf
                        DACFDIV0 = 0x0
                        DACFDIV1 = 0x1
                        DACFDIV2 = 0x2
                        DACFDIV3 = 0x3
                        DACFDIV4 = 0x4
                        DACFDIV5 = 0x5
                        DACFDIV6 = 0x6
                          REMPTY = 0x0
                           RFULL = 0x1
                          RITYPE = 0x2
                          RMVOEN = 0x5
                            ROEN = 0x7
                          LEMPTY = 0x8
                           LFULL = 0x9
                          LITYPE = 0xa
                          LMVOEN = 0xd
                            LOEN = 0xf
                             WIN = 0x0
                          CANCAP = 0x3
                          CANCKS = 0xb
                            ABAT = 0xc
                           CSIDL = 0xd
                         OPMODE0 = 0x5
                         OPMODE1 = 0x6
                         OPMODE2 = 0x7
                          REQOP0 = 0x8
                          REQOP1 = 0x9
                          REQOP2 = 0xa
                          DNCNT0 = 0x0
                          DNCNT1 = 0x1
                          DNCNT2 = 0x2
                          DNCNT3 = 0x3
                          DNCNT4 = 0x4
                          ICODE0 = 0x0
                          ICODE1 = 0x1
                          ICODE2 = 0x2
                          ICODE3 = 0x3
                          ICODE4 = 0x4
                          ICODE5 = 0x5
                          ICODE6 = 0x6
                         FILHIT0 = 0x8
                         FILHIT1 = 0x9
                         FILHIT2 = 0xa
                         FILHIT3 = 0xb
                         FILHIT4 = 0xc
                            FSA0 = 0x0
                            FSA1 = 0x1
                            FSA2 = 0x2
                            FSA3 = 0x3
                            FSA4 = 0x4
                          DMABS0 = 0xd
                          DMABS1 = 0xe
                          DMABS2 = 0xf
                           FNRB0 = 0x0
                           FNRB1 = 0x1
                           FNRB2 = 0x2
                           FNRB3 = 0x3
                           FNRB4 = 0x4
                           FNRB5 = 0x5
                            FBP0 = 0x8
                            FBP1 = 0x9
                            FBP2 = 0xa
                            FBP3 = 0xb
                            FBP4 = 0xc
                            FBP5 = 0xd
                            TBIF = 0x0
                            RBIF = 0x1
                          RBOVIF = 0x2
                          FIFOIF = 0x3
                           ERRIF = 0x5
                           WAKIF = 0x6
                           IVRIF = 0x7
                           EWARN = 0x8
                           RXWAR = 0x9
                           TXWAR = 0xa
                            RXBP = 0xb
                            TXBP = 0xc
                            TXBO = 0xd
                            TBIE = 0x0
                            RBIE = 0x1
                          RBOVIE = 0x2
                          FIFOIE = 0x3
                           ERRIE = 0x5
                           WAKIE = 0x6
                           IVRIE = 0x7
                        RERRCNT0 = 0x0
                        RERRCNT1 = 0x1
                        RERRCNT2 = 0x2
                        RERRCNT3 = 0x3
                        RERRCNT4 = 0x4
                        RERRCNT5 = 0x5
                        RERRCNT6 = 0x6
                        RERRCNT7 = 0x7
                        TERRCNT0 = 0x8
                        TERRCNT1 = 0x9
                        TERRCNT2 = 0xa
                        TERRCNT3 = 0xb
                        TERRCNT4 = 0xc
                        TERRCNT5 = 0xd
                        TERRCNT6 = 0xe
                        TERRCNT7 = 0xf
                            BRP0 = 0x0
                            BRP1 = 0x1
                            BRP2 = 0x2
                            BRP3 = 0x3
                            BRP4 = 0x4
                            BRP5 = 0x5
                            SJW0 = 0x6
                            SJW1 = 0x7
                             SAM = 0x6
                        SEG2PHTS = 0x7
                          WAKFIL = 0xe
                          PRSEG0 = 0x0
                          PRSEG1 = 0x1
                          PRSEG2 = 0x2
                         SEG1PH0 = 0x3
                         SEG1PH1 = 0x4
                         SEG1PH2 = 0x5
                         SEG2PH0 = 0x8
                         SEG2PH1 = 0x9
                         SEG2PH2 = 0xa
                          FLTEN0 = 0x0
                          FLTEN1 = 0x1
                          FLTEN2 = 0x2
                          FLTEN3 = 0x3
                          FLTEN4 = 0x4
                          FLTEN5 = 0x5
                          FLTEN6 = 0x6
                          FLTEN7 = 0x7
                          FLTEN8 = 0x8
                          FLTEN9 = 0x9
                         FLTEN10 = 0xa
                         FLTEN11 = 0xb
                         FLTEN12 = 0xc
                         FLTEN13 = 0xd
                         FLTEN14 = 0xe
                         FLTEN15 = 0xf
                          F0MSK0 = 0x0
                          F0MSK1 = 0x1
                          F1MSK0 = 0x2
                          F1MSK1 = 0x3
                          F2MSK0 = 0x4
                          F2MSK1 = 0x5
                          F3MSK0 = 0x6
                          F3MSK1 = 0x7
                          F4MSK0 = 0x8
                          F4MSK1 = 0x9
                          F5MSK0 = 0xa
                          F5MSK1 = 0xb
                          F6MSK0 = 0xc
                          F6MSK1 = 0xd
                          F7MSK0 = 0xe
                          F7MSK1 = 0xf
                          F8MSK0 = 0x0
                          F8MSK1 = 0x1
                          F9MSK0 = 0x2
                          F9MSK1 = 0x3
                         F10MSK0 = 0x4
                         F10MSK1 = 0x5
                         F11MSK0 = 0x6
                         F11MSK1 = 0x7
                         F12MSK0 = 0x8
                         F12MSK1 = 0x9
                         F13MSK0 = 0xa
                         F13MSK1 = 0xb
                         F14MSK0 = 0xc
                         F14MSK1 = 0xd
                         F15MSK0 = 0xe
                         F15MSK1 = 0xf
                           F0BP0 = 0x0
                           F0BP1 = 0x1
                           F0BP2 = 0x2
                           F0BP3 = 0x3
                           F1BP0 = 0x4
                           F1BP1 = 0x5
                           F1BP2 = 0x6
                           F1BP3 = 0x7
                           F2BP0 = 0x8
                           F2BP1 = 0x9
                           F2BP2 = 0xa
                           F2BP3 = 0xb
                           F3BP0 = 0xc
                           F3BP1 = 0xd
                           F3BP2 = 0xe
                           F3BP3 = 0xf
                          RXFUL0 = 0x0
                          RXFUL1 = 0x1
                          RXFUL2 = 0x2
                          RXFUL3 = 0x3
                          RXFUL4 = 0x4
                          RXFUL5 = 0x5
                          RXFUL6 = 0x6
                          RXFUL7 = 0x7
                          RXFUL8 = 0x8
                          RXFUL9 = 0x9
                         RXFUL10 = 0xa
                         RXFUL11 = 0xb
                         RXFUL12 = 0xc
                         RXFUL13 = 0xd
                         RXFUL14 = 0xe
                         RXFUL15 = 0xf
                           F4BP0 = 0x0
                           F4BP1 = 0x1
                           F4BP2 = 0x2
                           F4BP3 = 0x3
                           F5BP0 = 0x4
                           F5BP1 = 0x5
                           F5BP2 = 0x6
                           F5BP3 = 0x7
                           F6BP0 = 0x8
                           F6BP1 = 0x9
                           F6BP2 = 0xa
                           F6BP3 = 0xb
                           F7BP0 = 0xc
                           F7BP1 = 0xd
                           F7BP2 = 0xe
                           F7BP3 = 0xf
                         RXFUL16 = 0x0
                         RXFUL17 = 0x1
                         RXFUL18 = 0x2
                         RXFUL19 = 0x3
                         RXFUL20 = 0x4
                         RXFUL21 = 0x5
                         RXFUL22 = 0x6
                         RXFUL23 = 0x7
                         RXFUL24 = 0x8
                         RXFUL25 = 0x9
                         RXFUL26 = 0xa
                         RXFUL27 = 0xb
                         RXFUL28 = 0xc
                         RXFUL29 = 0xd
                         RXFUL30 = 0xe
                         RXFUL31 = 0xf
                           F8BP0 = 0x0
                           F8BP1 = 0x1
                           F8BP2 = 0x2
                           F8BP3 = 0x3
                           F9BP0 = 0x4
                           F9BP1 = 0x5
                           F9BP2 = 0x6
                           F9BP3 = 0x7
                          F10BP0 = 0x8
                          F10BP1 = 0x9
                          F10BP2 = 0xa
                          F10BP3 = 0xb
                          F11BP0 = 0xc
                          F11BP1 = 0xd
                          F11BP2 = 0xe
                          F11BP3 = 0xf
                          F12BP0 = 0x0
                          F12BP1 = 0x1
                          F12BP2 = 0x2
                          F12BP3 = 0x3
                          F13BP0 = 0x4
                          F13BP1 = 0x5
                          F13BP2 = 0x6
                          F13BP3 = 0x7
                          F14BP0 = 0x8
                          F14BP1 = 0x9
                          F14BP2 = 0xa
                          F14BP3 = 0xb
                          F15BP0 = 0xc
                          F15BP1 = 0xd
                          F15BP2 = 0xe
                          F15BP3 = 0xf
                          RXOVF0 = 0x0
                          RXOVF1 = 0x1
                          RXOVF2 = 0x2
                          RXOVF3 = 0x3
                          RXOVF4 = 0x4
                          RXOVF5 = 0x5
                          RXOVF6 = 0x6
                          RXOVF7 = 0x7
                          RXOVF8 = 0x8
                          RXOVF9 = 0x9
                         RXOVF10 = 0xa
                         RXOVF11 = 0xb
                         RXOVF12 = 0xc
                         RXOVF13 = 0xd
                         RXOVF14 = 0xe
                         RXOVF15 = 0xf
                         RXOVF16 = 0x0
                         RXOVF17 = 0x1
                         RXOVF18 = 0x2
                         RXOVF19 = 0x3
                         RXOVF20 = 0x4
                         RXOVF21 = 0x5
                         RXOVF22 = 0x6
                         RXOVF23 = 0x7
                         RXOVF24 = 0x8
                         RXOVF25 = 0x9
                         RXOVF26 = 0xa
                         RXOVF27 = 0xb
                         RXOVF28 = 0xc
                         RXOVF29 = 0xd
                         RXOVF30 = 0xe
                         RXOVF31 = 0xf
                           EID16 = 0x0
                           EID17 = 0x1
                            MIDE = 0x3
                            SID0 = 0x5
                            SID1 = 0x6
                            SID2 = 0x7
                            SID3 = 0x8
                            SID4 = 0x9
                            SID5 = 0xa
                            SID6 = 0xb
                            SID7 = 0xc
                            SID8 = 0xd
                            SID9 = 0xe
                           SID10 = 0xf
                          RTREN0 = 0x2
                          TXREQ0 = 0x3
                          TXERR0 = 0x4
                         TXLARB0 = 0x5
                          TXABT0 = 0x6
                           TXEN0 = 0x7
                          RTREN1 = 0xa
                          TXREQ1 = 0xb
                          TXERR1 = 0xc
                         TXLARB1 = 0xd
                          TXABT1 = 0xe
                           TXEN1 = 0xf
                         TX0PRI0 = 0x0
                         TX0PRI1 = 0x1
                         TX1PRI0 = 0x8
                         TX1PRI1 = 0x9
                            EID0 = 0x0
                            EID1 = 0x1
                            EID2 = 0x2
                            EID3 = 0x3
                            EID4 = 0x4
                            EID5 = 0x5
                            EID6 = 0x6
                            EID7 = 0x7
                            EID8 = 0x8
                            EID9 = 0x9
                           EID10 = 0xa
                           EID11 = 0xb
                           EID12 = 0xc
                           EID13 = 0xd
                           EID14 = 0xe
                           EID15 = 0xf
                          RTREN2 = 0x2
                          TXREQ2 = 0x3
                          TXERR2 = 0x4
                         TXLARB2 = 0x5
                          TXABT2 = 0x6
                           TXEN2 = 0x7
                          RTREN3 = 0xa
                          TXREQ3 = 0xb
                          TXERR3 = 0xc
                         TXLARB3 = 0xd
                          TXABT3 = 0xe
                           TXEN3 = 0xf
                         TX2PRI0 = 0x0
                         TX2PRI1 = 0x1
                         TX3PRI0 = 0x8
                         TX3PRI1 = 0x9
                          RTREN4 = 0x2
                          TXREQ4 = 0x3
                          TXERR4 = 0x4
                         TXLARB4 = 0x5
                          TXABT4 = 0x6
                           TXEN4 = 0x7
                          RTREN5 = 0xa
                          TXREQ5 = 0xb
                          TXERR5 = 0xc
                         TXLARB5 = 0xd
                          TXABT5 = 0xe
                           TXEN5 = 0xf
                         TX4PRI0 = 0x0
                         TX4PRI1 = 0x1
                         TX5PRI0 = 0x8
                         TX5PRI1 = 0x9
                          RTREN6 = 0x2
                          TXREQ6 = 0x3
                          TXERR6 = 0x4
                         TXLARB6 = 0x5
                          TXABT6 = 0x6
                           TXEN6 = 0x7
                          RTREN7 = 0xa
                          TXREQ7 = 0xb
                          TXERR7 = 0xc
                         TXLARB7 = 0xd
                          TXABT7 = 0xe
                           TXEN7 = 0xf
                         TX6PRI0 = 0x0
                         TX6PRI1 = 0x1
                         TX7PRI0 = 0x8
                         TX7PRI1 = 0x9
                           EXIDE = 0x3
                            RDSP = 0x0
                            WRSP = 0x1
                             BEP = 0x2
                            CS1P = 0x3
                             ALP = 0x5
                          PTRDEN = 0x8
                          PTWREN = 0x9
                          PTBEEN = 0xa
                           PSIDL = 0xd
                           PMPEN = 0xf
                            CSF0 = 0x6
                            CSF1 = 0x7
                         ADRMUX0 = 0xb
                         ADRMUX1 = 0xc
                            BUSY = 0xf
                          WAITE0 = 0x0
                          WAITE1 = 0x1
                          WAITM0 = 0x2
                          WAITM1 = 0x3
                          WAITM2 = 0x4
                          WAITM3 = 0x5
                          WAITB0 = 0x6
                          WAITB1 = 0x7
                    MODE0_PMMODE = 0x8
                    MODE1_PMMODE = 0x9
                           INCM0 = 0xb
                           INCM1 = 0xc
                           IRQM0 = 0xd
                           IRQM1 = 0xe
                             CS1 = 0xe
                          ADDR15 = 0xf
                           ADDR0 = 0x0
                           ADDR1 = 0x1
                           ADDR2 = 0x2
                           ADDR3 = 0x3
                           ADDR4 = 0x4
                           ADDR5 = 0x5
                           ADDR6 = 0x6
                           ADDR7 = 0x7
                           ADDR8 = 0x8
                           ADDR9 = 0x9
                          ADDR10 = 0xa
                          ADDR11 = 0xb
                          ADDR12 = 0xc
                          ADDR13 = 0xd
                          PTEN14 = 0xe
                           PTEN0 = 0x0
                           PTEN1 = 0x1
                            OB0E = 0x0
                            OB1E = 0x1
                            OB2E = 0x2
                            OB3E = 0x3
                            OBUF = 0x6
                             OBE = 0x7
                            IB0F = 0x8
                            IB1F = 0x9
                            IB2F = 0xa
                            IB3F = 0xb
                            IBOV = 0xe
                             IBF = 0xf
                           CHIME = 0xe
                          ALRMEN = 0xf
                           ARPT0 = 0x0
                           ARPT1 = 0x1
                           ARPT2 = 0x2
                           ARPT3 = 0x3
                           ARPT4 = 0x4
                           ARPT5 = 0x5
                           ARPT6 = 0x6
                           ARPT7 = 0x7
                        ALRMPTR0 = 0x8
                        ALRMPTR1 = 0x9
                          AMASK0 = 0xa
                          AMASK1 = 0xb
                          AMASK2 = 0xc
                          AMASK3 = 0xd
                           RTCOE = 0xa
                         HALFSEC = 0xb
                         RTCSYNC = 0xc
                         RTCWREN = 0xd
                           RTCEN = 0xf
                            CAL0 = 0x0
                            CAL1 = 0x1
                            CAL2 = 0x2
                            CAL3 = 0x3
                            CAL4 = 0x4
                            CAL5 = 0x5
                            CAL6 = 0x6
                            CAL7 = 0x7
                         RTCPTR0 = 0x8
                         RTCPTR1 = 0x9
                           C1POS = 0x0
                           C1NEG = 0x1
                           C2POS = 0x2
                           C2NEG = 0x3
                           C1INV = 0x4
                           C2INV = 0x5
                           C1OUT = 0x6
                           C2OUT = 0x7
                         C1OUTEN = 0x8
                         C2OUTEN = 0x9
                            C1EN = 0xa
                            C2EN = 0xb
                           C1EVT = 0xc
                           C2EVT = 0xd
                           CMIDL = 0xf
                           CVRSS = 0x4
                            CVRR = 0x5
                           CVROE = 0x6
                           CVREN = 0x7
                            CVR0 = 0x0
                            CVR1 = 0x1
                            CVR2 = 0x2
                            CVR3 = 0x3
                           CRCGO = 0x4
                          CRCMPT = 0x6
                          CRCFUL = 0x7
                           PLEN0 = 0x0
                           PLEN1 = 0x1
                           PLEN2 = 0x2
                           PLEN3 = 0x3
                          VWORD0 = 0x8
                          VWORD1 = 0x9
                          VWORD2 = 0xa
                          VWORD3 = 0xb
                          VWORD4 = 0xc
                          INT1R0 = 0x8
                          INT1R1 = 0x9
                          INT1R2 = 0xa
                          INT1R3 = 0xb
                          INT1R4 = 0xc
                          INT2R0 = 0x0
                          INT2R1 = 0x1
                          INT2R2 = 0x2
                          INT2R3 = 0x3
                          INT2R4 = 0x4
                          T2CKR0 = 0x0
                          T2CKR1 = 0x1
                          T2CKR2 = 0x2
                          T2CKR3 = 0x3
                          T2CKR4 = 0x4
                          T3CKR0 = 0x8
                          T3CKR1 = 0x9
                          T3CKR2 = 0xa
                          T3CKR3 = 0xb
                          T3CKR4 = 0xc
                          T4CKR0 = 0x0
                          T4CKR1 = 0x1
                          T4CKR2 = 0x2
                          T4CKR3 = 0x3
                          T4CKR4 = 0x4
                          T5CKR0 = 0x8
                          T5CKR1 = 0x9
                          T5CKR2 = 0xa
                          T5CKR3 = 0xb
                          T5CKR4 = 0xc
                           IC1R0 = 0x0
                           IC1R1 = 0x1
                           IC1R2 = 0x2
                           IC1R3 = 0x3
                           IC1R4 = 0x4
                           IC2R0 = 0x8
                           IC2R1 = 0x9
                           IC2R2 = 0xa
                           IC2R3 = 0xb
                           IC2R4 = 0xc
                           IC7R0 = 0x0
                           IC7R1 = 0x1
                           IC7R2 = 0x2
                           IC7R3 = 0x3
                           IC7R4 = 0x4
                           IC8R0 = 0x8
                           IC8R1 = 0x9
                           IC8R2 = 0xa
                           IC8R3 = 0xb
                           IC8R4 = 0xc
                          OCFAR0 = 0x0
                          OCFAR1 = 0x1
                          OCFAR2 = 0x2
                          OCFAR3 = 0x3
                          OCFAR4 = 0x4
                          U1RXR0 = 0x0
                          U1RXR1 = 0x1
                          U1RXR2 = 0x2
                          U1RXR3 = 0x3
                          U1RXR4 = 0x4
                         U1CTSR0 = 0x8
                         U1CTSR1 = 0x9
                         U1CTSR2 = 0xa
                         U1CTSR3 = 0xb
                         U1CTSR4 = 0xc
                          U2RXR0 = 0x0
                          U2RXR1 = 0x1
                          U2RXR2 = 0x2
                          U2RXR3 = 0x3
                          U2RXR4 = 0x4
                         U2CTSR0 = 0x8
                         U2CTSR1 = 0x9
                         U2CTSR2 = 0xa
                         U2CTSR3 = 0xb
                         U2CTSR4 = 0xc
                          SDI1R0 = 0x0
                          SDI1R1 = 0x1
                          SDI1R2 = 0x2
                          SDI1R3 = 0x3
                          SDI1R4 = 0x4
                          SCK1R0 = 0x8
                          SCK1R1 = 0x9
                          SCK1R2 = 0xa
                          SCK1R3 = 0xb
                          SCK1R4 = 0xc
                           SS1R0 = 0x0
                           SS1R1 = 0x1
                           SS1R2 = 0x2
                           SS1R3 = 0x3
                           SS1R4 = 0x4
                          SDI2R0 = 0x0
                          SDI2R1 = 0x1
                          SDI2R2 = 0x2
                          SDI2R3 = 0x3
                          SDI2R4 = 0x4
                          SCK2R0 = 0x8
                          SCK2R1 = 0x9
                          SCK2R2 = 0xa
                          SCK2R3 = 0xb
                          SCK2R4 = 0xc
                           SS2R0 = 0x0
                           SS2R1 = 0x1
                           SS2R2 = 0x2
                           SS2R3 = 0x3
                           SS2R4 = 0x4
                          CSDIR0 = 0x0
                          CSDIR1 = 0x1
                          CSDIR2 = 0x2
                          CSDIR3 = 0x3
                          CSDIR4 = 0x4
                          CSCKR0 = 0x8
                          CSCKR1 = 0x9
                          CSCKR2 = 0xa
                          CSCKR3 = 0xb
                          CSCKR4 = 0xc
                          COFSR0 = 0x0
                          COFSR1 = 0x1
                          COFSR2 = 0x2
                          COFSR3 = 0x3
                          COFSR4 = 0x4
                          C1RXR0 = 0x0
                          C1RXR1 = 0x1
                          C1RXR2 = 0x2
                          C1RXR3 = 0x3
                          C1RXR4 = 0x4
                           RP0R0 = 0x0
                           RP0R1 = 0x1
                           RP0R2 = 0x2
                           RP0R3 = 0x3
                           RP0R4 = 0x4
                           RP1R0 = 0x8
                           RP1R1 = 0x9
                           RP1R2 = 0xa
                           RP1R3 = 0xb
                           RP1R4 = 0xc
                           RP2R0 = 0x0
                           RP2R1 = 0x1
                           RP2R2 = 0x2
                           RP2R3 = 0x3
                           RP2R4 = 0x4
                           RP3R0 = 0x8
                           RP3R1 = 0x9
                           RP3R2 = 0xa
                           RP3R3 = 0xb
                           RP3R4 = 0xc
                           RP4R0 = 0x0
                           RP4R1 = 0x1
                           RP4R2 = 0x2
                           RP4R3 = 0x3
                           RP4R4 = 0x4
                           RP5R0 = 0x8
                           RP5R1 = 0x9
                           RP5R2 = 0xa
                           RP5R3 = 0xb
                           RP5R4 = 0xc
                           RP6R0 = 0x0
                           RP6R1 = 0x1
                           RP6R2 = 0x2
                           RP6R3 = 0x3
                           RP6R4 = 0x4
                           RP7R0 = 0x8
                           RP7R1 = 0x9
                           RP7R2 = 0xa
                           RP7R3 = 0xb
                           RP7R4 = 0xc
                           RP8R0 = 0x0
                           RP8R1 = 0x1
                           RP8R2 = 0x2
                           RP8R3 = 0x3
                           RP8R4 = 0x4
                           RP9R0 = 0x8
                           RP9R1 = 0x9
                           RP9R2 = 0xa
                           RP9R3 = 0xb
                           RP9R4 = 0xc
                          RP10R0 = 0x0
                          RP10R1 = 0x1
                          RP10R2 = 0x2
                          RP10R3 = 0x3
                          RP10R4 = 0x4
                          RP11R0 = 0x8
                          RP11R1 = 0x9
                          RP11R2 = 0xa
                          RP11R3 = 0xb
                          RP11R4 = 0xc
                          RP12R0 = 0x0
                          RP12R1 = 0x1
                          RP12R2 = 0x2
                          RP12R3 = 0x3
                          RP12R4 = 0x4
                          RP13R0 = 0x8
                          RP13R1 = 0x9
                          RP13R2 = 0xa
                          RP13R3 = 0xb
                          RP13R4 = 0xc
                          RP14R0 = 0x0
                          RP14R1 = 0x1
                          RP14R2 = 0x2
                          RP14R3 = 0x3
                          RP14R4 = 0x4
                          RP15R0 = 0x8
                          RP15R1 = 0x9
                          RP15R2 = 0xa
                          RP15R3 = 0xb
                          RP15R4 = 0xc
                             POR = 0x0
                             BOR = 0x1
                            IDLE = 0x2
                           SLEEP = 0x3
                            WDTO = 0x4
                          SWDTEN = 0x5
                             SWR = 0x6
                            EXTR = 0x7
                           VREGS = 0x8
                              CM = 0x9
                          IOPUWR = 0xe
                           TRAPR = 0xf
                           OSWEN = 0x0
                         LPOSCEN = 0x1
                              CF = 0x3
                            LOCK = 0x5
                          IOLOCK = 0x6
                         CLKLOCK = 0x7
                           NOSC0 = 0x8
                           NOSC1 = 0x9
                           NOSC2 = 0xa
                           COSC0 = 0xc
                           COSC1 = 0xd
                           COSC2 = 0xe
                           DOZEN = 0xb
                             ROI = 0xf
                         PLLPRE0 = 0x0
                         PLLPRE1 = 0x1
                         PLLPRE2 = 0x2
                         PLLPRE3 = 0x3
                         PLLPRE4 = 0x4
                        PLLPOST0 = 0x6
                        PLLPOST1 = 0x7
                         FRCDIV0 = 0x8
                         FRCDIV1 = 0x9
                         FRCDIV2 = 0xa
                           DOZE0 = 0xc
                           DOZE1 = 0xd
                           DOZE2 = 0xe
                         PLLDIV0 = 0x0
                         PLLDIV1 = 0x1
                         PLLDIV2 = 0x2
                         PLLDIV3 = 0x3
                         PLLDIV4 = 0x4
                         PLLDIV5 = 0x5
                         PLLDIV6 = 0x6
                         PLLDIV7 = 0x7
                         PLLDIV8 = 0x8
                            TUN0 = 0x0
                            TUN1 = 0x1
                            TUN2 = 0x2
                            TUN3 = 0x3
                            TUN4 = 0x4
                            TUN5 = 0x5
                         ASRCSEL = 0x7
                         SELACLK = 0xd
                       APSTSCLR0 = 0x8
                       APSTSCLR1 = 0x9
                       APSTSCLR2 = 0xa
                         AOSCMD0 = 0xb
                         AOSCMD1 = 0xc
                          RL_BSR = 0x0
                          IR_BSR = 0x1
                          IW_BSR = 0x2
                          RL_SSR = 0x0
                          IR_SSR = 0x1
                          IW_SSR = 0x2
                           ERASE = 0x6
                           WRERR = 0xd
                            WREN = 0xe
                              WR = 0xf
                          NVMOP0 = 0x0
                          NVMOP1 = 0x1
                          NVMOP2 = 0x2
                          NVMOP3 = 0x3
                           AD1MD = 0x0
                            C1MD = 0x1
                          SPI1MD = 0x3
                          SPI2MD = 0x4
                            U1MD = 0x5
                            U2MD = 0x6
                          I2C1MD = 0x7
                           DCIMD = 0x8
                            T1MD = 0xb
                            T2MD = 0xc
                            T3MD = 0xd
                            T4MD = 0xe
                            T5MD = 0xf
                           OC1MD = 0x0
                           OC2MD = 0x1
                           OC3MD = 0x2
                           OC4MD = 0x3
                           IC1MD = 0x8
                           IC2MD = 0x9
                           IC7MD = 0xe
                           IC8MD = 0xf
                          DAC1MD = 0x6
                           CRCMD = 0x7
                           PMPMD = 0x8
                          RTCCMD = 0x9
                           CMPMD = 0xa
                      SLEEP_MODE = 0x0
                       IDLE_MODE = 0x1
               BWRP_WRPROTECT_ON = 0xfffe
              BWRP_WRPROTECT_OFF = 0xffff
            BSS_LARGE_FLASH_HIGH = 0xfff1
        BSS_HIGH_LARGE_BOOT_CODE = 0xfff1
           BSS_MEDIUM_FLASH_HIGH = 0xfff3
       BSS_HIGH_MEDIUM_BOOT_CODE = 0xfff3
            BSS_SMALL_FLASH_HIGH = 0xfff5
        BSS_HIGH_SMALL_BOOT_CODE = 0xfff5
             BSS_LARGE_FLASH_STD = 0xfff9
        BSS_STRD_LARGE_BOOT_CODE = 0xfff9
            BSS_MEDIUM_FLASH_STD = 0xfffb
       BSS_STRD_MEDIUM_BOOT_CODE = 0xfffb
             BSS_SMALL_FLASH_STD = 0xfffd
        BSS_STRD_SMALL_BOOT_CODE = 0xfffd
                    BSS_NO_FLASH = 0xffff
                BSS_NO_BOOT_CODE = 0xffff
                   RBS_LARGE_RAM = 0xff3f
              RBS_LARGE_BOOT_RAM = 0xff3f
                  RBS_MEDIUM_RAM = 0xff7f
             RBS_MEDIUM_BOOT_RAM = 0xff7f
                   RBS_SMALL_RAM = 0xffbf
              RBS_SMALL_BOOT_RAM = 0xffbf
                      RBS_NO_RAM = 0xffff
                 RBS_NO_BOOT_RAM = 0xffff
               SWRP_WRPROTECT_ON = 0xfffe
              SWRP_WRPROTECT_OFF = 0xffff
            SSS_LARGE_FLASH_HIGH = 0xfff1
         SSS_HIGH_LARGE_SEC_CODE = 0xfff1
           SSS_MEDIUM_FLASH_HIGH = 0xfff3
        SSS_HIGH_MEDIUM_SEC_CODE = 0xfff3
            SSS_SMALL_FLASH_HIGH = 0xfff5
         SSS_HIGH_SMALL_SEC_CODE = 0xfff5
             SSS_LARGE_FLASH_STD = 0xfff9
         SSS_STRD_LARGE_SEC_CODE = 0xfff9
            SSS_MEDIUM_FLASH_STD = 0xfffb
        SSS_STRD_MEDIUM_SEC_CODE = 0xfffb
             SSS_SMALL_FLASH_STD = 0xfffd
         SSS_STRD_SMALL_SEC_CODE = 0xfffd
                    SSS_NO_FLASH = 0xffff
                 SSS_NO_SEC_CODE = 0xffff
                   RSS_LARGE_RAM = 0xff3f
               RSS_LARGE_SEC_RAM = 0xff3f
                  RSS_MEDIUM_RAM = 0xff7f
              RSS_MEDIUM_SEC_RAM = 0xff7f
                   RSS_SMALL_RAM = 0xffbf
               RSS_SMALL_SEC_RAM = 0xffbf
                      RSS_NO_RAM = 0xffff
                  RSS_NO_SEC_RAM = 0xffff
                         GWRP_ON = 0xfffe
                        GWRP_OFF = 0xffff
                        GSS_HIGH = 0xfffb
                         GSS_STD = 0xfffd
                          GCP_ON = 0xfffd
                         GSS_OFF = 0xffff
                         GCP_OFF = 0xffff
                       FNOSC_FRC = 0xfff8
                    FNOSC_FRCPLL = 0xfff9
                       FNOSC_PRI = 0xfffa
                    FNOSC_PRIPLL = 0xfffb
                      FNOSC_SOSC = 0xfffc
                      FNOSC_LPRC = 0xfffd
                  FNOSC_FRCDIV16 = 0xfffe
                  FNOSC_LPRCDIVN = 0xffff
                        IESO_OFF = 0xff7f
                         IESO_ON = 0xffff
                       POSCMD_EC = 0xfffc
                       POSCMD_XT = 0xfffd
                       POSCMD_HS = 0xfffe
                     POSCMD_NONE = 0xffff
                     OSCIOFNC_ON = 0xfffb
                    OSCIOFNC_OFF = 0xffff
                     IOL1WAY_OFF = 0xffdf
                      IOL1WAY_ON = 0xffff
                    FCKSM_CSECME = 0xff3f
                    FCKSM_CSECMD = 0xff7f
                    FCKSM_CSDCMD = 0xffbf
                     WDTPOST_PS1 = 0xfff0
                     WDTPOST_PS2 = 0xfff1
                     WDTPOST_PS4 = 0xfff2
                     WDTPOST_PS8 = 0xfff3
                    WDTPOST_PS16 = 0xfff4
                    WDTPOST_PS32 = 0xfff5
                    WDTPOST_PS64 = 0xfff6
                   WDTPOST_PS128 = 0xfff7
                   WDTPOST_PS256 = 0xfff8
                   WDTPOST_PS512 = 0xfff9
                  WDTPOST_PS1024 = 0xfffa
                  WDTPOST_PS2048 = 0xfffb
                  WDTPOST_PS4096 = 0xfffc
                  WDTPOST_PS8192 = 0xfffd
                 WDTPOST_PS16384 = 0xfffe
                 WDTPOST_PS32768 = 0xffff
                     WDTPRE_PR32 = 0xffef
                    WDTPRE_PR128 = 0xffff
                       WINDIS_ON = 0xffbf
                      WINDIS_OFF = 0xffff
                      FWDTEN_OFF = 0xff7f
                       FWDTEN_ON = 0xffff
                      FPWRT_PWR1 = 0xfff8
                      FPWRT_PWR2 = 0xfff9
                      FPWRT_PWR4 = 0xfffa
                      FPWRT_PWR8 = 0xfffb
                     FPWRT_PWR16 = 0xfffc
                     FPWRT_PWR32 = 0xfffd
                     FPWRT_PWR64 = 0xfffe
                    FPWRT_PWR128 = 0xffff
                       ALTI2C_ON = 0xffef
                      ALTI2C_OFF = 0xffff
                        ICS_PGD3 = 0xfffd
                        ICS_PGD2 = 0xfffe
                        ICS_PGD1 = 0xffff
                      JTAGEN_OFF = 0xffdf
                       JTAGEN_ON = 0xffff
                        VALID_ID = 0x1
                      FLASH_SIZE = 0x15800
                        RAM_SIZE = 0x4000
                         PLL_DIV = 0x2b
                         PLL_FBD = 0x29
                        PLL_POST = 0x2
                         PLL_PRE = 0x2
                        FREQ_FIN = 0x707510
                        FREQ_OSC = 0x4b8ea6c
                       BAUDRATE1 = 0x1c200
                        FC1_TYPE = 0x1
                       AUTOBAUD1 = 0x0
                        FC2_TYPE = 0x1
                       AUTOBAUD2 = 0x0
                         U1RXPIN = 0xb
                      RPINR18VAL = 0xb
                         U1TXPIN = 0xa
                    BASE_DEFAULT = 0xa
                        CPU_LOAD = 0x1
                    CPU_LOAD_LED = 0x0
                   CPU_LOAD_TRIS = TRISB
                   CPU_LOAD_PORT = PORTB
                    CPU_LOAD_BIT = 0x8
           CPU_LOAD_LED_POLARITY = 0x0
                   TURNKEY_DELAY = 0x7d0
                    TX1_BUF_SIZE = 0x40
                    RX1_BUF_SIZE = 0x80
                    RX1_OFF_FILL = 0x20
                    TX2_BUF_SIZE = 0x10
                    RX2_BUF_SIZE = 0x20
                    RX2_OFF_FILL = 0x8
               RETURN_STACK_SIZE = 0x60
            PARAMETER_STACK_SIZE = 0x60
                        TIB_SIZE = 0x80
                       HOLD_SIZE = 0xa
                        UADDSIZE = 0x0
                      DEBUG_INFO = 0x0
                     DEBUG_FLASH = 0x0
                       C_EXAMPLE = 0x1
               CTRL_O_WARM_RESET = 0x1
                          PFLASH = 0x4800
                         HI_TEMP = 0x1a000
                        FLASH_HI = 0xffff
                     FLASH_ERASE = 0x4042
                     FLASH_WRITE = 0x4001
              FLASH_WRITE_SINGLE = 0x4003
                           PAIVT = 0x100
                       IBUFSIZEL = 0x400
                       IBUFSIZEH = 0x200
                        IBUFLEN1 = 0x40
                        IBUFLEN2 = 0x8
                        IBUFMASK = 0xfc00
                             FCY = 0x25c7536
                       MS_PR_VAL = 0x9abc
                       BAUD_DIV1 = 0x54
                     write_delay = 0x14
                             NFA = 0x80
                           IMMED = 0x40
                          INLINE = 0x20
                         COMPILE = 0x10
                             NFL = 0xf
                   BUSYIDLE_MASK = 0xc000
                           fBUSY = 0xf
                           fIDLE = 0xe
                          edirty = 0xc
                            fFC2 = 0xb
                          ixoff2 = 0xa
                           fLOCK = 0x9
                        tailcall = 0x8
                         noclear = 0x6
                            idup = 0x5
                         izeroeq = 0x4
                         istream = 0x3
                            fFC1 = 0x2
                          ixoff1 = 0x1
                          idirty = 0x0
                             XON = 0x11
                            XOFF = 0x13
                        IVECSIZE = 0x40
                             us0 = 0xffffffe0
                             ur0 = 0xffffffe2
                           uemit = 0xffffffe4
                            ukey = 0xffffffe6
                           ukeyq = 0xffffffe8
                           ulink = 0xffffffea
                           ubase = 0xffffffec
                            utib = 0xffffffee
                           utask = 0xfffffff0
                            uflg = 0xfffffff2
                         ustatus = 0xfffffff3
                          ursave = 0xfffffff4
                          ussave = 0xfffffff6
                          upsave = 0xfffffff8
                         usource = 0xfffffffa
                           utoin = 0xfffffffe
                             uhp = 0x0
                       uareasize = 0x16c
                   MARKER_LENGTH = 0x4
                     coldlitsize = 0x4
                     warmlitsize = 0xe

SECTION INFORMATION:

Section        Length (PC units)   Length (bytes) (dec)
-------        -----------------   --------------------
.text                     0x2400          0x3600  (13824)
__FOSCSEL.sec                0x2             0x3  (3)
__FOSC.sec                   0x2             0x3  (3)

TOTAL PROGRAM MEMORY USED (bytes):        0x3606  (13830)

Section           Alignment Gaps   Length (bytes) (dec)
-------           --------------   --------------------
.data                          0               0  (0)
.bss                           0           0x8e8  (2280)

   TOTAL DATA MEMORY USED (bytes):         0x8e8  (2280)
